ARM GAS  C:\Users\dufma\AppData\Local\Temp\cc7LgTKg.s 			page 1


   1              		.syntax unified
   2              		.cpu cortex-m3
   3              		.fpu softvfp
   4              		.eabi_attribute 20, 1
   5              		.eabi_attribute 21, 1
   6              		.eabi_attribute 23, 3
   7              		.eabi_attribute 24, 1
   8              		.eabi_attribute 25, 1
   9              		.eabi_attribute 26, 1
  10              		.eabi_attribute 30, 1
  11              		.eabi_attribute 34, 1
  12              		.eabi_attribute 18, 4
  13              		.thumb
  14              		.file	"main.c"
  15              		.text
  16              	.Ltext0:
  17              		.cfi_sections	.debug_frame
  18              		.section	.text.convert_raw,"ax",%progbits
  19              		.align	2
  20              		.global	convert_raw
  21              		.thumb
  22              		.thumb_func
  23              		.type	convert_raw, %function
  24              	convert_raw:
  25              	.LFB64:
  26              		.file 1 ".\\main.c"
   1:.\main.c      **** /* ======== ================================
   2:.\main.c      ****  *
   3:.\main.c      ****  * Copyright YOUR COMPANY, THE YEAR
   4:.\main.c      ****  * All Rights Reserved
   5:.\main.c      ****  * UNPUBLISHED, LICENSED SOFTWARE.
   6:.\main.c      ****  *
   7:.\main.c      ****  * CONFIDENTIAL AND PROPRIETARY INFORMATION
   8:.\main.c      ****  * WHICH IS THE PROPERTY OF your company.
   9:.\main.c      ****  *
  10:.\main.c      ****  * ========================================
  11:.\main.c      **** */
  12:.\main.c      **** #include <project.h>
  13:.\main.c      **** #include <stdio.h>
  14:.\main.c      **** #include "Motor.h"
  15:.\main.c      **** #include "Ultra.h"
  16:.\main.c      **** #include "nunchuk.h"
  17:.\main.c      **** #include "Reflectance.h"
  18:.\main.c      **** #include "I2C_made.h"
  19:.\main.c      **** #include "gyro.h"
  20:.\main.c      **** #include "accel_magnet.h"
  21:.\main.c      **** #include "Ambient.h"
  22:.\main.c      **** 
  23:.\main.c      **** int rread(void);
  24:.\main.c      **** 
  25:.\main.c      **** 
  26:.\main.c      **** 
  27:.\main.c      **** 
  28:.\main.c      **** 
  29:.\main.c      **** int main()
  30:.\main.c      **** {
  31:.\main.c      ****     CyGlobalIntEnable; 
ARM GAS  C:\Users\dufma\AppData\Local\Temp\cc7LgTKg.s 			page 2


  32:.\main.c      ****     UART_Start();
  33:.\main.c      ****     printf("Start\r\n");
  34:.\main.c      ****    
  35:.\main.c      ****     I2C_Start();
  36:.\main.c      ****     
  37:.\main.c      ****     uint16 value =0;
  38:.\main.c      ****     
  39:.\main.c      ****     I2C_write(0x29,0x80,0x00);
  40:.\main.c      ****     
  41:.\main.c      ****     value = I2C_read(0x29,0x80);
  42:.\main.c      ****     printf("%x ",value);
  43:.\main.c      ****     
  44:.\main.c      ****     I2C_write(0x29,0x80,0x03);
  45:.\main.c      ****     value = I2C_read(0x29,0x80);
  46:.\main.c      ****     printf("%x\r\n",value);
  47:.\main.c      ****         
  48:.\main.c      ****     value = I2C_read(0x29,0x81);
  49:.\main.c      ****     printf("%x\r\n",value);
  50:.\main.c      ****     for(;;)
  51:.\main.c      ****     {
  52:.\main.c      ****         
  53:.\main.c      ****         uint8 Data0Low,Data0High,Data1Low,Data1High;
  54:.\main.c      ****         Data0Low = I2C_read(0x29,CH0_L);
  55:.\main.c      ****         Data0High = I2C_read(0x29,CH0_H);
  56:.\main.c      ****         Data1Low = I2C_read(0x29,CH1_L);
  57:.\main.c      ****         Data1High = I2C_read(0x29,CH1_H);
  58:.\main.c      ****         
  59:.\main.c      ****         uint8 CH0, CH1;
  60:.\main.c      ****         CH0 = convert_raw(Data0Low,Data0High);
  61:.\main.c      ****         CH1 = convert_raw(Data1Low,Data1High);
  62:.\main.c      **** 
  63:.\main.c      ****    //     printf("%d %d %d %d\r\n",Data0Low,Data0High, Data1Low,Data1High);
  64:.\main.c      ****    //     printf("%d %d\r\n",CH0,CH1);
  65:.\main.c      ****            printf("%f\r\n",(float)CH1/CH0);
  66:.\main.c      ****         
  67:.\main.c      ****    /*
  68:.\main.c      ****         double Ch0 = CH0;
  69:.\main.c      ****         double Ch1 = CH1;
  70:.\main.c      ****         
  71:.\main.c      ****         double data = 0;
  72:.\main.c      ****         data = getLux(Ch0,Ch1);
  73:.\main.c      ****         printf("%lf\r\n",data);    
  74:.\main.c      ****      */   
  75:.\main.c      ****     }
  76:.\main.c      ****  
  77:.\main.c      ****     
  78:.\main.c      ****     /* //accelerometer//
  79:.\main.c      ****     //--------------------------------------------------------------
  80:.\main.c      ****     I2C_Start();
  81:.\main.c      ****   
  82:.\main.c      ****     uint8 X_L_A, X_H_A, Y_L_A, Y_H_A, Z_L_A, Z_H_A;
  83:.\main.c      ****     int16 X_AXIS, Y_AXIS, Z_AXIS;
  84:.\main.c      ****     
  85:.\main.c      ****     I2C_write(ACCEL_MAG_ADDR, ACCEL_CTRL1_REG, 0x37);           // set accelerometer & magnetometer
  86:.\main.c      ****     I2C_write(ACCEL_MAG_ADDR, ACCEL_CTRL7_REG, 0x22);
  87:.\main.c      ****     
  88:.\main.c      ****     
ARM GAS  C:\Users\dufma\AppData\Local\Temp\cc7LgTKg.s 			page 3


  89:.\main.c      ****     for(;;)
  90:.\main.c      ****     {
  91:.\main.c      ****         //print out accelerometer output
  92:.\main.c      ****         X_L_A = I2C_read(ACCEL_MAG_ADDR, OUT_X_L_A);
  93:.\main.c      ****         X_H_A = I2C_read(ACCEL_MAG_ADDR, OUT_X_H_A);
  94:.\main.c      ****         X_AXIS = convert_raw(X_L_A, X_H_A);
  95:.\main.c      ****         
  96:.\main.c      ****         Y_L_A = I2C_read(ACCEL_MAG_ADDR, OUT_Y_L_A);
  97:.\main.c      ****         Y_H_A = I2C_read(ACCEL_MAG_ADDR, OUT_Y_H_A);
  98:.\main.c      ****         Y_AXIS = convert_raw(Y_L_A, Y_H_A);
  99:.\main.c      ****         
 100:.\main.c      ****         Z_L_A = I2C_read(ACCEL_MAG_ADDR, OUT_Z_L_A);
 101:.\main.c      ****         Z_H_A = I2C_read(ACCEL_MAG_ADDR, OUT_Z_H_A);
 102:.\main.c      ****         Z_AXIS = convert_raw(Z_L_A, Z_H_A);
 103:.\main.c      ****         
 104:.\main.c      ****         printf("ACCEL: %d %d %d %d %d %d \r\n", X_L_A, X_H_A, Y_L_A, Y_H_A, Z_L_A, Z_H_A);
 105:.\main.c      ****         value_convert_accel(X_AXIS, Y_AXIS, Z_AXIS);
 106:.\main.c      ****         printf("\n");
 107:.\main.c      ****         
 108:.\main.c      ****         CyDelay(50);
 109:.\main.c      ****     }
 110:.\main.c      ****     ///---------------------------------------------------------- */
 111:.\main.c      ****     
 112:.\main.c      ****     /*  //nunchuk//
 113:.\main.c      ****     ----------------------------------------------------
 114:.\main.c      ****     nunchuk_start();
 115:.\main.c      ****     nunchuk_init();
 116:.\main.c      ****     
 117:.\main.c      ****     for(;;)
 118:.\main.c      ****     {    
 119:.\main.c      ****         nunchuk_read();
 120:.\main.c      ****     }
 121:.\main.c      ****     //----------------------------------------------------*/
 122:.\main.c      ****     
 123:.\main.c      ****     
 124:.\main.c      ****      /* //ultra//
 125:.\main.c      ****     ----------------------------------------------------
 126:.\main.c      ****     ultra_isr_StartEx(ultra_isr_handler);   // Ultra Sonic Interrupt
 127:.\main.c      ****     Ultra_Start();                          // Ultra Sonic Start function
 128:.\main.c      ****    
 129:.\main.c      ****     for(;;)
 130:.\main.c      ****     {       
 131:.\main.c      ****         CyDelay(100); 
 132:.\main.c      ****         Trig_Write(1);           // Trigger High
 133:.\main.c      ****         CyDelayUs(10);              // 10 micro seconds for trigger input signals
 134:.\main.c      ****         Trig_Write(0);           // Trigger Low
 135:.\main.c      ****     }
 136:.\main.c      ****     //----------------------------------------------------*/
 137:.\main.c      ****     
 138:.\main.c      ****     
 139:.\main.c      ****     
 140:.\main.c      ****     /* //reflectance//
 141:.\main.c      ****     ----------------------------------------------------
 142:.\main.c      ****     sensor_isr_StartEx(sensor_isr_handler);
 143:.\main.c      ****     
 144:.\main.c      ****     Refelctance_Start();
 145:.\main.c      **** 
ARM GAS  C:\Users\dufma\AppData\Local\Temp\cc7LgTKg.s 			page 4


 146:.\main.c      ****     IR_led_Write(1);
 147:.\main.c      ****     for(;;)
 148:.\main.c      ****     {
 149:.\main.c      ****         reflectance_period();      //print out each period of reflectance sensors
 150:.\main.c      ****         reflectance_digital();      //print out 0 or 1 according to results of reflectance period
 151:.\main.c      ****         
 152:.\main.c      ****         CyDelay(500);
 153:.\main.c      ****     }
 154:.\main.c      ****     ///----------------------------------------------------*/
 155:.\main.c      ****    
 156:.\main.c      ****     
 157:.\main.c      ****      /* //motor//
 158:.\main.c      ****     ----------------------------------------------------
 159:.\main.c      ****     motor_Start();              // motor start
 160:.\main.c      **** 
 161:.\main.c      ****     motor_forward(50,2000);     // moving forward
 162:.\main.c      ****     motor_turn(10,50,2000);     // turn
 163:.\main.c      ****     motor_turn(50,10,2000);     // turn
 164:.\main.c      ****     motor_backward(50,2000);    // movinb backward
 165:.\main.c      ****        
 166:.\main.c      ****     motor_Stop();               // motor stop
 167:.\main.c      ****     
 168:.\main.c      ****     for(;;)
 169:.\main.c      ****     {
 170:.\main.c      **** 
 171:.\main.c      ****     }
 172:.\main.c      ****     ///----------------------------------------------------*/
 173:.\main.c      ****     
 174:.\main.c      ****     
 175:.\main.c      ****    /* //gyroscope//
 176:.\main.c      ****      //-----------------------------------------------------
 177:.\main.c      ****     I2C_Start();
 178:.\main.c      ****   
 179:.\main.c      ****     uint8 X_AXIS_L, X_AXIS_H, Y_AXIS_L, Y_AXIS_H, Z_AXIS_L, Z_AXIS_H;
 180:.\main.c      ****     //uint8 X_L_M, X_H_M, Y_L_M, Y_H_M, Z_L_M, Z_H_M;
 181:.\main.c      ****     //uint8 X_L_A, X_H_A, Y_L_A, Y_H_A, Z_L_A, Z_H_A;
 182:.\main.c      ****     int16 X_AXIS, Y_AXIS, Z_AXIS;
 183:.\main.c      ****     
 184:.\main.c      ****     I2C_write(GYRO_ADDR, GYRO_CTRL1_REG, 0x0F);             // set gyroscope into active mode
 185:.\main.c      ****     I2C_write(GYRO_ADDR, GYRO_CTRL4_REG, 0x30);             // set full scale selection to 2000dps 
 186:.\main.c      ****     
 187:.\main.c      ****     for(;;)
 188:.\main.c      ****     {
 189:.\main.c      ****         //print out gyroscope output
 190:.\main.c      ****         X_AXIS_L = I2C_read(GYRO_ADDR, OUT_X_AXIS_L);
 191:.\main.c      ****         X_AXIS_H = I2C_read(GYRO_ADDR, OUT_X_AXIS_H);
 192:.\main.c      ****         X_AXIS = convert_raw(X_AXIS_H, X_AXIS_L);
 193:.\main.c      ****         
 194:.\main.c      ****         
 195:.\main.c      ****         Y_AXIS_L = I2C_read(GYRO_ADDR, OUT_Y_AXIS_L);
 196:.\main.c      ****         Y_AXIS_H = I2C_read(GYRO_ADDR, OUT_Y_AXIS_H);
 197:.\main.c      ****         Y_AXIS = convert_raw(Y_AXIS_H, Y_AXIS_L);
 198:.\main.c      ****         
 199:.\main.c      ****         
 200:.\main.c      ****         Z_AXIS_L = I2C_read(GYRO_ADDR, OUT_Z_AXIS_L);
 201:.\main.c      ****         Z_AXIS_H = I2C_read(GYRO_ADDR, OUT_Z_AXIS_H);
 202:.\main.c      ****         Z_AXIS = convert_raw(Z_AXIS_H, Z_AXIS_L);
ARM GAS  C:\Users\dufma\AppData\Local\Temp\cc7LgTKg.s 			page 5


 203:.\main.c      ****         
 204:.\main.c      ****         
 205:.\main.c      ****         //printf("X_AXIS_L: %d, X_AXIS_H: %d, average: %d \r\n", X_AXIS_L, X_AXIS_H, (X_AXIS_H+X_AX
 206:.\main.c      ****         //printf("Y_AXIS_L: %d, Y_AXIS_H: %d, average: %d \r\n", Y_AXIS_L, Y_AXIS_H, (Y_AXIS_H+Y_AX
 207:.\main.c      ****         //printf("Z_AXIS_L: %d, Z_AXIS_H: %d, average: %d \r\n", Z_AXIS_L, Z_AXIS_H, (Z_AXIS_H+Z_AX
 208:.\main.c      ****         
 209:.\main.c      ****         printf("H L : %d %d %d %d %d %d \r\n", X_AXIS_L, X_AXIS_H, Y_AXIS_L, Y_AXIS_H, Z_AXIS_L, Z_
 210:.\main.c      ****         printf("%d %d %d \r\n", X_AXIS, Y_AXIS, Z_AXIS);
 211:.\main.c      ****         //printf("%d %d %d \r\n", value_convert_gyro(X_AXIS), value_convert_gyro(Y_AXIS), value_con
 212:.\main.c      ****         
 213:.\main.c      ****        CyDelay(50);
 214:.\main.c      ****     }
 215:.\main.c      ****     ///-----------------------------------------------------------------*/ 
 216:.\main.c      ****    
 217:.\main.c      ****   
 218:.\main.c      ****     
 219:.\main.c      ****     /* //magnetometer//
 220:.\main.c      ****      //--------------------------------------------------------------
 221:.\main.c      ****     I2C_Start();
 222:.\main.c      ****    
 223:.\main.c      ****     uint8 X_L_M, X_H_M, Y_L_M, Y_H_M, Z_L_M, Z_H_M;
 224:.\main.c      ****     int16 X_AXIS, Y_AXIS, Z_AXIS;
 225:.\main.c      ****     
 226:.\main.c      ****     I2C_write(GYRO_ADDR, GYRO_CTRL1_REG, 0x0F);             // set gyroscope into active mode
 227:.\main.c      ****     I2C_write(GYRO_ADDR, GYRO_CTRL4_REG, 0x30);             // set full scale selection to 2000dps
 228:.\main.c      ****     I2C_write(ACCEL_MAG_ADDR, ACCEL_CTRL1_REG, 0x37);           // set accelerometer & magnetometer
 229:.\main.c      ****     I2C_write(ACCEL_MAG_ADDR, ACCEL_CTRL7_REG, 0x22);
 230:.\main.c      ****     
 231:.\main.c      ****     
 232:.\main.c      ****     for(;;)
 233:.\main.c      ****     {
 234:.\main.c      ****         X_L_M = I2C_read(ACCEL_MAG_ADDR, OUT_X_L_M);
 235:.\main.c      ****         X_H_M = I2C_read(ACCEL_MAG_ADDR, OUT_X_H_M);
 236:.\main.c      ****         X_AXIS = convert_raw(X_L_M, X_H_M);
 237:.\main.c      ****         
 238:.\main.c      ****         Y_L_M = I2C_read(ACCEL_MAG_ADDR, OUT_Y_L_M);
 239:.\main.c      ****         Y_H_M = I2C_read(ACCEL_MAG_ADDR, OUT_Y_H_M);
 240:.\main.c      ****         Y_AXIS = convert_raw(Y_L_M, Y_H_M);
 241:.\main.c      ****         
 242:.\main.c      ****         Z_L_M = I2C_read(ACCEL_MAG_ADDR, OUT_Z_L_M);
 243:.\main.c      ****         Z_H_M = I2C_read(ACCEL_MAG_ADDR, OUT_Z_H_M);
 244:.\main.c      ****         Z_AXIS = convert_raw(Z_L_M, Z_H_M);
 245:.\main.c      ****         
 246:.\main.c      ****         heading(X_AXIS, Y_AXIS);
 247:.\main.c      ****         printf("MAGNET: %d %d %d %d %d %d \r\n", X_L_M, X_H_M, Y_L_M, Y_H_M, Z_L_M, Z_H_M);
 248:.\main.c      ****         printf("%d %d %d \r\n", X_AXIS,Y_AXIS, Z_AXIS);
 249:.\main.c      ****         CyDelay(50);
 250:.\main.c      ****           
 251:.\main.c      ****     }
 252:.\main.c      ****     ///----------------------------------------------------------*/
 253:.\main.c      **** }
 254:.\main.c      **** 
 255:.\main.c      **** uint16 convert_raw(uint8 L, uint8 H)            // concatenation
 256:.\main.c      **** {
  27              		.loc 1 256 0
  28              		.cfi_startproc
  29              		@ args = 0, pretend = 0, frame = 0
ARM GAS  C:\Users\dufma\AppData\Local\Temp\cc7LgTKg.s 			page 6


  30              		@ frame_needed = 0, uses_anonymous_args = 0
  31              		@ link register save eliminated.
  32              	.LVL0:
 257:.\main.c      ****     uint16 raw;
 258:.\main.c      ****     raw = (int16)(L | H << 8);
 259:.\main.c      ****     
 260:.\main.c      ****     return raw;
 261:.\main.c      **** }
  33              		.loc 1 261 0
  34 0000 40EA0120 		orr	r0, r0, r1, lsl #8
  35              	.LVL1:
  36 0004 7047     		bx	lr
  37              		.cfi_endproc
  38              	.LFE64:
  39              		.size	convert_raw, .-convert_raw
  40              		.global	__aeabi_ui2f
  41              		.global	__aeabi_i2f
  42              		.global	__aeabi_fdiv
  43              		.global	__aeabi_f2d
  44              		.section	.text.main,"ax",%progbits
  45              		.align	2
  46              		.global	main
  47              		.thumb
  48              		.thumb_func
  49              		.type	main, %function
  50              	main:
  51              	.LFB63:
  30:.\main.c      ****     CyGlobalIntEnable; 
  52              		.loc 1 30 0
  53              		.cfi_startproc
  54              		@ args = 0, pretend = 0, frame = 0
  55              		@ frame_needed = 0, uses_anonymous_args = 0
  56 0000 F8B5     		push	{r3, r4, r5, r6, r7, lr}
  57              		.cfi_def_cfa_offset 24
  58              		.cfi_offset 3, -24
  59              		.cfi_offset 4, -20
  60              		.cfi_offset 5, -16
  61              		.cfi_offset 6, -12
  62              		.cfi_offset 7, -8
  63              		.cfi_offset 14, -4
  31:.\main.c      ****     UART_Start();
  64              		.loc 1 31 0
  65              	@ 31 ".\main.c" 1
  66 0002 62B6     		CPSIE   i
  67              	@ 0 "" 2
  32:.\main.c      ****     printf("Start\r\n");
  68              		.loc 1 32 0
  69              		.thumb
  70 0004 FFF7FEFF 		bl	UART_Start
  71              	.LVL2:
  33:.\main.c      ****    
  72              		.loc 1 33 0
  73 0008 2B48     		ldr	r0, .L5
  74 000a FFF7FEFF 		bl	puts
  75              	.LVL3:
  35:.\main.c      ****     
  76              		.loc 1 35 0
ARM GAS  C:\Users\dufma\AppData\Local\Temp\cc7LgTKg.s 			page 7


  77 000e FFF7FEFF 		bl	I2C_Start
  78              	.LVL4:
  39:.\main.c      ****     
  79              		.loc 1 39 0
  80 0012 2920     		movs	r0, #41
  81 0014 8021     		movs	r1, #128
  82 0016 0022     		movs	r2, #0
  83 0018 FFF7FEFF 		bl	I2C_write
  84              	.LVL5:
  41:.\main.c      ****     printf("%x ",value);
  85              		.loc 1 41 0
  86 001c 2920     		movs	r0, #41
  87 001e 8021     		movs	r1, #128
  88 0020 FFF7FEFF 		bl	I2C_read
  89              	.LVL6:
  90 0024 0146     		mov	r1, r0
  91              	.LVL7:
  42:.\main.c      ****     
  92              		.loc 1 42 0
  93 0026 2548     		ldr	r0, .L5+4
  94 0028 FFF7FEFF 		bl	printf
  95              	.LVL8:
  44:.\main.c      ****     value = I2C_read(0x29,0x80);
  96              		.loc 1 44 0
  97 002c 2920     		movs	r0, #41
  98 002e 8021     		movs	r1, #128
  99 0030 0322     		movs	r2, #3
 100 0032 FFF7FEFF 		bl	I2C_write
 101              	.LVL9:
  45:.\main.c      ****     printf("%x\r\n",value);
 102              		.loc 1 45 0
 103 0036 2920     		movs	r0, #41
 104 0038 8021     		movs	r1, #128
 105 003a FFF7FEFF 		bl	I2C_read
 106              	.LVL10:
 107 003e 0146     		mov	r1, r0
 108              	.LVL11:
  46:.\main.c      ****         
 109              		.loc 1 46 0
 110 0040 1F4C     		ldr	r4, .L5+8
 111 0042 2046     		mov	r0, r4
 112 0044 FFF7FEFF 		bl	printf
 113              	.LVL12:
  48:.\main.c      ****     printf("%x\r\n",value);
 114              		.loc 1 48 0
 115 0048 2920     		movs	r0, #41
 116 004a 8121     		movs	r1, #129
 117 004c FFF7FEFF 		bl	I2C_read
 118              	.LVL13:
 119 0050 0146     		mov	r1, r0
 120              	.LVL14:
  49:.\main.c      ****     for(;;)
 121              		.loc 1 49 0
 122 0052 2046     		mov	r0, r4
 123 0054 FFF7FEFF 		bl	printf
 124              	.LVL15:
 125              	.L3:
ARM GAS  C:\Users\dufma\AppData\Local\Temp\cc7LgTKg.s 			page 8


 126              	.LBB2:
  54:.\main.c      ****         Data0High = I2C_read(0x29,CH0_H);
 127              		.loc 1 54 0 discriminator 1
 128 0058 2920     		movs	r0, #41
 129 005a 8C21     		movs	r1, #140
 130 005c FFF7FEFF 		bl	I2C_read
 131              	.LVL16:
 132 0060 0746     		mov	r7, r0
 133              	.LVL17:
  55:.\main.c      ****         Data1Low = I2C_read(0x29,CH1_L);
 134              		.loc 1 55 0 discriminator 1
 135 0062 2920     		movs	r0, #41
 136 0064 8D21     		movs	r1, #141
 137 0066 FFF7FEFF 		bl	I2C_read
 138              	.LVL18:
 139 006a 0546     		mov	r5, r0
 140              	.LVL19:
  56:.\main.c      ****         Data1High = I2C_read(0x29,CH1_H);
 141              		.loc 1 56 0 discriminator 1
 142 006c 2920     		movs	r0, #41
 143 006e 8E21     		movs	r1, #142
 144 0070 FFF7FEFF 		bl	I2C_read
 145              	.LVL20:
 146 0074 0646     		mov	r6, r0
 147              	.LVL21:
  57:.\main.c      ****         
 148              		.loc 1 57 0 discriminator 1
 149 0076 2920     		movs	r0, #41
 150 0078 8F21     		movs	r1, #143
 151 007a FFF7FEFF 		bl	I2C_read
 152              	.LVL22:
 153 007e 0446     		mov	r4, r0
 154              	.LVL23:
  60:.\main.c      ****         CH1 = convert_raw(Data1Low,Data1High);
 155              		.loc 1 60 0 discriminator 1
 156 0080 3846     		mov	r0, r7
 157 0082 2946     		mov	r1, r5
 158 0084 FFF7FEFF 		bl	convert_raw
 159              	.LVL24:
 160 0088 C5B2     		uxtb	r5, r0
 161              	.LVL25:
  61:.\main.c      **** 
 162              		.loc 1 61 0 discriminator 1
 163 008a 3046     		mov	r0, r6
 164 008c 2146     		mov	r1, r4
 165 008e FFF7FEFF 		bl	convert_raw
 166              	.LVL26:
  65:.\main.c      ****         
 167              		.loc 1 65 0 discriminator 1
 168 0092 C0B2     		uxtb	r0, r0
 169 0094 FFF7FEFF 		bl	__aeabi_ui2f
 170              	.LVL27:
 171 0098 0446     		mov	r4, r0
 172              	.LVL28:
 173 009a 2846     		mov	r0, r5
 174 009c FFF7FEFF 		bl	__aeabi_i2f
 175              	.LVL29:
ARM GAS  C:\Users\dufma\AppData\Local\Temp\cc7LgTKg.s 			page 9


 176 00a0 0146     		mov	r1, r0
 177 00a2 2046     		mov	r0, r4
 178 00a4 FFF7FEFF 		bl	__aeabi_fdiv
 179              	.LVL30:
 180 00a8 FFF7FEFF 		bl	__aeabi_f2d
 181              	.LVL31:
 182 00ac 0246     		mov	r2, r0
 183 00ae 0B46     		mov	r3, r1
 184 00b0 0448     		ldr	r0, .L5+12
 185 00b2 FFF7FEFF 		bl	printf
 186              	.LVL32:
 187              	.LBE2:
  75:.\main.c      ****  
 188              		.loc 1 75 0 discriminator 1
 189 00b6 CFE7     		b	.L3
 190              	.L6:
 191              		.align	2
 192              	.L5:
 193 00b8 00000000 		.word	.LC0
 194 00bc 08000000 		.word	.LC1
 195 00c0 0C000000 		.word	.LC2
 196 00c4 14000000 		.word	.LC3
 197              		.cfi_endproc
 198              	.LFE63:
 199              		.size	main, .-main
 200              		.section	.text._write,"ax",%progbits
 201              		.align	2
 202              		.global	_write
 203              		.thumb
 204              		.thumb_func
 205              		.type	_write, %function
 206              	_write:
 207              	.LFB65:
 262:.\main.c      **** 
 263:.\main.c      **** 
 264:.\main.c      **** #if 0
 265:.\main.c      **** int rread(void)
 266:.\main.c      **** {
 267:.\main.c      ****     SC0_SetDriveMode(PIN_DM_STRONG);
 268:.\main.c      ****     SC0_Write(1);
 269:.\main.c      ****     CyDelayUs(10);
 270:.\main.c      ****     SC0_SetDriveMode(PIN_DM_DIG_HIZ);
 271:.\main.c      ****     Timer_1_Start();
 272:.\main.c      ****     uint16_t start = Timer_1_ReadCounter();
 273:.\main.c      ****     uint16_t end = 0;
 274:.\main.c      ****     while(!(Timer_1_ReadStatusRegister() & Timer_1_STATUS_TC)) {
 275:.\main.c      ****         if(SC0_Read() == 0 && end == 0) {
 276:.\main.c      ****             end = Timer_1_ReadCounter();
 277:.\main.c      ****         }
 278:.\main.c      ****     }
 279:.\main.c      ****     Timer_1_Stop();
 280:.\main.c      ****     
 281:.\main.c      ****     return (start - end);
 282:.\main.c      **** }
 283:.\main.c      **** #endif
 284:.\main.c      **** 
 285:.\main.c      **** int _write(int file, char *ptr, int len)
ARM GAS  C:\Users\dufma\AppData\Local\Temp\cc7LgTKg.s 			page 10


 286:.\main.c      **** {
 208              		.loc 1 286 0
 209              		.cfi_startproc
 210              		@ args = 0, pretend = 0, frame = 0
 211              		@ frame_needed = 0, uses_anonymous_args = 0
 212              	.LVL33:
 213 0000 70B5     		push	{r4, r5, r6, lr}
 214              		.cfi_def_cfa_offset 16
 215              		.cfi_offset 4, -16
 216              		.cfi_offset 5, -12
 217              		.cfi_offset 6, -8
 218              		.cfi_offset 14, -4
 219 0002 1646     		mov	r6, r2
 220              	.LVL34:
 287:.\main.c      ****     (void) file;
 288:.\main.c      **** 	int n;
 289:.\main.c      **** 	for(n = 0; n < len; n++) {
 221              		.loc 1 289 0
 222 0004 0024     		movs	r4, #0
 223 0006 05E0     		b	.L8
 224              	.LVL35:
 225              	.L9:
 290:.\main.c      **** 		UART_PutChar(*ptr++);
 226              		.loc 1 290 0 discriminator 3
 227 0008 4D1C     		adds	r5, r1, #1
 228              	.LVL36:
 229 000a 0878     		ldrb	r0, [r1]	@ zero_extendqisi2
 230 000c FFF7FEFF 		bl	UART_PutChar
 231              	.LVL37:
 289:.\main.c      **** 		UART_PutChar(*ptr++);
 232              		.loc 1 289 0 discriminator 3
 233 0010 0134     		adds	r4, r4, #1
 234              	.LVL38:
 235              		.loc 1 290 0 discriminator 3
 236 0012 2946     		mov	r1, r5
 237              	.LVL39:
 238              	.L8:
 289:.\main.c      **** 		UART_PutChar(*ptr++);
 239              		.loc 1 289 0 discriminator 1
 240 0014 B442     		cmp	r4, r6
 241 0016 F7DB     		blt	.L9
 291:.\main.c      **** 	}
 292:.\main.c      **** 	return len;
 293:.\main.c      **** }
 242              		.loc 1 293 0
 243 0018 3046     		mov	r0, r6
 244 001a 70BD     		pop	{r4, r5, r6, pc}
 245              		.cfi_endproc
 246              	.LFE65:
 247              		.size	_write, .-_write
 248              		.comm	digital_sensor_value,8,4
 249              		.comm	sensors,8,4
 250              		.section	.rodata.str1.4,"aMS",%progbits,1
 251              		.align	2
 252              	.LC0:
 253 0000 53746172 		.ascii	"Start\015\000"
 253      740D00
ARM GAS  C:\Users\dufma\AppData\Local\Temp\cc7LgTKg.s 			page 11


 254 0007 00       		.space	1
 255              	.LC1:
 256 0008 25782000 		.ascii	"%x \000"
 257              	.LC2:
 258 000c 25780D0A 		.ascii	"%x\015\012\000"
 258      00
 259 0011 000000   		.space	3
 260              	.LC3:
 261 0014 25660D0A 		.ascii	"%f\015\012\000"
 261      00
 262 0019 000000   		.text
 263              	.Letext0:
 264              		.file 2 "c:\\program files (x86)\\cypress\\psoc creator\\3.3\\psoc creator\\import\\gnu\\arm\\4.9.
 265              		.file 3 "c:\\program files (x86)\\cypress\\psoc creator\\3.3\\psoc creator\\import\\gnu\\arm\\4.9.
 266              		.file 4 "Generated_Source\\PSoC5/cytypes.h"
 267              		.file 5 ".\\Reflectance.h"
 268              		.file 6 "Generated_Source\\PSoC5/core_cm3.h"
 269              		.file 7 ".\\I2C_made.h"
 270              		.file 8 "c:\\program files (x86)\\cypress\\psoc creator\\3.3\\psoc creator\\import\\gnu\\arm\\4.9.
 271              		.file 9 "Generated_Source\\PSoC5/UART.h"
 272              		.file 10 "Generated_Source\\PSoC5/I2C.h"
 273              		.file 11 "<built-in>"