ARM GAS  C:\Users\dufma\AppData\Local\Temp\ccqwVn4t.s 			page 1


   1              		.syntax unified
   2              		.cpu cortex-m3
   3              		.fpu softvfp
   4              		.eabi_attribute 20, 1
   5              		.eabi_attribute 21, 1
   6              		.eabi_attribute 23, 3
   7              		.eabi_attribute 24, 1
   8              		.eabi_attribute 25, 1
   9              		.eabi_attribute 26, 1
  10              		.eabi_attribute 30, 1
  11              		.eabi_attribute 34, 1
  12              		.eabi_attribute 18, 4
  13              		.thumb
  14              		.file	"Ultra.c"
  15              		.text
  16              	.Ltext0:
  17              		.cfi_sections	.debug_frame
  18              		.global	__aeabi_ui2f
  19              		.global	__aeabi_fdiv
  20              		.global	__aeabi_fsub
  21              		.global	__aeabi_fmul
  22              		.global	__aeabi_f2iz
  23              		.section	.text.ultra_isr_handler,"ax",%progbits
  24              		.align	2
  25              		.global	ultra_isr_handler
  26              		.thumb
  27              		.thumb_func
  28              		.type	ultra_isr_handler, %function
  29              	ultra_isr_handler:
  30              	.LFB63:
  31              		.file 1 ".\\Ultra.c"
   1:.\Ultra.c     **** /* ========================================
   2:.\Ultra.c     ****  *
   3:.\Ultra.c     ****  * Copyright YOUR COMPANY, THE YEAR
   4:.\Ultra.c     ****  * All Rights Reserved
   5:.\Ultra.c     ****  * UNPUBLISHED, LICENSED SOFTWARE.
   6:.\Ultra.c     ****  *
   7:.\Ultra.c     ****  * CONFIDENTIAL AND PROPRIETARY INFORMATION
   8:.\Ultra.c     ****  * WHICH IS THE PROPERTY OF your company.
   9:.\Ultra.c     ****  *
  10:.\Ultra.c     ****  * ========================================
  11:.\Ultra.c     **** */
  12:.\Ultra.c     **** #include "Ultra.h"
  13:.\Ultra.c     **** 
  14:.\Ultra.c     **** uint16_t i = 0;
  15:.\Ultra.c     **** float distance = 0;
  16:.\Ultra.c     **** float cent = 0;
  17:.\Ultra.c     **** int cnt = 0;
  18:.\Ultra.c     **** 
  19:.\Ultra.c     **** CY_ISR(ultra_isr_handler)
  20:.\Ultra.c     **** {    
  32              		.loc 1 20 0
  33              		.cfi_startproc
  34              		@ args = 0, pretend = 0, frame = 0
  35              		@ frame_needed = 0, uses_anonymous_args = 0
  36 0000 38B5     		push	{r3, r4, r5, lr}
  37              		.cfi_def_cfa_offset 16
ARM GAS  C:\Users\dufma\AppData\Local\Temp\ccqwVn4t.s 			page 2


  38              		.cfi_offset 3, -16
  39              		.cfi_offset 4, -12
  40              		.cfi_offset 5, -8
  41              		.cfi_offset 14, -4
  21:.\Ultra.c     ****     printf("3\r\n");
  42              		.loc 1 21 0
  43 0002 2348     		ldr	r0, .L6
  44 0004 FFF7FEFF 		bl	puts
  45              	.LVL0:
  22:.\Ultra.c     ****     
  23:.\Ultra.c     ****     
  24:.\Ultra.c     ****     if(cnt %5000 == 0)
  46              		.loc 1 24 0
  47 0008 224B     		ldr	r3, .L6+4
  48 000a 1A68     		ldr	r2, [r3]
  49 000c 224B     		ldr	r3, .L6+8
  50 000e 83FB0231 		smull	r3, r1, r3, r2
  51 0012 D317     		asrs	r3, r2, #31
  52 0014 C3EBE123 		rsb	r3, r3, r1, asr #11
  53 0018 41F28831 		movw	r1, #5000
  54 001c 01FB1323 		mls	r3, r1, r3, r2
  55 0020 83BB     		cbnz	r3, .L2
  25:.\Ultra.c     ****     {
  26:.\Ultra.c     ****         Timer_Stop();
  56              		.loc 1 26 0
  57 0022 FFF7FEFF 		bl	Timer_Stop
  58              	.LVL1:
  27:.\Ultra.c     ****         Timer_ReadStatusRegister();
  59              		.loc 1 27 0
  60 0026 FFF7FEFF 		bl	Timer_ReadStatusRegister
  61              	.LVL2:
  28:.\Ultra.c     ****         
  29:.\Ultra.c     ****         if(!Echo_Read()) {
  62              		.loc 1 29 0
  63 002a FFF7FEFF 		bl	Echo_Read
  64              	.LVL3:
  65 002e 00BB     		cbnz	r0, .L3
  30:.\Ultra.c     ****             i = Timer_ReadCounter();            // Read counter value of Timer
  66              		.loc 1 30 0
  67 0030 FFF7FEFF 		bl	Timer_ReadCounter
  68              	.LVL4:
  69 0034 0546     		mov	r5, r0
  70 0036 174C     		ldr	r4, .L6+4
  71 0038 A080     		strh	r0, [r4, #4]	@ movhi
  31:.\Ultra.c     ****             distance = (float)i / 58;           // us / 58 = centimeters
  72              		.loc 1 31 0
  73 003a FFF7FEFF 		bl	__aeabi_ui2f
  74              	.LVL5:
  75 003e 1749     		ldr	r1, .L6+12
  76 0040 FFF7FEFF 		bl	__aeabi_fdiv
  77              	.LVL6:
  78 0044 A060     		str	r0, [r4, #8]	@ float
  32:.\Ultra.c     ****             cent = 5 * (distance - 11) / 3;     // calibration for this Timer(650 kHz)
  79              		.loc 1 32 0
  80 0046 1649     		ldr	r1, .L6+16
  81 0048 FFF7FEFF 		bl	__aeabi_fsub
  82              	.LVL7:
ARM GAS  C:\Users\dufma\AppData\Local\Temp\ccqwVn4t.s 			page 3


  83 004c 1549     		ldr	r1, .L6+20
  84 004e FFF7FEFF 		bl	__aeabi_fmul
  85              	.LVL8:
  86 0052 1549     		ldr	r1, .L6+24
  87 0054 FFF7FEFF 		bl	__aeabi_fdiv
  88              	.LVL9:
  89 0058 E060     		str	r0, [r4, #12]	@ float
  33:.\Ultra.c     ****             printf("i = %6d, distance = %4d                \r\n", i, (int)cent);
  90              		.loc 1 33 0
  91 005a FFF7FEFF 		bl	__aeabi_f2iz
  92              	.LVL10:
  93 005e 0246     		mov	r2, r0
  94 0060 1248     		ldr	r0, .L6+28
  95 0062 2946     		mov	r1, r5
  96 0064 FFF7FEFF 		bl	printf
  97              	.LVL11:
  34:.\Ultra.c     ****             Timer_WriteCounter(0xFFFF);         // Counter initialization
  98              		.loc 1 34 0
  99 0068 4FF6FF70 		movw	r0, #65535
 100 006c FFF7FEFF 		bl	Timer_WriteCounter
 101              	.LVL12:
 102 0070 03E0     		b	.L4
 103              	.L3:
  35:.\Ultra.c     ****         }
  36:.\Ultra.c     ****         else {
  37:.\Ultra.c     ****              Timer_WriteCounter(0xFFFF);
 104              		.loc 1 37 0
 105 0072 4FF6FF70 		movw	r0, #65535
 106 0076 FFF7FEFF 		bl	Timer_WriteCounter
 107              	.LVL13:
 108              	.L4:
  38:.\Ultra.c     ****         }
  39:.\Ultra.c     ****         Timer_Start();
 109              		.loc 1 39 0
 110 007a FFF7FEFF 		bl	Timer_Start
 111              	.LVL14:
  40:.\Ultra.c     ****         cnt=0;
 112              		.loc 1 40 0
 113 007e 0022     		movs	r2, #0
 114 0080 044B     		ldr	r3, .L6+4
 115 0082 1A60     		str	r2, [r3]
 116              	.L2:
  41:.\Ultra.c     ****     }
  42:.\Ultra.c     ****     
  43:.\Ultra.c     ****     cnt++;
 117              		.loc 1 43 0
 118 0084 034A     		ldr	r2, .L6+4
 119 0086 1368     		ldr	r3, [r2]
 120 0088 0133     		adds	r3, r3, #1
 121 008a 1360     		str	r3, [r2]
 122 008c 38BD     		pop	{r3, r4, r5, pc}
 123              	.L7:
 124 008e 00BF     		.align	2
 125              	.L6:
 126 0090 00000000 		.word	.LC0
 127 0094 00000000 		.word	.LANCHOR0
 128 0098 AD8BDB68 		.word	1759218605
ARM GAS  C:\Users\dufma\AppData\Local\Temp\ccqwVn4t.s 			page 4


 129 009c 00006842 		.word	1114112000
 130 00a0 00003041 		.word	1093664768
 131 00a4 0000A040 		.word	1084227584
 132 00a8 00004040 		.word	1077936128
 133 00ac 04000000 		.word	.LC1
 134              		.cfi_endproc
 135              	.LFE63:
 136              		.size	ultra_isr_handler, .-ultra_isr_handler
 137              		.section	.text.Ultra_Start,"ax",%progbits
 138              		.align	2
 139              		.global	Ultra_Start
 140              		.thumb
 141              		.thumb_func
 142              		.type	Ultra_Start, %function
 143              	Ultra_Start:
 144              	.LFB64:
  44:.\Ultra.c     ****     //printf("%d \r\n",cnt);
  45:.\Ultra.c     **** }
  46:.\Ultra.c     **** 
  47:.\Ultra.c     **** 
  48:.\Ultra.c     **** 
  49:.\Ultra.c     **** void Ultra_Start()
  50:.\Ultra.c     **** {
 145              		.loc 1 50 0
 146              		.cfi_startproc
 147              		@ args = 0, pretend = 0, frame = 0
 148              		@ frame_needed = 0, uses_anonymous_args = 0
 149 0000 08B5     		push	{r3, lr}
 150              		.cfi_def_cfa_offset 8
 151              		.cfi_offset 3, -8
 152              		.cfi_offset 14, -4
  51:.\Ultra.c     ****     Timer_Start();
 153              		.loc 1 51 0
 154 0002 FFF7FEFF 		bl	Timer_Start
 155              	.LVL15:
 156 0006 08BD     		pop	{r3, pc}
 157              		.cfi_endproc
 158              	.LFE64:
 159              		.size	Ultra_Start, .-Ultra_Start
 160              		.global	cnt
 161              		.global	cent
 162              		.global	distance
 163              		.global	i
 164              		.section	.rodata.str1.4,"aMS",%progbits,1
 165              		.align	2
 166              	.LC0:
 167 0000 330D00   		.ascii	"3\015\000"
 168 0003 00       		.space	1
 169              	.LC1:
 170 0004 69203D20 		.ascii	"i = %6d, distance = %4d                \015\012\000"
 170      2536642C 
 170      20646973 
 170      74616E63 
 170      65203D20 
 171 002e 0000     		.bss
 172              		.align	2
 173              		.set	.LANCHOR0,. + 0
ARM GAS  C:\Users\dufma\AppData\Local\Temp\ccqwVn4t.s 			page 5


 174              		.type	cnt, %object
 175              		.size	cnt, 4
 176              	cnt:
 177 0000 00000000 		.space	4
 178              		.type	i, %object
 179              		.size	i, 2
 180              	i:
 181 0004 0000     		.space	2
 182 0006 0000     		.space	2
 183              		.type	distance, %object
 184              		.size	distance, 4
 185              	distance:
 186 0008 00000000 		.space	4
 187              		.type	cent, %object
 188              		.size	cent, 4
 189              	cent:
 190 000c 00000000 		.space	4
 191              		.text
 192              	.Letext0:
 193              		.file 2 "c:\\program files (x86)\\cypress\\psoc creator\\3.3\\psoc creator\\import\\gnu\\arm\\4.9.
 194              		.file 3 "c:\\program files (x86)\\cypress\\psoc creator\\3.3\\psoc creator\\import\\gnu\\arm\\4.9.
 195              		.file 4 "Generated_Source\\PSoC5/cytypes.h"
 196              		.file 5 "Generated_Source\\PSoC5/core_cm3.h"
 197              		.file 6 "<built-in>"
 198              		.file 7 "Generated_Source\\PSoC5/Timer.h"
 199              		.file 8 "Generated_Source\\PSoC5/Echo.h"
 200              		.file 9 "c:\\program files (x86)\\cypress\\psoc creator\\3.3\\psoc creator\\import\\gnu\\arm\\4.9.