ARM GAS  C:\Users\dufma\AppData\Local\Temp\ccotVwf9.s 			page 1


   1              		.syntax unified
   2              		.cpu cortex-m3
   3              		.fpu softvfp
   4              		.eabi_attribute 20, 1
   5              		.eabi_attribute 21, 1
   6              		.eabi_attribute 23, 3
   7              		.eabi_attribute 24, 1
   8              		.eabi_attribute 25, 1
   9              		.eabi_attribute 26, 1
  10              		.eabi_attribute 30, 1
  11              		.eabi_attribute 34, 1
  12              		.eabi_attribute 18, 4
  13              		.thumb
  14              		.file	"main.c"
  15              		.text
  16              	.Ltext0:
  17              		.cfi_sections	.debug_frame
  18              		.section	.text.main,"ax",%progbits
  19              		.align	2
  20              		.global	main
  21              		.thumb
  22              		.thumb_func
  23              		.type	main, %function
  24              	main:
  25              	.LFB63:
  26              		.file 1 ".\\main.c"
   1:.\main.c      **** /* ========================================
   2:.\main.c      ****  *
   3:.\main.c      ****  * Copyright YOUR COMPANY, THE YEAR
   4:.\main.c      ****  * All Rights Reserved
   5:.\main.c      ****  * UNPUBLISHED, LICENSED SOFTWARE.
   6:.\main.c      ****  *
   7:.\main.c      ****  * CONFIDENTIAL AND PROPRIETARY INFORMATION
   8:.\main.c      ****  * WHICH IS THE PROPERTY OF your company.
   9:.\main.c      ****  *
  10:.\main.c      ****  * ========================================
  11:.\main.c      **** */
  12:.\main.c      **** #include <project.h>
  13:.\main.c      **** #include <stdio.h>
  14:.\main.c      **** #include "Motor.h"
  15:.\main.c      **** 
  16:.\main.c      **** int rread(void);
  17:.\main.c      **** 
  18:.\main.c      **** 
  19:.\main.c      **** int main()
  20:.\main.c      **** {
  27              		.loc 1 20 0
  28              		.cfi_startproc
  29              		@ Volatile: function does not return.
  30              		@ args = 0, pretend = 0, frame = 0
  31              		@ frame_needed = 0, uses_anonymous_args = 0
  32 0000 08B5     		push	{r3, lr}
  33              		.cfi_def_cfa_offset 8
  34              		.cfi_offset 3, -8
  35              		.cfi_offset 14, -4
  21:.\main.c      ****     CyGlobalIntEnable; 
  36              		.loc 1 21 0
ARM GAS  C:\Users\dufma\AppData\Local\Temp\ccotVwf9.s 			page 2


  37              	@ 21 ".\main.c" 1
  38 0002 62B6     		CPSIE   i
  39              	@ 0 "" 2
  22:.\main.c      ****     UART_Start();
  40              		.loc 1 22 0
  41              		.thumb
  42 0004 FFF7FEFF 		bl	UART_Start
  43              	.LVL0:
  23:.\main.c      ****     
  24:.\main.c      ****     motor_Start();              // motor start
  44              		.loc 1 24 0
  45 0008 FFF7FEFF 		bl	motor_Start
  46              	.LVL1:
  25:.\main.c      **** 
  26:.\main.c      ****     printf("Start\r\n");
  47              		.loc 1 26 0
  48 000c 0D48     		ldr	r0, .L4
  49 000e FFF7FEFF 		bl	puts
  50              	.LVL2:
  27:.\main.c      **** 
  28:.\main.c      ****     motor_forward(50,2000);     // moving forward
  51              		.loc 1 28 0
  52 0012 3220     		movs	r0, #50
  53 0014 4FF4FA61 		mov	r1, #2000
  54 0018 FFF7FEFF 		bl	motor_forward
  55              	.LVL3:
  29:.\main.c      ****     motor_turn(20,50,2000);     // turn
  56              		.loc 1 29 0
  57 001c 1420     		movs	r0, #20
  58 001e 3221     		movs	r1, #50
  59 0020 4FF4FA62 		mov	r2, #2000
  60 0024 FFF7FEFF 		bl	motor_turn
  61              	.LVL4:
  30:.\main.c      ****     motor_turn(50,20,2000);     // turn
  62              		.loc 1 30 0
  63 0028 3220     		movs	r0, #50
  64 002a 1421     		movs	r1, #20
  65 002c 4FF4FA62 		mov	r2, #2000
  66 0030 FFF7FEFF 		bl	motor_turn
  67              	.LVL5:
  31:.\main.c      ****     motor_backward(50,2000);    // movinb backward
  68              		.loc 1 31 0
  69 0034 3220     		movs	r0, #50
  70 0036 4FF4FA61 		mov	r1, #2000
  71 003a FFF7FEFF 		bl	motor_backward
  72              	.LVL6:
  32:.\main.c      ****        
  33:.\main.c      ****     motor_Stop();               // motor stop
  73              		.loc 1 33 0
  74 003e FFF7FEFF 		bl	motor_Stop
  75              	.LVL7:
  76              	.L2:
  34:.\main.c      ****     
  35:.\main.c      ****     for(;;)
  36:.\main.c      ****     {
  37:.\main.c      **** 
  38:.\main.c      ****     }
ARM GAS  C:\Users\dufma\AppData\Local\Temp\ccotVwf9.s 			page 3


  77              		.loc 1 38 0 discriminator 1
  78 0042 FEE7     		b	.L2
  79              	.L5:
  80              		.align	2
  81              	.L4:
  82 0044 00000000 		.word	.LC0
  83              		.cfi_endproc
  84              	.LFE63:
  85              		.size	main, .-main
  86              		.section	.text._write,"ax",%progbits
  87              		.align	2
  88              		.global	_write
  89              		.thumb
  90              		.thumb_func
  91              		.type	_write, %function
  92              	_write:
  93              	.LFB64:
  39:.\main.c      **** }
  40:.\main.c      **** 
  41:.\main.c      **** 
  42:.\main.c      **** #if 0
  43:.\main.c      **** int rread(void)
  44:.\main.c      **** {
  45:.\main.c      ****     SC0_SetDriveMode(PIN_DM_STRONG);
  46:.\main.c      ****     SC0_Write(1);
  47:.\main.c      ****     CyDelayUs(10);
  48:.\main.c      ****     SC0_SetDriveMode(PIN_DM_DIG_HIZ);
  49:.\main.c      ****     Timer_1_Start();
  50:.\main.c      ****     uint16_t start = Timer_1_ReadCounter();
  51:.\main.c      ****     uint16_t end = 0;
  52:.\main.c      ****     while(!(Timer_1_ReadStatusRegister() & Timer_1_STATUS_TC)) {
  53:.\main.c      ****         if(SC0_Read() == 0 && end == 0) {
  54:.\main.c      ****             end = Timer_1_ReadCounter();
  55:.\main.c      ****         }
  56:.\main.c      ****     }
  57:.\main.c      ****     Timer_1_Stop();
  58:.\main.c      ****     
  59:.\main.c      ****     return (start - end);
  60:.\main.c      **** }
  61:.\main.c      **** #endif
  62:.\main.c      **** 
  63:.\main.c      **** int _write(int file, char *ptr, int len)
  64:.\main.c      **** {
  94              		.loc 1 64 0
  95              		.cfi_startproc
  96              		@ args = 0, pretend = 0, frame = 0
  97              		@ frame_needed = 0, uses_anonymous_args = 0
  98              	.LVL8:
  99 0000 70B5     		push	{r4, r5, r6, lr}
 100              		.cfi_def_cfa_offset 16
 101              		.cfi_offset 4, -16
 102              		.cfi_offset 5, -12
 103              		.cfi_offset 6, -8
 104              		.cfi_offset 14, -4
 105 0002 1646     		mov	r6, r2
 106              	.LVL9:
  65:.\main.c      ****     (void) file;
ARM GAS  C:\Users\dufma\AppData\Local\Temp\ccotVwf9.s 			page 4


  66:.\main.c      **** 	int n;
  67:.\main.c      **** 	for(n = 0; n < len; n++) {
 107              		.loc 1 67 0
 108 0004 0024     		movs	r4, #0
 109 0006 05E0     		b	.L7
 110              	.LVL10:
 111              	.L8:
  68:.\main.c      **** 		UART_PutChar(*ptr++);
 112              		.loc 1 68 0 discriminator 3
 113 0008 4D1C     		adds	r5, r1, #1
 114              	.LVL11:
 115 000a 0878     		ldrb	r0, [r1]	@ zero_extendqisi2
 116 000c FFF7FEFF 		bl	UART_PutChar
 117              	.LVL12:
  67:.\main.c      **** 		UART_PutChar(*ptr++);
 118              		.loc 1 67 0 discriminator 3
 119 0010 0134     		adds	r4, r4, #1
 120              	.LVL13:
 121              		.loc 1 68 0 discriminator 3
 122 0012 2946     		mov	r1, r5
 123              	.LVL14:
 124              	.L7:
  67:.\main.c      **** 		UART_PutChar(*ptr++);
 125              		.loc 1 67 0 discriminator 1
 126 0014 B442     		cmp	r4, r6
 127 0016 F7DB     		blt	.L8
  69:.\main.c      **** 	}
  70:.\main.c      **** 	return len;
  71:.\main.c      **** }
 128              		.loc 1 71 0
 129 0018 3046     		mov	r0, r6
 130 001a 70BD     		pop	{r4, r5, r6, pc}
 131              		.cfi_endproc
 132              	.LFE64:
 133              		.size	_write, .-_write
 134              		.section	.rodata.str1.4,"aMS",%progbits,1
 135              		.align	2
 136              	.LC0:
 137 0000 53746172 		.ascii	"Start\015\000"
 137      740D00
 138 0007 00       		.text
 139              	.Letext0:
 140              		.file 2 "c:\\program files (x86)\\cypress\\psoc creator\\3.3\\psoc creator\\import\\gnu\\arm\\4.9.
 141              		.file 3 "c:\\program files (x86)\\cypress\\psoc creator\\3.3\\psoc creator\\import\\gnu\\arm\\4.9.
 142              		.file 4 "Generated_Source\\PSoC5/cytypes.h"
 143              		.file 5 ".\\Motor.h"
 144              		.file 6 "Generated_Source\\PSoC5/UART.h"
 145              		.file 7 "Generated_Source\\PSoC5/core_cm3.h"
 146              		.file 8 "<built-in>"