ARM GAS  C:\Users\dufma\AppData\Local\Temp\cc57XiFh.s 			page 1


   1              		.syntax unified
   2              		.cpu cortex-m3
   3              		.fpu softvfp
   4              		.eabi_attribute 20, 1
   5              		.eabi_attribute 21, 1
   6              		.eabi_attribute 23, 3
   7              		.eabi_attribute 24, 1
   8              		.eabi_attribute 25, 1
   9              		.eabi_attribute 26, 1
  10              		.eabi_attribute 30, 1
  11              		.eabi_attribute 34, 1
  12              		.eabi_attribute 18, 4
  13              		.thumb
  14              		.file	"main.c"
  15              		.text
  16              	.Ltext0:
  17              		.cfi_sections	.debug_frame
  18              		.section	.text.main,"ax",%progbits
  19              		.align	2
  20              		.global	main
  21              		.thumb
  22              		.thumb_func
  23              		.type	main, %function
  24              	main:
  25              	.LFB63:
  26              		.file 1 ".\\main.c"
   1:.\main.c      **** /* ========================================
   2:.\main.c      ****  *
   3:.\main.c      ****  * Copyright YOUR COMPANY, THE YEAR
   4:.\main.c      ****  * All Rights Reserved
   5:.\main.c      ****  * UNPUBLISHED, LICENSED SOFTWARE.
   6:.\main.c      ****  *
   7:.\main.c      ****  * CONFIDENTIAL AND PROPRIETARY INFORMATION
   8:.\main.c      ****  * WHICH IS THE PROPERTY OF your company.
   9:.\main.c      ****  *
  10:.\main.c      ****  * ========================================
  11:.\main.c      **** */
  12:.\main.c      **** #include <project.h>
  13:.\main.c      **** #include <stdio.h>
  14:.\main.c      **** #include "Reflectance.h"
  15:.\main.c      **** 
  16:.\main.c      **** int rread(void);
  17:.\main.c      **** 
  18:.\main.c      **** 
  19:.\main.c      **** 
  20:.\main.c      **** int main()
  21:.\main.c      **** {
  27              		.loc 1 21 0
  28              		.cfi_startproc
  29              		@ Volatile: function does not return.
  30              		@ args = 0, pretend = 0, frame = 0
  31              		@ frame_needed = 0, uses_anonymous_args = 0
  32 0000 08B5     		push	{r3, lr}
  33              		.cfi_def_cfa_offset 8
  34              		.cfi_offset 3, -8
  35              		.cfi_offset 14, -4
  22:.\main.c      ****     sensor_isr_StartEx(sensor_isr_handler);
ARM GAS  C:\Users\dufma\AppData\Local\Temp\cc57XiFh.s 			page 2


  36              		.loc 1 22 0
  37 0002 0C48     		ldr	r0, .L4
  38 0004 FFF7FEFF 		bl	sensor_isr_StartEx
  39              	.LVL0:
  23:.\main.c      ****     
  24:.\main.c      ****     CyGlobalIntEnable; /* Enable global interrupts. */
  40              		.loc 1 24 0
  41              	@ 24 ".\main.c" 1
  42 0008 62B6     		CPSIE   i
  43              	@ 0 "" 2
  25:.\main.c      **** 
  26:.\main.c      ****     /* Place your initialization/startup code here (e.g. MyInst_Start()) */
  27:.\main.c      ****     UART_Start();
  44              		.loc 1 27 0
  45              		.thumb
  46 000a FFF7FEFF 		bl	UART_Start
  47              	.LVL1:
  28:.\main.c      ****     Refelctance_Start();
  48              		.loc 1 28 0
  49 000e FFF7FEFF 		bl	Refelctance_Start
  50              	.LVL2:
  29:.\main.c      ****     PWM_Start();
  51              		.loc 1 29 0
  52 0012 FFF7FEFF 		bl	PWM_Start
  53              	.LVL3:
  30:.\main.c      **** 
  31:.\main.c      ****     printf("Start\r\n");
  54              		.loc 1 31 0
  55 0016 0848     		ldr	r0, .L4+4
  56 0018 FFF7FEFF 		bl	puts
  57              	.LVL4:
  32:.\main.c      ****     IR_led_Write(1);
  58              		.loc 1 32 0
  59 001c 0120     		movs	r0, #1
  60 001e FFF7FEFF 		bl	IR_led_Write
  61              	.LVL5:
  62              	.L2:
  33:.\main.c      ****     for(;;)
  34:.\main.c      ****     {
  35:.\main.c      ****         reflectance_period();      //print out each period of reflectance sensors
  63              		.loc 1 35 0 discriminator 1
  64 0022 FFF7FEFF 		bl	reflectance_period
  65              	.LVL6:
  36:.\main.c      ****         reflectance_digital();      //print out 0 or 1 according to results of reflectance period
  66              		.loc 1 36 0 discriminator 1
  67 0026 FFF7FEFF 		bl	reflectance_digital
  68              	.LVL7:
  37:.\main.c      ****         
  38:.\main.c      ****         CyDelay(500);
  69              		.loc 1 38 0 discriminator 1
  70 002a 4FF4FA70 		mov	r0, #500
  71 002e FFF7FEFF 		bl	CyDelay
  72              	.LVL8:
  39:.\main.c      ****     }
  73              		.loc 1 39 0 discriminator 1
  74 0032 F6E7     		b	.L2
  75              	.L5:
ARM GAS  C:\Users\dufma\AppData\Local\Temp\cc57XiFh.s 			page 3


  76              		.align	2
  77              	.L4:
  78 0034 00000000 		.word	sensor_isr_handler
  79 0038 00000000 		.word	.LC0
  80              		.cfi_endproc
  81              	.LFE63:
  82              		.size	main, .-main
  83              		.section	.text.nunchuk_init,"ax",%progbits
  84              		.align	2
  85              		.global	nunchuk_init
  86              		.thumb
  87              		.thumb_func
  88              		.type	nunchuk_init, %function
  89              	nunchuk_init:
  90              	.LFB64:
  40:.\main.c      **** }
  41:.\main.c      **** 
  42:.\main.c      **** void nunchuk_init(void)
  43:.\main.c      **** {
  91              		.loc 1 43 0
  92              		.cfi_startproc
  93              		@ args = 0, pretend = 0, frame = 8
  94              		@ frame_needed = 0, uses_anonymous_args = 0
  95 0000 10B5     		push	{r4, lr}
  96              		.cfi_def_cfa_offset 8
  97              		.cfi_offset 4, -8
  98              		.cfi_offset 14, -4
  99 0002 82B0     		sub	sp, sp, #8
 100              		.cfi_def_cfa_offset 16
  44:.\main.c      ****     uint8_t buf[2] = { 0x40, 0x00 };
 101              		.loc 1 44 0
 102 0004 4023     		movs	r3, #64
 103 0006 8DF80430 		strb	r3, [sp, #4]
 104 000a 0024     		movs	r4, #0
 105 000c 8DF80540 		strb	r4, [sp, #5]
  45:.\main.c      ****     uint8_t status;
  46:.\main.c      ****     I2C_2_MasterClearStatus();
 106              		.loc 1 46 0
 107 0010 FFF7FEFF 		bl	I2C_2_MasterClearStatus
 108              	.LVL9:
  47:.\main.c      ****     CyDelay(100);
 109              		.loc 1 47 0
 110 0014 6420     		movs	r0, #100
 111 0016 FFF7FEFF 		bl	CyDelay
 112              	.LVL10:
  48:.\main.c      ****     status = I2C_2_MasterWriteBuf(0x52, buf, 2, I2C_2_MODE_COMPLETE_XFER);
 113              		.loc 1 48 0
 114 001a 5220     		movs	r0, #82
 115 001c 01A9     		add	r1, sp, #4
 116 001e 0222     		movs	r2, #2
 117 0020 2346     		mov	r3, r4
 118 0022 FFF7FEFF 		bl	I2C_2_MasterWriteBuf
 119              	.LVL11:
 120              	.L7:
  49:.\main.c      ****     while(((status = I2C_2_MasterStatus()) & I2C_2_MSTAT_WR_CMPLT) == 0);
 121              		.loc 1 49 0 discriminator 1
 122 0026 FFF7FEFF 		bl	I2C_2_MasterStatus
ARM GAS  C:\Users\dufma\AppData\Local\Temp\cc57XiFh.s 			page 4


 123              	.LVL12:
 124 002a 10F0020F 		tst	r0, #2
 125 002e FAD0     		beq	.L7
  50:.\main.c      ****     CyDelay(100);
 126              		.loc 1 50 0
 127 0030 6420     		movs	r0, #100
 128              	.LVL13:
 129 0032 FFF7FEFF 		bl	CyDelay
 130              	.LVL14:
  51:.\main.c      **** }    
 131              		.loc 1 51 0
 132 0036 02B0     		add	sp, sp, #8
 133              		.cfi_def_cfa_offset 8
 134              		@ sp needed
 135 0038 10BD     		pop	{r4, pc}
 136              		.cfi_endproc
 137              	.LFE64:
 138              		.size	nunchuk_init, .-nunchuk_init
 139 003a 00BF     		.section	.text.nunchuk_read,"ax",%progbits
 140              		.align	2
 141              		.global	nunchuk_read
 142              		.thumb
 143              		.thumb_func
 144              		.type	nunchuk_read, %function
 145              	nunchuk_read:
 146              	.LFB65:
  52:.\main.c      **** 
  53:.\main.c      **** void nunchuk_read(void)
  54:.\main.c      **** {
 147              		.loc 1 54 0
 148              		.cfi_startproc
 149              		@ args = 0, pretend = 0, frame = 8
 150              		@ frame_needed = 0, uses_anonymous_args = 0
 151 0000 30B5     		push	{r4, r5, lr}
 152              		.cfi_def_cfa_offset 12
 153              		.cfi_offset 4, -12
 154              		.cfi_offset 5, -8
 155              		.cfi_offset 14, -4
 156 0002 83B0     		sub	sp, sp, #12
 157              		.cfi_def_cfa_offset 24
  55:.\main.c      ****     uint8_t status;
  56:.\main.c      ****     uint8_t buf[6];
  57:.\main.c      ****     // send conversion command
  58:.\main.c      ****     buf[0] = 0x00;
 158              		.loc 1 58 0
 159 0004 0025     		movs	r5, #0
 160 0006 02AC     		add	r4, sp, #8
 161 0008 04F8085D 		strb	r5, [r4, #-8]!
  59:.\main.c      ****     I2C_2_MasterClearStatus();
 162              		.loc 1 59 0
 163 000c FFF7FEFF 		bl	I2C_2_MasterClearStatus
 164              	.LVL15:
  60:.\main.c      ****     status = I2C_2_MasterWriteBuf(0x52, buf, 1, I2C_2_MODE_COMPLETE_XFER);
 165              		.loc 1 60 0
 166 0010 5220     		movs	r0, #82
 167 0012 2146     		mov	r1, r4
 168 0014 0122     		movs	r2, #1
ARM GAS  C:\Users\dufma\AppData\Local\Temp\cc57XiFh.s 			page 5


 169 0016 2B46     		mov	r3, r5
 170 0018 FFF7FEFF 		bl	I2C_2_MasterWriteBuf
 171              	.LVL16:
 172              	.L10:
  61:.\main.c      ****     while(((status = I2C_2_MasterStatus()) & I2C_2_MSTAT_WR_CMPLT) == 0);
 173              		.loc 1 61 0 discriminator 1
 174 001c FFF7FEFF 		bl	I2C_2_MasterStatus
 175              	.LVL17:
 176 0020 10F0020F 		tst	r0, #2
 177 0024 FAD0     		beq	.L10
  62:.\main.c      ****     // wait for conversion to complete
  63:.\main.c      ****     CyDelay(50); // todo: check if shorter wait would work
 178              		.loc 1 63 0
 179 0026 3220     		movs	r0, #50
 180              	.LVL18:
 181 0028 FFF7FEFF 		bl	CyDelay
 182              	.LVL19:
  64:.\main.c      ****     // read values
  65:.\main.c      ****     I2C_2_MasterClearStatus();
 183              		.loc 1 65 0
 184 002c FFF7FEFF 		bl	I2C_2_MasterClearStatus
 185              	.LVL20:
  66:.\main.c      ****     status = I2C_2_MasterReadBuf(0x52, buf, 6, I2C_2_MODE_COMPLETE_XFER);
 186              		.loc 1 66 0
 187 0030 5220     		movs	r0, #82
 188 0032 6946     		mov	r1, sp
 189 0034 0622     		movs	r2, #6
 190 0036 0023     		movs	r3, #0
 191 0038 FFF7FEFF 		bl	I2C_2_MasterReadBuf
 192              	.LVL21:
 193              	.L11:
  67:.\main.c      ****     while(((status = I2C_2_MasterStatus()) & I2C_2_MSTAT_RD_CMPLT) == 0);
 194              		.loc 1 67 0 discriminator 1
 195 003c FFF7FEFF 		bl	I2C_2_MasterStatus
 196              	.LVL22:
 197 0040 10F0010F 		tst	r0, #1
 198 0044 FAD0     		beq	.L11
 199 0046 0023     		movs	r3, #0
 200 0048 00E0     		b	.L12
 201              	.LVL23:
 202              	.L13:
  68:.\main.c      ****     
  69:.\main.c      ****     int i;
  70:.\main.c      ****     // decrypt data
  71:.\main.c      ****     for(i = 0; i < 6; i++) buf[i] = (buf[i] ^ 0x17) + 0x17;
 203              		.loc 1 71 0 discriminator 3
 204 004a 0133     		adds	r3, r3, #1
 205              	.LVL24:
 206              	.L12:
 207              		.loc 1 71 0 is_stmt 0 discriminator 1
 208 004c 052B     		cmp	r3, #5
 209 004e FCDD     		ble	.L13
  72:.\main.c      ****     // accelerometer values
  73:.\main.c      ****     /*
  74:.\main.c      ****     int x,y,z;
  75:.\main.c      ****     x = (buf[2] << 2) | ((buf[5] >> 2) & 0x03);
  76:.\main.c      ****     y = (buf[3] << 2) | ((buf[5] >> 4) & 0x03);
ARM GAS  C:\Users\dufma\AppData\Local\Temp\cc57XiFh.s 			page 6


  77:.\main.c      ****     z = (buf[4] << 2) | ((buf[5] >> 6) & 0x03);
  78:.\main.c      ****     // buf[0] = JoyX, buf[1] = JoyY
  79:.\main.c      ****     //printf("%3d %3d, %d, %d, %4d %4d %4d\r\n", buf[0], buf[1], (buf[5] >> 1) & 1, buf[5] & 1, x, 
  80:.\main.c      ****     */
  81:.\main.c      **** }    
 210              		.loc 1 81 0 is_stmt 1
 211 0050 03B0     		add	sp, sp, #12
 212              		.cfi_def_cfa_offset 12
 213              		@ sp needed
 214 0052 30BD     		pop	{r4, r5, pc}
 215              		.cfi_endproc
 216              	.LFE65:
 217              		.size	nunchuk_read, .-nunchuk_read
 218              		.section	.text._write,"ax",%progbits
 219              		.align	2
 220              		.global	_write
 221              		.thumb
 222              		.thumb_func
 223              		.type	_write, %function
 224              	_write:
 225              	.LFB66:
  82:.\main.c      **** 
  83:.\main.c      **** #if 0
  84:.\main.c      **** int rread(void)
  85:.\main.c      **** {
  86:.\main.c      ****     SC0_SetDriveMode(PIN_DM_STRONG);
  87:.\main.c      ****     SC0_Write(1);
  88:.\main.c      ****     CyDelayUs(10);
  89:.\main.c      ****     SC0_SetDriveMode(PIN_DM_DIG_HIZ);
  90:.\main.c      ****     Timer_1_Start();
  91:.\main.c      ****     uint16_t start = Timer_1_ReadCounter();
  92:.\main.c      ****     uint16_t end = 0;
  93:.\main.c      ****     while(!(Timer_1_ReadStatusRegister() & Timer_1_STATUS_TC)) {
  94:.\main.c      ****         if(SC0_Read() == 0 && end == 0) {
  95:.\main.c      ****             end = Timer_1_ReadCounter();
  96:.\main.c      ****         }
  97:.\main.c      ****     }
  98:.\main.c      ****     Timer_1_Stop();
  99:.\main.c      ****     
 100:.\main.c      ****     return (start - end);
 101:.\main.c      **** }
 102:.\main.c      **** #endif
 103:.\main.c      **** 
 104:.\main.c      **** int _write(int file, char *ptr, int len)
 105:.\main.c      **** {
 226              		.loc 1 105 0
 227              		.cfi_startproc
 228              		@ args = 0, pretend = 0, frame = 0
 229              		@ frame_needed = 0, uses_anonymous_args = 0
 230              	.LVL25:
 231 0000 70B5     		push	{r4, r5, r6, lr}
 232              		.cfi_def_cfa_offset 16
 233              		.cfi_offset 4, -16
 234              		.cfi_offset 5, -12
 235              		.cfi_offset 6, -8
 236              		.cfi_offset 14, -4
 237 0002 1646     		mov	r6, r2
ARM GAS  C:\Users\dufma\AppData\Local\Temp\cc57XiFh.s 			page 7


 238              	.LVL26:
 106:.\main.c      ****     (void) file;
 107:.\main.c      **** 	int n;
 108:.\main.c      **** 	for(n = 0; n < len; n++) {
 239              		.loc 1 108 0
 240 0004 0024     		movs	r4, #0
 241 0006 05E0     		b	.L16
 242              	.LVL27:
 243              	.L17:
 109:.\main.c      **** 		UART_PutChar(*ptr++);
 244              		.loc 1 109 0 discriminator 3
 245 0008 4D1C     		adds	r5, r1, #1
 246              	.LVL28:
 247 000a 0878     		ldrb	r0, [r1]	@ zero_extendqisi2
 248 000c FFF7FEFF 		bl	UART_PutChar
 249              	.LVL29:
 108:.\main.c      **** 		UART_PutChar(*ptr++);
 250              		.loc 1 108 0 discriminator 3
 251 0010 0134     		adds	r4, r4, #1
 252              	.LVL30:
 253              		.loc 1 109 0 discriminator 3
 254 0012 2946     		mov	r1, r5
 255              	.LVL31:
 256              	.L16:
 108:.\main.c      **** 		UART_PutChar(*ptr++);
 257              		.loc 1 108 0 discriminator 1
 258 0014 B442     		cmp	r4, r6
 259 0016 F7DB     		blt	.L17
 110:.\main.c      **** 	}
 111:.\main.c      **** 	return len;
 112:.\main.c      **** }
 260              		.loc 1 112 0
 261 0018 3046     		mov	r0, r6
 262 001a 70BD     		pop	{r4, r5, r6, pc}
 263              		.cfi_endproc
 264              	.LFE66:
 265              		.size	_write, .-_write
 266              		.comm	digital_sensor_value,8,4
 267              		.comm	sensors,8,4
 268              		.section	.rodata.str1.4,"aMS",%progbits,1
 269              		.align	2
 270              	.LC0:
 271 0000 53746172 		.ascii	"Start\015\000"
 271      740D00
 272 0007 00       		.text
 273              	.Letext0:
 274              		.file 2 "c:\\program files (x86)\\cypress\\psoc creator\\3.3\\psoc creator\\import\\gnu\\arm\\4.9.
 275              		.file 3 "c:\\program files (x86)\\cypress\\psoc creator\\3.3\\psoc creator\\import\\gnu\\arm\\4.9.
 276              		.file 4 "Generated_Source\\PSoC5/cytypes.h"
 277              		.file 5 ".\\Reflectance.h"
 278              		.file 6 "Generated_Source\\PSoC5/core_cm3.h"
 279              		.file 7 "Generated_Source\\PSoC5/UART.h"
 280              		.file 8 "Generated_Source\\PSoC5/PWM.h"
 281              		.file 9 "Generated_Source\\PSoC5/sensor_isr.h"
 282              		.file 10 "Generated_Source\\PSoC5/IR_led.h"
 283              		.file 11 "Generated_Source\\PSoC5/CyLib.h"
 284              		.file 12 "Generated_Source\\PSoC5/I2C_2.h"
ARM GAS  C:\Users\dufma\AppData\Local\Temp\cc57XiFh.s 			page 8


 285              		.file 13 "<built-in>"