ARM GAS  C:\Users\dufma\AppData\Local\Temp\cckrSH1t.s 			page 1


   1              		.syntax unified
   2              		.cpu cortex-m3
   3              		.fpu softvfp
   4              		.eabi_attribute 20, 1
   5              		.eabi_attribute 21, 1
   6              		.eabi_attribute 23, 3
   7              		.eabi_attribute 24, 1
   8              		.eabi_attribute 25, 1
   9              		.eabi_attribute 26, 1
  10              		.eabi_attribute 30, 1
  11              		.eabi_attribute 34, 1
  12              		.eabi_attribute 18, 4
  13              		.thumb
  14              		.file	"main.c"
  15              		.text
  16              	.Ltext0:
  17              		.cfi_sections	.debug_frame
  18              		.section	.text.main,"ax",%progbits
  19              		.align	2
  20              		.global	main
  21              		.thumb
  22              		.thumb_func
  23              		.type	main, %function
  24              	main:
  25              	.LFB63:
  26              		.file 1 ".\\main.c"
   1:.\main.c      **** /* ========================================
   2:.\main.c      ****  *
   3:.\main.c      ****  * Copyright YOUR COMPANY, THE YEAR
   4:.\main.c      ****  * All Rights Reserved
   5:.\main.c      ****  * UNPUBLISHED, LICENSED SOFTWARE.
   6:.\main.c      ****  *
   7:.\main.c      ****  * CONFIDENTIAL AND PROPRIETARY INFORMATION
   8:.\main.c      ****  * WHICH IS THE PROPERTY OF your company.
   9:.\main.c      ****  *
  10:.\main.c      ****  * ========================================
  11:.\main.c      **** */
  12:.\main.c      **** #include <project.h>
  13:.\main.c      **** #include <stdio.h>
  14:.\main.c      **** #include "Ultra.h"
  15:.\main.c      **** 
  16:.\main.c      **** int rread(void);
  17:.\main.c      **** 
  18:.\main.c      **** int main()
  19:.\main.c      **** {
  27              		.loc 1 19 0
  28              		.cfi_startproc
  29              		@ Volatile: function does not return.
  30              		@ args = 0, pretend = 0, frame = 0
  31              		@ frame_needed = 0, uses_anonymous_args = 0
  32 0000 08B5     		push	{r3, lr}
  33              		.cfi_def_cfa_offset 8
  34              		.cfi_offset 3, -8
  35              		.cfi_offset 14, -4
  20:.\main.c      ****     ultra_isr_StartEx(ultra_isr_handler);   // Ultra Sonic Interrupt
  36              		.loc 1 20 0
  37 0002 0C48     		ldr	r0, .L4
ARM GAS  C:\Users\dufma\AppData\Local\Temp\cckrSH1t.s 			page 2


  38 0004 FFF7FEFF 		bl	ultra_isr_StartEx
  39              	.LVL0:
  21:.\main.c      ****     
  22:.\main.c      ****     CyGlobalIntEnable; 
  40              		.loc 1 22 0
  41              	@ 22 ".\main.c" 1
  42 0008 62B6     		CPSIE   i
  43              	@ 0 "" 2
  23:.\main.c      ****     UART_Start();
  44              		.loc 1 23 0
  45              		.thumb
  46 000a FFF7FEFF 		bl	UART_Start
  47              	.LVL1:
  24:.\main.c      ****     
  25:.\main.c      ****     Ultra_Start();                          // Ultra Sonic Start function
  48              		.loc 1 25 0
  49 000e FFF7FEFF 		bl	Ultra_Start
  50              	.LVL2:
  26:.\main.c      ****    
  27:.\main.c      ****     printf("Start\r\n");
  51              		.loc 1 27 0
  52 0012 0948     		ldr	r0, .L4+4
  53 0014 FFF7FEFF 		bl	puts
  54              	.LVL3:
  55              	.L2:
  28:.\main.c      ****         
  29:.\main.c      ****     for(;;)
  30:.\main.c      ****     {       
  31:.\main.c      ****         CyDelay(100); 
  56              		.loc 1 31 0 discriminator 1
  57 0018 6420     		movs	r0, #100
  58 001a FFF7FEFF 		bl	CyDelay
  59              	.LVL4:
  32:.\main.c      ****         Trigger_Write(1);           // Trigger High
  60              		.loc 1 32 0 discriminator 1
  61 001e 0120     		movs	r0, #1
  62 0020 FFF7FEFF 		bl	Trigger_Write
  63              	.LVL5:
  33:.\main.c      ****         CyDelayUs(10);              // 10 micro seconds for trigger input signals
  64              		.loc 1 33 0 discriminator 1
  65 0024 0A20     		movs	r0, #10
  66 0026 FFF7FEFF 		bl	CyDelayUs
  67              	.LVL6:
  34:.\main.c      ****         Trigger_Write(0);           // Trigger Low
  68              		.loc 1 34 0 discriminator 1
  69 002a 0020     		movs	r0, #0
  70 002c FFF7FEFF 		bl	Trigger_Write
  71              	.LVL7:
  35:.\main.c      ****     }
  72              		.loc 1 35 0 discriminator 1
  73 0030 F2E7     		b	.L2
  74              	.L5:
  75 0032 00BF     		.align	2
  76              	.L4:
  77 0034 00000000 		.word	ultra_isr_handler
  78 0038 00000000 		.word	.LC0
  79              		.cfi_endproc
ARM GAS  C:\Users\dufma\AppData\Local\Temp\cckrSH1t.s 			page 3


  80              	.LFE63:
  81              		.size	main, .-main
  82              		.section	.text._write,"ax",%progbits
  83              		.align	2
  84              		.global	_write
  85              		.thumb
  86              		.thumb_func
  87              		.type	_write, %function
  88              	_write:
  89              	.LFB64:
  36:.\main.c      **** }
  37:.\main.c      **** 
  38:.\main.c      **** 
  39:.\main.c      **** 
  40:.\main.c      **** #if 0
  41:.\main.c      **** int rread(void)
  42:.\main.c      **** {
  43:.\main.c      ****     SC0_SetDriveMode(PIN_DM_STRONG);
  44:.\main.c      ****     SC0_Write(1);
  45:.\main.c      ****     CyDelayUs(10);
  46:.\main.c      ****     SC0_SetDriveMode(PIN_DM_DIG_HIZ);
  47:.\main.c      ****     Timer_1_Start();
  48:.\main.c      ****     uint16_t start = Timer_1_ReadCounter();
  49:.\main.c      ****     uint16_t end = 0;
  50:.\main.c      ****     while(!(Timer_1_ReadStatusRegister() & Timer_1_STATUS_TC)) {
  51:.\main.c      ****         if(SC0_Read() == 0 && end == 0) {
  52:.\main.c      ****             end = Timer_1_ReadCounter();
  53:.\main.c      ****         }
  54:.\main.c      ****     }
  55:.\main.c      ****     Timer_1_Stop();
  56:.\main.c      ****     
  57:.\main.c      ****     return (start - end);
  58:.\main.c      **** }
  59:.\main.c      **** #endif
  60:.\main.c      **** 
  61:.\main.c      **** int _write(int file, char *ptr, int len)
  62:.\main.c      **** {
  90              		.loc 1 62 0
  91              		.cfi_startproc
  92              		@ args = 0, pretend = 0, frame = 0
  93              		@ frame_needed = 0, uses_anonymous_args = 0
  94              	.LVL8:
  95 0000 70B5     		push	{r4, r5, r6, lr}
  96              		.cfi_def_cfa_offset 16
  97              		.cfi_offset 4, -16
  98              		.cfi_offset 5, -12
  99              		.cfi_offset 6, -8
 100              		.cfi_offset 14, -4
 101 0002 1646     		mov	r6, r2
 102              	.LVL9:
  63:.\main.c      ****     (void) file;
  64:.\main.c      **** 	int n;
  65:.\main.c      **** 	for(n = 0; n < len; n++) {
 103              		.loc 1 65 0
 104 0004 0024     		movs	r4, #0
 105 0006 05E0     		b	.L7
 106              	.LVL10:
ARM GAS  C:\Users\dufma\AppData\Local\Temp\cckrSH1t.s 			page 4


 107              	.L8:
  66:.\main.c      **** 		UART_PutChar(*ptr++);
 108              		.loc 1 66 0 discriminator 3
 109 0008 4D1C     		adds	r5, r1, #1
 110              	.LVL11:
 111 000a 0878     		ldrb	r0, [r1]	@ zero_extendqisi2
 112 000c FFF7FEFF 		bl	UART_PutChar
 113              	.LVL12:
  65:.\main.c      **** 		UART_PutChar(*ptr++);
 114              		.loc 1 65 0 discriminator 3
 115 0010 0134     		adds	r4, r4, #1
 116              	.LVL13:
 117              		.loc 1 66 0 discriminator 3
 118 0012 2946     		mov	r1, r5
 119              	.LVL14:
 120              	.L7:
  65:.\main.c      **** 		UART_PutChar(*ptr++);
 121              		.loc 1 65 0 discriminator 1
 122 0014 B442     		cmp	r4, r6
 123 0016 F7DB     		blt	.L8
  67:.\main.c      **** 	}
  68:.\main.c      **** 	return len;
  69:.\main.c      **** }
 124              		.loc 1 69 0
 125 0018 3046     		mov	r0, r6
 126 001a 70BD     		pop	{r4, r5, r6, pc}
 127              		.cfi_endproc
 128              	.LFE64:
 129              		.size	_write, .-_write
 130              		.section	.rodata.str1.4,"aMS",%progbits,1
 131              		.align	2
 132              	.LC0:
 133 0000 53746172 		.ascii	"Start\015\000"
 133      740D00
 134 0007 00       		.text
 135              	.Letext0:
 136              		.file 2 "c:\\program files (x86)\\cypress\\psoc creator\\3.3\\psoc creator\\import\\gnu\\arm\\4.9.
 137              		.file 3 "c:\\program files (x86)\\cypress\\psoc creator\\3.3\\psoc creator\\import\\gnu\\arm\\4.9.
 138              		.file 4 "Generated_Source\\PSoC5/cytypes.h"
 139              		.file 5 "Generated_Source\\PSoC5/ultra_isr.h"
 140              		.file 6 "Generated_Source\\PSoC5/CyLib.h"
 141              		.file 7 "Generated_Source\\PSoC5/Trigger.h"
 142              		.file 8 ".\\Ultra.h"
 143              		.file 9 "Generated_Source\\PSoC5/UART.h"
 144              		.file 10 "Generated_Source\\PSoC5/core_cm3.h"
 145              		.file 11 "<built-in>"