ARM GAS  C:\Users\dufma\AppData\Local\Temp\ccfTGYxE.s 			page 1


   1              		.syntax unified
   2              		.cpu cortex-m3
   3              		.fpu softvfp
   4              		.eabi_attribute 20, 1
   5              		.eabi_attribute 21, 1
   6              		.eabi_attribute 23, 3
   7              		.eabi_attribute 24, 1
   8              		.eabi_attribute 25, 1
   9              		.eabi_attribute 26, 1
  10              		.eabi_attribute 30, 1
  11              		.eabi_attribute 34, 1
  12              		.eabi_attribute 18, 4
  13              		.thumb
  14              		.file	"main.c"
  15              		.text
  16              	.Ltext0:
  17              		.cfi_sections	.debug_frame
  18              		.section	.text.sensor_isr_handler,"ax",%progbits
  19              		.align	2
  20              		.global	sensor_isr_handler
  21              		.thumb
  22              		.thumb_func
  23              		.type	sensor_isr_handler, %function
  24              	sensor_isr_handler:
  25              	.LFB64:
  26              		.file 1 ".\\main.c"
   1:.\main.c      **** /* ========================================
   2:.\main.c      ****  *
   3:.\main.c      ****  * Copyright YOUR COMPANY, THE YEAR
   4:.\main.c      ****  * All Rights Reserved
   5:.\main.c      ****  * UNPUBLISHED, LICENSED SOFTWARE.
   6:.\main.c      ****  *
   7:.\main.c      ****  * CONFIDENTIAL AND PROPRIETARY INFORMATION
   8:.\main.c      ****  * WHICH IS THE PROPERTY OF your company.
   9:.\main.c      ****  *
  10:.\main.c      ****  * ========================================
  11:.\main.c      **** */
  12:.\main.c      **** #include <project.h>
  13:.\main.c      **** #include <stdio.h>
  14:.\main.c      **** 
  15:.\main.c      **** int rread(void);
  16:.\main.c      **** void nunchuk_init();
  17:.\main.c      **** void nunchuk_read();
  18:.\main.c      **** 
  19:.\main.c      **** CY_ISR_PROTO(sensor_isr_handler);
  20:.\main.c      **** 
  21:.\main.c      **** volatile struct sensors_ {
  22:.\main.c      ****     uint16_t ll;
  23:.\main.c      ****     //uint16_t lc; // not used at the moment
  24:.\main.c      ****     uint16_t lr;
  25:.\main.c      ****     uint16_t rl;
  26:.\main.c      ****     //uint16_t rc; // not used at the moment
  27:.\main.c      ****     uint16_t rr;
  28:.\main.c      **** } sensors;
  29:.\main.c      **** 
  30:.\main.c      **** int main()
  31:.\main.c      **** {
ARM GAS  C:\Users\dufma\AppData\Local\Temp\ccfTGYxE.s 			page 2


  32:.\main.c      ****     sensor_isr_StartEx(sensor_isr_handler);
  33:.\main.c      ****     
  34:.\main.c      ****     CyGlobalIntEnable; /* Enable global interrupts. */
  35:.\main.c      **** 
  36:.\main.c      ****     /* Place your initialization/startup code here (e.g. MyInst_Start()) */
  37:.\main.c      ****     UART_Start();
  38:.\main.c      **** /*    Timer_RL_Start();
  39:.\main.c      ****     Timer_RR_Start();
  40:.\main.c      ****     Timer_LL_Start();
  41:.\main.c      ****     Timer_LR_Start();
  42:.\main.c      ****     PWM_Start();
  43:.\main.c      **** */
  44:.\main.c      ****     printf("Start\r\n");
  45:.\main.c      ****     IR_led_Write(1);
  46:.\main.c      ****     
  47:.\main.c      ****     I2C_Start();
  48:.\main.c      ****     
  49:.\main.c      ****     nunchuk_init();
  50:.\main.c      ****     for(;;)
  51:.\main.c      ****     {
  52:.\main.c      ****         /* Place your application code here. */
  53:.\main.c      ****         
  54:.\main.c      ****         nunchuk_read();
  55:.\main.c      ****     }
  56:.\main.c      **** }
  57:.\main.c      **** 
  58:.\main.c      **** CY_ISR(sensor_isr_handler)
  59:.\main.c      **** {
  27              		.loc 1 59 0
  28              		.cfi_startproc
  29              		@ args = 0, pretend = 0, frame = 0
  30              		@ frame_needed = 0, uses_anonymous_args = 0
  31 0000 F8B5     		push	{r3, r4, r5, r6, r7, lr}
  32              		.cfi_def_cfa_offset 24
  33              		.cfi_offset 3, -24
  34              		.cfi_offset 4, -20
  35              		.cfi_offset 5, -16
  36              		.cfi_offset 6, -12
  37              		.cfi_offset 7, -8
  38              		.cfi_offset 14, -4
  60:.\main.c      ****     uint32_t statusRL = Timer_RL_ReadStatusRegister();
  39              		.loc 1 60 0
  40 0002 FFF7FEFF 		bl	Timer_RL_ReadStatusRegister
  41              	.LVL0:
  42 0006 0446     		mov	r4, r0
  43              	.LVL1:
  61:.\main.c      ****     uint32_t statusRR = Timer_RR_ReadStatusRegister();
  44              		.loc 1 61 0
  45 0008 FFF7FEFF 		bl	Timer_RR_ReadStatusRegister
  46              	.LVL2:
  47 000c 0746     		mov	r7, r0
  48              	.LVL3:
  62:.\main.c      ****     uint32_t statusLL = Timer_LL_ReadStatusRegister();
  49              		.loc 1 62 0
  50 000e FFF7FEFF 		bl	Timer_LL_ReadStatusRegister
  51              	.LVL4:
  52 0012 0646     		mov	r6, r0
ARM GAS  C:\Users\dufma\AppData\Local\Temp\ccfTGYxE.s 			page 3


  53              	.LVL5:
  63:.\main.c      ****     uint32_t statusLR = Timer_LR_ReadStatusRegister();
  54              		.loc 1 63 0
  55 0014 FFF7FEFF 		bl	Timer_LR_ReadStatusRegister
  56              	.LVL6:
  57 0018 0546     		mov	r5, r0
  58              	.LVL7:
  64:.\main.c      **** 
  65:.\main.c      ****     if(statusRL & Timer_RL_STATUS_CAPTURE) {
  59              		.loc 1 65 0
  60 001a 14F0400F 		tst	r4, #64
  61 001e 09D0     		beq	.L2
  66:.\main.c      ****         sensors.rl = Timer_RL_ReadPeriod() - Timer_RL_ReadCapture();
  62              		.loc 1 66 0
  63 0020 FFF7FEFF 		bl	Timer_RL_ReadPeriod
  64              	.LVL8:
  65 0024 0446     		mov	r4, r0
  66              	.LVL9:
  67 0026 FFF7FEFF 		bl	Timer_RL_ReadCapture
  68              	.LVL10:
  69 002a 201A     		subs	r0, r4, r0
  70 002c 80B2     		uxth	r0, r0
  71 002e 314B     		ldr	r3, .L11
  72 0030 9880     		strh	r0, [r3, #4]	@ movhi
  73 0032 03E0     		b	.L3
  74              	.LVL11:
  75              	.L2:
  67:.\main.c      ****     }
  68:.\main.c      ****     else {
  69:.\main.c      ****         sensors.rl = Timer_RL_ReadPeriod();
  76              		.loc 1 69 0
  77 0034 FFF7FEFF 		bl	Timer_RL_ReadPeriod
  78              	.LVL12:
  79 0038 2E4B     		ldr	r3, .L11
  80 003a 9880     		strh	r0, [r3, #4]	@ movhi
  81              	.LVL13:
  82              	.L3:
  70:.\main.c      ****     }
  71:.\main.c      ****     
  72:.\main.c      ****     if(statusRR & Timer_RR_STATUS_CAPTURE) {
  83              		.loc 1 72 0
  84 003c 17F0400F 		tst	r7, #64
  85 0040 09D0     		beq	.L4
  73:.\main.c      ****         sensors.rr = Timer_RR_ReadPeriod() - Timer_RR_ReadCapture();
  86              		.loc 1 73 0
  87 0042 FFF7FEFF 		bl	Timer_RR_ReadPeriod
  88              	.LVL14:
  89 0046 0446     		mov	r4, r0
  90 0048 FFF7FEFF 		bl	Timer_RR_ReadCapture
  91              	.LVL15:
  92 004c 201A     		subs	r0, r4, r0
  93 004e 80B2     		uxth	r0, r0
  94 0050 284B     		ldr	r3, .L11
  95 0052 D880     		strh	r0, [r3, #6]	@ movhi
  96 0054 03E0     		b	.L5
  97              	.L4:
  74:.\main.c      ****     }
ARM GAS  C:\Users\dufma\AppData\Local\Temp\ccfTGYxE.s 			page 4


  75:.\main.c      ****     else {
  76:.\main.c      ****         sensors.rr = Timer_RR_ReadPeriod();
  98              		.loc 1 76 0
  99 0056 FFF7FEFF 		bl	Timer_RR_ReadPeriod
 100              	.LVL16:
 101 005a 264B     		ldr	r3, .L11
 102 005c D880     		strh	r0, [r3, #6]	@ movhi
 103              	.L5:
  77:.\main.c      ****     }
  78:.\main.c      ****     
  79:.\main.c      ****     if(statusLL & Timer_LL_STATUS_CAPTURE) {
 104              		.loc 1 79 0
 105 005e 16F0400F 		tst	r6, #64
 106 0062 09D0     		beq	.L6
  80:.\main.c      ****         sensors.ll = Timer_LL_ReadPeriod() - Timer_LL_ReadCapture();
 107              		.loc 1 80 0
 108 0064 FFF7FEFF 		bl	Timer_LL_ReadPeriod
 109              	.LVL17:
 110 0068 0446     		mov	r4, r0
 111 006a FFF7FEFF 		bl	Timer_LL_ReadCapture
 112              	.LVL18:
 113 006e 201A     		subs	r0, r4, r0
 114 0070 80B2     		uxth	r0, r0
 115 0072 204B     		ldr	r3, .L11
 116 0074 1880     		strh	r0, [r3]	@ movhi
 117 0076 03E0     		b	.L7
 118              	.L6:
  81:.\main.c      ****     }
  82:.\main.c      ****     else {
  83:.\main.c      ****         sensors.ll = Timer_LL_ReadPeriod();
 119              		.loc 1 83 0
 120 0078 FFF7FEFF 		bl	Timer_LL_ReadPeriod
 121              	.LVL19:
 122 007c 1D4B     		ldr	r3, .L11
 123 007e 1880     		strh	r0, [r3]	@ movhi
 124              	.L7:
  84:.\main.c      ****     }
  85:.\main.c      ****     
  86:.\main.c      ****     if(statusLR & Timer_LR_STATUS_CAPTURE) {
 125              		.loc 1 86 0
 126 0080 15F0400F 		tst	r5, #64
 127 0084 09D0     		beq	.L8
  87:.\main.c      ****         sensors.lr = Timer_LR_ReadPeriod() - Timer_LR_ReadCapture();
 128              		.loc 1 87 0
 129 0086 FFF7FEFF 		bl	Timer_LR_ReadPeriod
 130              	.LVL20:
 131 008a 0446     		mov	r4, r0
 132 008c FFF7FEFF 		bl	Timer_LR_ReadCapture
 133              	.LVL21:
 134 0090 201A     		subs	r0, r4, r0
 135 0092 80B2     		uxth	r0, r0
 136 0094 174B     		ldr	r3, .L11
 137 0096 5880     		strh	r0, [r3, #2]	@ movhi
 138 0098 03E0     		b	.L9
 139              	.L8:
  88:.\main.c      ****     }
  89:.\main.c      ****     else {
ARM GAS  C:\Users\dufma\AppData\Local\Temp\ccfTGYxE.s 			page 5


  90:.\main.c      ****         sensors.lr = Timer_LR_ReadPeriod();
 140              		.loc 1 90 0
 141 009a FFF7FEFF 		bl	Timer_LR_ReadPeriod
 142              	.LVL22:
 143 009e 154B     		ldr	r3, .L11
 144 00a0 5880     		strh	r0, [r3, #2]	@ movhi
 145              	.L9:
  91:.\main.c      ****     }
  92:.\main.c      ****     
  93:.\main.c      ****     RL_SetDriveMode(PIN_DM_STRONG);
 146              		.loc 1 93 0
 147 00a2 0C20     		movs	r0, #12
 148 00a4 FFF7FEFF 		bl	RL_SetDriveMode
 149              	.LVL23:
  94:.\main.c      ****     RL_Write(1);
 150              		.loc 1 94 0
 151 00a8 0120     		movs	r0, #1
 152 00aa FFF7FEFF 		bl	RL_Write
 153              	.LVL24:
  95:.\main.c      ****     RR_SetDriveMode(PIN_DM_STRONG);
 154              		.loc 1 95 0
 155 00ae 0C20     		movs	r0, #12
 156 00b0 FFF7FEFF 		bl	RR_SetDriveMode
 157              	.LVL25:
  96:.\main.c      ****     RR_Write(1);
 158              		.loc 1 96 0
 159 00b4 0120     		movs	r0, #1
 160 00b6 FFF7FEFF 		bl	RR_Write
 161              	.LVL26:
  97:.\main.c      ****     LL_SetDriveMode(PIN_DM_STRONG);
 162              		.loc 1 97 0
 163 00ba 0C20     		movs	r0, #12
 164 00bc FFF7FEFF 		bl	LL_SetDriveMode
 165              	.LVL27:
  98:.\main.c      ****     LL_Write(1);
 166              		.loc 1 98 0
 167 00c0 0120     		movs	r0, #1
 168 00c2 FFF7FEFF 		bl	LL_Write
 169              	.LVL28:
  99:.\main.c      ****     LR_SetDriveMode(PIN_DM_STRONG);
 170              		.loc 1 99 0
 171 00c6 0C20     		movs	r0, #12
 172 00c8 FFF7FEFF 		bl	LR_SetDriveMode
 173              	.LVL29:
 100:.\main.c      ****     LR_Write(1);
 174              		.loc 1 100 0
 175 00cc 0120     		movs	r0, #1
 176 00ce FFF7FEFF 		bl	LR_Write
 177              	.LVL30:
 101:.\main.c      ****     CyDelayUs(10);
 178              		.loc 1 101 0
 179 00d2 0A20     		movs	r0, #10
 180 00d4 FFF7FEFF 		bl	CyDelayUs
 181              	.LVL31:
 102:.\main.c      ****     RL_SetDriveMode(PIN_DM_DIG_HIZ);
 182              		.loc 1 102 0
 183 00d8 0220     		movs	r0, #2
ARM GAS  C:\Users\dufma\AppData\Local\Temp\ccfTGYxE.s 			page 6


 184 00da FFF7FEFF 		bl	RL_SetDriveMode
 185              	.LVL32:
 103:.\main.c      ****     RR_SetDriveMode(PIN_DM_DIG_HIZ);
 186              		.loc 1 103 0
 187 00de 0220     		movs	r0, #2
 188 00e0 FFF7FEFF 		bl	RR_SetDriveMode
 189              	.LVL33:
 104:.\main.c      ****     LL_SetDriveMode(PIN_DM_DIG_HIZ);
 190              		.loc 1 104 0
 191 00e4 0220     		movs	r0, #2
 192 00e6 FFF7FEFF 		bl	LL_SetDriveMode
 193              	.LVL34:
 105:.\main.c      ****     LR_SetDriveMode(PIN_DM_DIG_HIZ);
 194              		.loc 1 105 0
 195 00ea 0220     		movs	r0, #2
 196 00ec FFF7FEFF 		bl	LR_SetDriveMode
 197              	.LVL35:
 198 00f0 F8BD     		pop	{r3, r4, r5, r6, r7, pc}
 199              	.LVL36:
 200              	.L12:
 201 00f2 00BF     		.align	2
 202              	.L11:
 203 00f4 00000000 		.word	sensors
 204              		.cfi_endproc
 205              	.LFE64:
 206              		.size	sensor_isr_handler, .-sensor_isr_handler
 207              		.section	.text.nunchuk_init,"ax",%progbits
 208              		.align	2
 209              		.global	nunchuk_init
 210              		.thumb
 211              		.thumb_func
 212              		.type	nunchuk_init, %function
 213              	nunchuk_init:
 214              	.LFB65:
 106:.\main.c      ****         
 107:.\main.c      **** }
 108:.\main.c      **** void nunchuk_init(void)
 109:.\main.c      **** {
 215              		.loc 1 109 0
 216              		.cfi_startproc
 217              		@ args = 0, pretend = 0, frame = 8
 218              		@ frame_needed = 0, uses_anonymous_args = 0
 219 0000 10B5     		push	{r4, lr}
 220              		.cfi_def_cfa_offset 8
 221              		.cfi_offset 4, -8
 222              		.cfi_offset 14, -4
 223 0002 82B0     		sub	sp, sp, #8
 224              		.cfi_def_cfa_offset 16
 110:.\main.c      ****     uint8_t buf[2] = { 0x40, 0x00 };
 225              		.loc 1 110 0
 226 0004 4023     		movs	r3, #64
 227 0006 8DF80430 		strb	r3, [sp, #4]
 228 000a 0024     		movs	r4, #0
 229 000c 8DF80540 		strb	r4, [sp, #5]
 111:.\main.c      ****     uint8_t status;
 112:.\main.c      ****     I2C_MasterClearStatus();
 230              		.loc 1 112 0
ARM GAS  C:\Users\dufma\AppData\Local\Temp\ccfTGYxE.s 			page 7


 231 0010 FFF7FEFF 		bl	I2C_MasterClearStatus
 232              	.LVL37:
 113:.\main.c      ****     CyDelay(100);
 233              		.loc 1 113 0
 234 0014 6420     		movs	r0, #100
 235 0016 FFF7FEFF 		bl	CyDelay
 236              	.LVL38:
 114:.\main.c      ****     status = I2C_MasterWriteBuf(0x52, buf, 2, I2C_MODE_COMPLETE_XFER);
 237              		.loc 1 114 0
 238 001a 5220     		movs	r0, #82
 239 001c 01A9     		add	r1, sp, #4
 240 001e 0222     		movs	r2, #2
 241 0020 2346     		mov	r3, r4
 242 0022 FFF7FEFF 		bl	I2C_MasterWriteBuf
 243              	.LVL39:
 244              	.L14:
 115:.\main.c      ****     while(((status = I2C_MasterStatus()) & I2C_MSTAT_WR_CMPLT) == 0);
 245              		.loc 1 115 0 discriminator 1
 246 0026 FFF7FEFF 		bl	I2C_MasterStatus
 247              	.LVL40:
 248 002a 10F0020F 		tst	r0, #2
 249 002e FAD0     		beq	.L14
 116:.\main.c      ****     CyDelay(100);
 250              		.loc 1 116 0
 251 0030 6420     		movs	r0, #100
 252              	.LVL41:
 253 0032 FFF7FEFF 		bl	CyDelay
 254              	.LVL42:
 117:.\main.c      **** }    
 255              		.loc 1 117 0
 256 0036 02B0     		add	sp, sp, #8
 257              		.cfi_def_cfa_offset 8
 258              		@ sp needed
 259 0038 10BD     		pop	{r4, pc}
 260              		.cfi_endproc
 261              	.LFE65:
 262              		.size	nunchuk_init, .-nunchuk_init
 263 003a 00BF     		.section	.text.nunchuk_read,"ax",%progbits
 264              		.align	2
 265              		.global	nunchuk_read
 266              		.thumb
 267              		.thumb_func
 268              		.type	nunchuk_read, %function
 269              	nunchuk_read:
 270              	.LFB66:
 118:.\main.c      **** 
 119:.\main.c      **** void nunchuk_read(void)
 120:.\main.c      **** {
 271              		.loc 1 120 0
 272              		.cfi_startproc
 273              		@ args = 0, pretend = 0, frame = 8
 274              		@ frame_needed = 0, uses_anonymous_args = 0
 275 0000 70B5     		push	{r4, r5, r6, lr}
 276              		.cfi_def_cfa_offset 16
 277              		.cfi_offset 4, -16
 278              		.cfi_offset 5, -12
 279              		.cfi_offset 6, -8
ARM GAS  C:\Users\dufma\AppData\Local\Temp\ccfTGYxE.s 			page 8


 280              		.cfi_offset 14, -4
 281 0002 86B0     		sub	sp, sp, #24
 282              		.cfi_def_cfa_offset 40
 121:.\main.c      ****     uint8_t status;
 122:.\main.c      ****     uint8_t buf[6];
 123:.\main.c      ****     // send conversion command
 124:.\main.c      ****     buf[0] = 0x00;
 283              		.loc 1 124 0
 284 0004 0025     		movs	r5, #0
 285 0006 06AC     		add	r4, sp, #24
 286 0008 04F8085D 		strb	r5, [r4, #-8]!
 125:.\main.c      ****     I2C_MasterClearStatus();
 287              		.loc 1 125 0
 288 000c FFF7FEFF 		bl	I2C_MasterClearStatus
 289              	.LVL43:
 126:.\main.c      ****     status = I2C_MasterWriteBuf(0x52, buf, 1, I2C_MODE_COMPLETE_XFER);
 290              		.loc 1 126 0
 291 0010 5220     		movs	r0, #82
 292 0012 2146     		mov	r1, r4
 293 0014 0122     		movs	r2, #1
 294 0016 2B46     		mov	r3, r5
 295 0018 FFF7FEFF 		bl	I2C_MasterWriteBuf
 296              	.LVL44:
 297              	.L17:
 127:.\main.c      ****     while(((status = I2C_MasterStatus()) & I2C_MSTAT_WR_CMPLT) == 0);
 298              		.loc 1 127 0 discriminator 1
 299 001c FFF7FEFF 		bl	I2C_MasterStatus
 300              	.LVL45:
 301 0020 10F0020F 		tst	r0, #2
 302 0024 FAD0     		beq	.L17
 128:.\main.c      ****     // wait for conversion to complete
 129:.\main.c      ****     CyDelay(50); // todo: check if shorter wait would work
 303              		.loc 1 129 0
 304 0026 3220     		movs	r0, #50
 305              	.LVL46:
 306 0028 FFF7FEFF 		bl	CyDelay
 307              	.LVL47:
 130:.\main.c      ****     // read values
 131:.\main.c      ****     I2C_MasterClearStatus();
 308              		.loc 1 131 0
 309 002c FFF7FEFF 		bl	I2C_MasterClearStatus
 310              	.LVL48:
 132:.\main.c      ****     status = I2C_MasterReadBuf(0x52, buf, 6, I2C_MODE_COMPLETE_XFER);
 311              		.loc 1 132 0
 312 0030 5220     		movs	r0, #82
 313 0032 04A9     		add	r1, sp, #16
 314 0034 0622     		movs	r2, #6
 315 0036 0023     		movs	r3, #0
 316 0038 FFF7FEFF 		bl	I2C_MasterReadBuf
 317              	.LVL49:
 318              	.L18:
 133:.\main.c      ****     while(((status = I2C_MasterStatus()) & I2C_MSTAT_RD_CMPLT) == 0);
 319              		.loc 1 133 0 discriminator 1
 320 003c FFF7FEFF 		bl	I2C_MasterStatus
 321              	.LVL50:
 322 0040 10F0010F 		tst	r0, #1
 323 0044 FAD0     		beq	.L18
ARM GAS  C:\Users\dufma\AppData\Local\Temp\ccfTGYxE.s 			page 9


 324 0046 0022     		movs	r2, #0
 325 0048 09E0     		b	.L19
 326              	.LVL51:
 327              	.L20:
 134:.\main.c      ****     
 135:.\main.c      ****     int i;
 136:.\main.c      ****     // decrypt data
 137:.\main.c      ****     for(i = 0; i < 6; i++) buf[i] = (buf[i] ^ 0x17) + 0x17;
 328              		.loc 1 137 0 discriminator 3
 329 004a 06AB     		add	r3, sp, #24
 330 004c 9918     		adds	r1, r3, r2
 331 004e 11F8083C 		ldrb	r3, [r1, #-8]	@ zero_extendqisi2
 332 0052 83F01703 		eor	r3, r3, #23
 333 0056 1733     		adds	r3, r3, #23
 334 0058 01F8083C 		strb	r3, [r1, #-8]
 335 005c 0132     		adds	r2, r2, #1
 336              	.LVL52:
 337              	.L19:
 338              		.loc 1 137 0 is_stmt 0 discriminator 1
 339 005e 052A     		cmp	r2, #5
 340 0060 F3DD     		ble	.L20
 138:.\main.c      ****     // accelerometer values
 139:.\main.c      ****     int x,y,z;
 140:.\main.c      ****     x = (buf[2] << 2) | ((buf[5] >> 2) & 0x03);
 341              		.loc 1 140 0 is_stmt 1
 342 0062 9DF81250 		ldrb	r5, [sp, #18]	@ zero_extendqisi2
 343 0066 9DF81530 		ldrb	r3, [sp, #21]	@ zero_extendqisi2
 344 006a C3F38102 		ubfx	r2, r3, #2, #2
 345              	.LVL53:
 346 006e 42EA8505 		orr	r5, r2, r5, lsl #2
 347              	.LVL54:
 141:.\main.c      ****     y = (buf[3] << 2) | ((buf[5] >> 4) & 0x03);
 348              		.loc 1 141 0
 349 0072 9DF81340 		ldrb	r4, [sp, #19]	@ zero_extendqisi2
 350 0076 C3F30112 		ubfx	r2, r3, #4, #2
 351 007a 42EA8404 		orr	r4, r2, r4, lsl #2
 352              	.LVL55:
 142:.\main.c      ****     z = (buf[4] << 2) | ((buf[5] >> 6) & 0x03);
 353              		.loc 1 142 0
 354 007e 9DF81400 		ldrb	r0, [sp, #20]	@ zero_extendqisi2
 355              	.LVL56:
 356 0082 9A09     		lsrs	r2, r3, #6
 357 0084 42EA8000 		orr	r0, r2, r0, lsl #2
 358              	.LVL57:
 143:.\main.c      ****     // buf[0] = JoyX, buf[1] = JoyY
 144:.\main.c      ****     printf("%3d %3d, %d, %d, %4d %4d %4d\r\n", buf[0], buf[1], (buf[5] >> 1) & 1, buf[5] & 1, x, y,
 359              		.loc 1 144 0
 360 0088 9DF81010 		ldrb	r1, [sp, #16]	@ zero_extendqisi2
 361 008c 9DF81120 		ldrb	r2, [sp, #17]	@ zero_extendqisi2
 362 0090 03F00106 		and	r6, r3, #1
 363 0094 0096     		str	r6, [sp]
 364 0096 0195     		str	r5, [sp, #4]
 365 0098 0294     		str	r4, [sp, #8]
 366 009a 0390     		str	r0, [sp, #12]
 367 009c 0348     		ldr	r0, .L22
 368              	.LVL58:
 369 009e C3F34003 		ubfx	r3, r3, #1, #1
ARM GAS  C:\Users\dufma\AppData\Local\Temp\ccfTGYxE.s 			page 10


 370 00a2 FFF7FEFF 		bl	printf
 371              	.LVL59:
 145:.\main.c      **** }    
 372              		.loc 1 145 0
 373 00a6 06B0     		add	sp, sp, #24
 374              		.cfi_def_cfa_offset 16
 375              		@ sp needed
 376 00a8 70BD     		pop	{r4, r5, r6, pc}
 377              	.LVL60:
 378              	.L23:
 379 00aa 00BF     		.align	2
 380              	.L22:
 381 00ac 00000000 		.word	.LC0
 382              		.cfi_endproc
 383              	.LFE66:
 384              		.size	nunchuk_read, .-nunchuk_read
 385              		.section	.text.main,"ax",%progbits
 386              		.align	2
 387              		.global	main
 388              		.thumb
 389              		.thumb_func
 390              		.type	main, %function
 391              	main:
 392              	.LFB63:
  31:.\main.c      ****     sensor_isr_StartEx(sensor_isr_handler);
 393              		.loc 1 31 0
 394              		.cfi_startproc
 395              		@ Volatile: function does not return.
 396              		@ args = 0, pretend = 0, frame = 0
 397              		@ frame_needed = 0, uses_anonymous_args = 0
 398 0000 08B5     		push	{r3, lr}
 399              		.cfi_def_cfa_offset 8
 400              		.cfi_offset 3, -8
 401              		.cfi_offset 14, -4
  32:.\main.c      ****     
 402              		.loc 1 32 0
 403 0002 0948     		ldr	r0, .L27
 404 0004 FFF7FEFF 		bl	sensor_isr_StartEx
 405              	.LVL61:
  34:.\main.c      **** 
 406              		.loc 1 34 0
 407              	@ 34 ".\main.c" 1
 408 0008 62B6     		CPSIE   i
 409              	@ 0 "" 2
  37:.\main.c      **** /*    Timer_RL_Start();
 410              		.loc 1 37 0
 411              		.thumb
 412 000a FFF7FEFF 		bl	UART_Start
 413              	.LVL62:
  44:.\main.c      ****     IR_led_Write(1);
 414              		.loc 1 44 0
 415 000e 0748     		ldr	r0, .L27+4
 416 0010 FFF7FEFF 		bl	puts
 417              	.LVL63:
  45:.\main.c      ****     
 418              		.loc 1 45 0
 419 0014 0120     		movs	r0, #1
ARM GAS  C:\Users\dufma\AppData\Local\Temp\ccfTGYxE.s 			page 11


 420 0016 FFF7FEFF 		bl	IR_led_Write
 421              	.LVL64:
  47:.\main.c      ****     
 422              		.loc 1 47 0
 423 001a FFF7FEFF 		bl	I2C_Start
 424              	.LVL65:
  49:.\main.c      ****     for(;;)
 425              		.loc 1 49 0
 426 001e FFF7FEFF 		bl	nunchuk_init
 427              	.LVL66:
 428              	.L25:
  54:.\main.c      ****     }
 429              		.loc 1 54 0 discriminator 1
 430 0022 FFF7FEFF 		bl	nunchuk_read
 431              	.LVL67:
  55:.\main.c      **** }
 432              		.loc 1 55 0 discriminator 1
 433 0026 FCE7     		b	.L25
 434              	.L28:
 435              		.align	2
 436              	.L27:
 437 0028 00000000 		.word	sensor_isr_handler
 438 002c 20000000 		.word	.LC1
 439              		.cfi_endproc
 440              	.LFE63:
 441              		.size	main, .-main
 442              		.section	.text._write,"ax",%progbits
 443              		.align	2
 444              		.global	_write
 445              		.thumb
 446              		.thumb_func
 447              		.type	_write, %function
 448              	_write:
 449              	.LFB67:
 146:.\main.c      **** 
 147:.\main.c      **** /*
 148:.\main.c      **** void nunchuk_init(void)
 149:.\main.c      **** {
 150:.\main.c      ****     uint8_t buf[2] = { 0x40, 0x00 };
 151:.\main.c      ****     uint8_t status;
 152:.\main.c      ****     I2C_2_MasterClearStatus();
 153:.\main.c      ****     CyDelay(100);
 154:.\main.c      ****     status = I2C_2_MasterWriteBuf(0x52, buf, 2, I2C_2_MODE_COMPLETE_XFER);
 155:.\main.c      ****     while(((status = I2C_2_MasterStatus()) & I2C_2_MSTAT_WR_CMPLT) == 0);
 156:.\main.c      ****     CyDelay(100);
 157:.\main.c      **** }    
 158:.\main.c      **** 
 159:.\main.c      **** void nunchuk_read(void)
 160:.\main.c      **** {
 161:.\main.c      ****     uint8_t status;
 162:.\main.c      ****     uint8_t buf[6];
 163:.\main.c      ****     // send conversion command
 164:.\main.c      ****     buf[0] = 0x00;
 165:.\main.c      ****     I2C_2_MasterClearStatus();
 166:.\main.c      ****     status = I2C_2_MasterWriteBuf(0x52, buf, 1, I2C_2_MODE_COMPLETE_XFER);
 167:.\main.c      ****     while(((status = I2C_2_MasterStatus()) & I2C_2_MSTAT_WR_CMPLT) == 0);
 168:.\main.c      ****     // wait for conversion to complete
ARM GAS  C:\Users\dufma\AppData\Local\Temp\ccfTGYxE.s 			page 12


 169:.\main.c      ****     CyDelay(50); // todo: check if shorter wait would work
 170:.\main.c      ****     // read values
 171:.\main.c      ****     I2C_2_MasterClearStatus();
 172:.\main.c      ****     status = I2C_2_MasterReadBuf(0x52, buf, 6, I2C_2_MODE_COMPLETE_XFER);
 173:.\main.c      ****     while(((status = I2C_2_MasterStatus()) & I2C_2_MSTAT_RD_CMPLT) == 0);
 174:.\main.c      ****     
 175:.\main.c      ****     int i;
 176:.\main.c      ****     // decrypt data
 177:.\main.c      ****     for(i = 0; i < 6; i++) buf[i] = (buf[i] ^ 0x17) + 0x17;
 178:.\main.c      ****     // accelerometer values
 179:.\main.c      ****     int x,y,z;
 180:.\main.c      ****     x = (buf[2] << 2) | ((buf[5] >> 2) & 0x03);
 181:.\main.c      ****     y = (buf[3] << 2) | ((buf[5] >> 4) & 0x03);
 182:.\main.c      ****     z = (buf[4] << 2) | ((buf[5] >> 6) & 0x03);
 183:.\main.c      ****     // buf[0] = JoyX, buf[1] = JoyY
 184:.\main.c      ****     printf("%3d %3d, %d, %d, %4d %4d %4d\r\n", buf[0], buf[1], (buf[5] >> 1) & 1, buf[5] & 1, x, y,
 185:.\main.c      **** }    
 186:.\main.c      **** */
 187:.\main.c      **** #if 0
 188:.\main.c      **** int rread(void)
 189:.\main.c      **** {
 190:.\main.c      ****     SC0_SetDriveMode(PIN_DM_STRONG);
 191:.\main.c      ****     SC0_Write(1);
 192:.\main.c      ****     CyDelayUs(10);
 193:.\main.c      ****     SC0_SetDriveMode(PIN_DM_DIG_HIZ);
 194:.\main.c      ****     Timer_1_Start();
 195:.\main.c      ****     uint16_t start = Timer_1_ReadCounter();
 196:.\main.c      ****     uint16_t end = 0;
 197:.\main.c      ****     while(!(Timer_1_ReadStatusRegister() & Timer_1_STATUS_TC)) {
 198:.\main.c      ****         if(SC0_Read() == 0 && end == 0) {
 199:.\main.c      ****             end = Timer_1_ReadCounter();
 200:.\main.c      ****         }
 201:.\main.c      ****     }
 202:.\main.c      ****     Timer_1_Stop();
 203:.\main.c      ****     
 204:.\main.c      ****     return (start - end);
 205:.\main.c      **** }
 206:.\main.c      **** #endif
 207:.\main.c      **** 
 208:.\main.c      **** int _write(int file, char *ptr, int len)
 209:.\main.c      **** {
 450              		.loc 1 209 0
 451              		.cfi_startproc
 452              		@ args = 0, pretend = 0, frame = 0
 453              		@ frame_needed = 0, uses_anonymous_args = 0
 454              	.LVL68:
 455 0000 70B5     		push	{r4, r5, r6, lr}
 456              		.cfi_def_cfa_offset 16
 457              		.cfi_offset 4, -16
 458              		.cfi_offset 5, -12
 459              		.cfi_offset 6, -8
 460              		.cfi_offset 14, -4
 461 0002 1646     		mov	r6, r2
 462              	.LVL69:
 210:.\main.c      ****     (void) file;
 211:.\main.c      **** 	int n;
 212:.\main.c      **** 	for(n = 0; n < len; n++) {
ARM GAS  C:\Users\dufma\AppData\Local\Temp\ccfTGYxE.s 			page 13


 463              		.loc 1 212 0
 464 0004 0024     		movs	r4, #0
 465 0006 05E0     		b	.L30
 466              	.LVL70:
 467              	.L31:
 213:.\main.c      **** 		UART_PutChar(*ptr++);
 468              		.loc 1 213 0 discriminator 3
 469 0008 4D1C     		adds	r5, r1, #1
 470              	.LVL71:
 471 000a 0878     		ldrb	r0, [r1]	@ zero_extendqisi2
 472 000c FFF7FEFF 		bl	UART_PutChar
 473              	.LVL72:
 212:.\main.c      **** 		UART_PutChar(*ptr++);
 474              		.loc 1 212 0 discriminator 3
 475 0010 0134     		adds	r4, r4, #1
 476              	.LVL73:
 477              		.loc 1 213 0 discriminator 3
 478 0012 2946     		mov	r1, r5
 479              	.LVL74:
 480              	.L30:
 212:.\main.c      **** 		UART_PutChar(*ptr++);
 481              		.loc 1 212 0 discriminator 1
 482 0014 B442     		cmp	r4, r6
 483 0016 F7DB     		blt	.L31
 214:.\main.c      **** 	}
 215:.\main.c      **** 	return len;
 216:.\main.c      **** }
 484              		.loc 1 216 0
 485 0018 3046     		mov	r0, r6
 486 001a 70BD     		pop	{r4, r5, r6, pc}
 487              		.cfi_endproc
 488              	.LFE67:
 489              		.size	_write, .-_write
 490              		.comm	sensors,8,4
 491              		.section	.rodata.str1.4,"aMS",%progbits,1
 492              		.align	2
 493              	.LC0:
 494 0000 25336420 		.ascii	"%3d %3d, %d, %d, %4d %4d %4d\015\012\000"
 494      2533642C 
 494      2025642C 
 494      2025642C 
 494      20253464 
 495 001f 00       		.space	1
 496              	.LC1:
 497 0020 53746172 		.ascii	"Start\015\000"
 497      740D00
 498 0027 00       		.text
 499              	.Letext0:
 500              		.file 2 "c:\\program files (x86)\\cypress\\psoc creator\\3.3\\psoc creator\\import\\gnu\\arm\\4.9.
 501              		.file 3 "c:\\program files (x86)\\cypress\\psoc creator\\3.3\\psoc creator\\import\\gnu\\arm\\4.9.
 502              		.file 4 "Generated_Source\\PSoC5/cytypes.h"
 503              		.file 5 "Generated_Source\\PSoC5/core_cm3.h"
 504              		.file 6 "Generated_Source\\PSoC5/Timer_RL.h"
 505              		.file 7 "Generated_Source\\PSoC5/Timer_RR.h"
 506              		.file 8 "Generated_Source\\PSoC5/Timer_LL.h"
 507              		.file 9 "Generated_Source\\PSoC5/Timer_LR.h"
 508              		.file 10 "Generated_Source\\PSoC5/RL.h"
ARM GAS  C:\Users\dufma\AppData\Local\Temp\ccfTGYxE.s 			page 14


 509              		.file 11 "Generated_Source\\PSoC5/RR.h"
 510              		.file 12 "Generated_Source\\PSoC5/LL.h"
 511              		.file 13 "Generated_Source\\PSoC5/LR.h"
 512              		.file 14 "Generated_Source\\PSoC5/CyLib.h"
 513              		.file 15 "Generated_Source\\PSoC5/I2C.h"
 514              		.file 16 "c:\\program files (x86)\\cypress\\psoc creator\\3.3\\psoc creator\\import\\gnu\\arm\\4.9
 515              		.file 17 "Generated_Source\\PSoC5/sensor_isr.h"
 516              		.file 18 "Generated_Source\\PSoC5/IR_led.h"
 517              		.file 19 "Generated_Source\\PSoC5/UART.h"
 518              		.file 20 "<built-in>"