ARM GAS  C:\Users\dufma\AppData\Local\Temp\cchFzDba.s 			page 1


   1              		.syntax unified
   2              		.cpu cortex-m3
   3              		.fpu softvfp
   4              		.eabi_attribute 20, 1
   5              		.eabi_attribute 21, 1
   6              		.eabi_attribute 23, 3
   7              		.eabi_attribute 24, 1
   8              		.eabi_attribute 25, 1
   9              		.eabi_attribute 26, 1
  10              		.eabi_attribute 30, 1
  11              		.eabi_attribute 34, 1
  12              		.eabi_attribute 18, 4
  13              		.thumb
  14              		.file	"main.c"
  15              		.text
  16              	.Ltext0:
  17              		.cfi_sections	.debug_frame
  18              		.section	.text.main,"ax",%progbits
  19              		.align	2
  20              		.global	main
  21              		.thumb
  22              		.thumb_func
  23              		.type	main, %function
  24              	main:
  25              	.LFB63:
  26              		.file 1 ".\\main.c"
   1:.\main.c      **** /* ========================================
   2:.\main.c      ****  *
   3:.\main.c      ****  * Copyright YOUR COMPANY, THE YEAR
   4:.\main.c      ****  * All Rights Reserved
   5:.\main.c      ****  * UNPUBLISHED, LICENSED SOFTWARE.
   6:.\main.c      ****  *
   7:.\main.c      ****  * CONFIDENTIAL AND PROPRIETARY INFORMATION
   8:.\main.c      ****  * WHICH IS THE PROPERTY OF your company.
   9:.\main.c      ****  *
  10:.\main.c      ****  * ========================================
  11:.\main.c      **** */
  12:.\main.c      **** #include <project.h>
  13:.\main.c      **** #include <stdio.h>
  14:.\main.c      **** #include "Motor.h"
  15:.\main.c      **** #include "Ultra.h"
  16:.\main.c      **** #include "nunchuk.h"
  17:.\main.c      **** #include "Reflectance.h"
  18:.\main.c      **** 
  19:.\main.c      **** int rread(void);
  20:.\main.c      **** 
  21:.\main.c      **** int main()
  22:.\main.c      **** {
  27              		.loc 1 22 0
  28              		.cfi_startproc
  29              		@ args = 0, pretend = 0, frame = 0
  30              		@ frame_needed = 0, uses_anonymous_args = 0
  31 0000 10B5     		push	{r4, lr}
  32              		.cfi_def_cfa_offset 8
  33              		.cfi_offset 4, -8
  34              		.cfi_offset 14, -4
  23:.\main.c      ****     CyGlobalIntEnable; 
ARM GAS  C:\Users\dufma\AppData\Local\Temp\cchFzDba.s 			page 2


  35              		.loc 1 23 0
  36              	@ 23 ".\main.c" 1
  37 0002 62B6     		CPSIE   i
  38              	@ 0 "" 2
  24:.\main.c      ****     UART_Start();
  39              		.loc 1 24 0
  40              		.thumb
  41 0004 FFF7FEFF 		bl	UART_Start
  42              	.LVL0:
  25:.\main.c      ****     printf("Start\r\n");
  43              		.loc 1 25 0
  44 0008 3D48     		ldr	r0, .L8
  45 000a FFF7FEFF 		bl	puts
  46              	.LVL1:
  26:.\main.c      ****     
  27:.\main.c      ****     sensor_isr_StartEx(sensor_isr_handler);
  47              		.loc 1 27 0
  48 000e 3D48     		ldr	r0, .L8+4
  49 0010 FFF7FEFF 		bl	sensor_isr_StartEx
  50              	.LVL2:
  28:.\main.c      ****     Refelctance_Start();
  51              		.loc 1 28 0
  52 0014 FFF7FEFF 		bl	Refelctance_Start
  53              	.LVL3:
  29:.\main.c      ****     
  30:.\main.c      ****     nunchuk_start();
  54              		.loc 1 30 0
  55 0018 FFF7FEFF 		bl	nunchuk_start
  56              	.LVL4:
  31:.\main.c      ****     nunchuk_init();
  57              		.loc 1 31 0
  58 001c FFF7FEFF 		bl	nunchuk_init
  59              	.LVL5:
  60              	.L2:
  61              	.LBB2:
  32:.\main.c      ****     
  33:.\main.c      ****     for(;;)
  34:.\main.c      ****     {
  35:.\main.c      ****         nunchuk_read();
  62              		.loc 1 35 0
  63 0020 FFF7FEFF 		bl	nunchuk_read
  64              	.LVL6:
  36:.\main.c      ****         printf("%d %d\r\n",getJoyX(),getJoyY());
  65              		.loc 1 36 0
  66 0024 FFF7FEFF 		bl	getJoyX
  67              	.LVL7:
  68 0028 0446     		mov	r4, r0
  69 002a FFF7FEFF 		bl	getJoyY
  70              	.LVL8:
  71 002e 0246     		mov	r2, r0
  72 0030 3548     		ldr	r0, .L8+8
  73 0032 2146     		mov	r1, r4
  74 0034 FFF7FEFF 		bl	printf
  75              	.LVL9:
  37:.\main.c      ****         
  38:.\main.c      ****         int MidX = 128;
  39:.\main.c      ****         int MidY = 123;
ARM GAS  C:\Users\dufma\AppData\Local\Temp\cchFzDba.s 			page 3


  40:.\main.c      ****         
  41:.\main.c      ****         if(getJoyX() < 130 && getJoyX() > 125 && getJoyY() < 125 && getJoyY() > 120)
  76              		.loc 1 41 0
  77 0038 FFF7FEFF 		bl	getJoyX
  78              	.LVL10:
  79 003c 8128     		cmp	r0, #129
  80 003e 0EDC     		bgt	.L3
  81              		.loc 1 41 0 is_stmt 0 discriminator 1
  82 0040 FFF7FEFF 		bl	getJoyX
  83              	.LVL11:
  84 0044 7D28     		cmp	r0, #125
  85 0046 0ADD     		ble	.L3
  86              		.loc 1 41 0 discriminator 2
  87 0048 FFF7FEFF 		bl	getJoyY
  88              	.LVL12:
  89 004c 7C28     		cmp	r0, #124
  90 004e 06DC     		bgt	.L3
  91              		.loc 1 41 0 discriminator 3
  92 0050 FFF7FEFF 		bl	getJoyY
  93              	.LVL13:
  94 0054 7828     		cmp	r0, #120
  95 0056 02DD     		ble	.L3
  42:.\main.c      ****         {
  43:.\main.c      ****             motor_Stop();
  96              		.loc 1 43 0 is_stmt 1
  97 0058 FFF7FEFF 		bl	motor_Stop
  98              	.LVL14:
  99 005c E0E7     		b	.L2
 100              	.L3:
  44:.\main.c      ****         }
  45:.\main.c      ****         else if( getJoyX() < 140 && getJoyX() > 129 && getJoyY() > 123)
 101              		.loc 1 45 0
 102 005e FFF7FEFF 		bl	getJoyX
 103              	.LVL15:
 104 0062 8B28     		cmp	r0, #139
 105 0064 15DC     		bgt	.L5
 106              		.loc 1 45 0 is_stmt 0 discriminator 1
 107 0066 FFF7FEFF 		bl	getJoyX
 108              	.LVL16:
 109 006a 8128     		cmp	r0, #129
 110 006c 11DD     		ble	.L5
 111              		.loc 1 45 0 discriminator 2
 112 006e FFF7FEFF 		bl	getJoyY
 113              	.LVL17:
 114 0072 7B28     		cmp	r0, #123
 115 0074 0DDD     		ble	.L5
  46:.\main.c      ****         {
  47:.\main.c      ****             motor_Start();
 116              		.loc 1 47 0 is_stmt 1
 117 0076 FFF7FEFF 		bl	motor_Start
 118              	.LVL18:
  48:.\main.c      ****             motor_forward((getJoyY()-MidY)/2,2000);
 119              		.loc 1 48 0
 120 007a FFF7FEFF 		bl	getJoyY
 121              	.LVL19:
 122 007e 7B38     		subs	r0, r0, #123
 123 0080 00EBD070 		add	r0, r0, r0, lsr #31
ARM GAS  C:\Users\dufma\AppData\Local\Temp\cchFzDba.s 			page 4


 124 0084 C0F34700 		ubfx	r0, r0, #1, #8
 125 0088 4FF4FA61 		mov	r1, #2000
 126 008c FFF7FEFF 		bl	motor_forward
 127              	.LVL20:
 128 0090 C6E7     		b	.L2
 129              	.L5:
  49:.\main.c      ****         }
  50:.\main.c      ****         else if(getJoyX()<MidX && getJoyY() > MidY)
 130              		.loc 1 50 0
 131 0092 FFF7FEFF 		bl	getJoyX
 132              	.LVL21:
 133 0096 7F28     		cmp	r0, #127
 134 0098 16DC     		bgt	.L6
 135              		.loc 1 50 0 is_stmt 0 discriminator 1
 136 009a FFF7FEFF 		bl	getJoyY
 137              	.LVL22:
 138 009e 7B28     		cmp	r0, #123
 139 00a0 12DD     		ble	.L6
  51:.\main.c      ****         {
  52:.\main.c      ****             motor_Start();
 140              		.loc 1 52 0 is_stmt 1
 141 00a2 FFF7FEFF 		bl	motor_Start
 142              	.LVL23:
  53:.\main.c      ****             motor_turn((getJoyY()-MidY)/2,(MidX-getJoyX()),2000);
 143              		.loc 1 53 0
 144 00a6 FFF7FEFF 		bl	getJoyY
 145              	.LVL24:
 146 00aa 7B38     		subs	r0, r0, #123
 147 00ac 00EBD070 		add	r0, r0, r0, lsr #31
 148 00b0 4410     		asrs	r4, r0, #1
 149 00b2 FFF7FEFF 		bl	getJoyX
 150              	.LVL25:
 151 00b6 C0F18001 		rsb	r1, r0, #128
 152 00ba E0B2     		uxtb	r0, r4
 153 00bc C9B2     		uxtb	r1, r1
 154 00be 4FF4FA62 		mov	r2, #2000
 155 00c2 FFF7FEFF 		bl	motor_turn
 156              	.LVL26:
 157 00c6 ABE7     		b	.L2
 158              	.L6:
  54:.\main.c      ****         }
  55:.\main.c      ****         else if(getJoyX()>MidX && getJoyY() > MidY)
 159              		.loc 1 55 0
 160 00c8 FFF7FEFF 		bl	getJoyX
 161              	.LVL27:
 162 00cc 8028     		cmp	r0, #128
 163 00ce A7DD     		ble	.L2
 164              		.loc 1 55 0 is_stmt 0 discriminator 1
 165 00d0 FFF7FEFF 		bl	getJoyY
 166              	.LVL28:
 167 00d4 7B28     		cmp	r0, #123
 168 00d6 A3DD     		ble	.L2
  56:.\main.c      ****         {
  57:.\main.c      ****             motor_Start();
 169              		.loc 1 57 0 is_stmt 1
 170 00d8 FFF7FEFF 		bl	motor_Start
 171              	.LVL29:
ARM GAS  C:\Users\dufma\AppData\Local\Temp\cchFzDba.s 			page 5


  58:.\main.c      ****             motor_turn((getJoyX()-MidX),(getJoyY()-MidY)/2,2000);
 172              		.loc 1 58 0
 173 00dc FFF7FEFF 		bl	getJoyX
 174              	.LVL30:
 175 00e0 0446     		mov	r4, r0
 176 00e2 FFF7FEFF 		bl	getJoyY
 177              	.LVL31:
 178 00e6 7B38     		subs	r0, r0, #123
 179 00e8 00EBD071 		add	r1, r0, r0, lsr #31
 180 00ec A4F18000 		sub	r0, r4, #128
 181 00f0 C0B2     		uxtb	r0, r0
 182 00f2 C1F34701 		ubfx	r1, r1, #1, #8
 183 00f6 4FF4FA62 		mov	r2, #2000
 184 00fa FFF7FEFF 		bl	motor_turn
 185              	.LVL32:
 186 00fe 8FE7     		b	.L2
 187              	.L9:
 188              		.align	2
 189              	.L8:
 190 0100 00000000 		.word	.LC0
 191 0104 00000000 		.word	sensor_isr_handler
 192 0108 08000000 		.word	.LC1
 193              	.LBE2:
 194              		.cfi_endproc
 195              	.LFE63:
 196              		.size	main, .-main
 197              		.section	.text._write,"ax",%progbits
 198              		.align	2
 199              		.global	_write
 200              		.thumb
 201              		.thumb_func
 202              		.type	_write, %function
 203              	_write:
 204              	.LFB64:
  59:.\main.c      ****         }
  60:.\main.c      ****        
  61:.\main.c      ****         /* line tracing
  62:.\main.c      ****         reflectance_period();
  63:.\main.c      ****         ref_calibration(10000);
  64:.\main.c      ****         CyDelay(500);
  65:.\main.c      ****         //reflectance_digital();      //print out 0 or 1 according to results of reflectance period
  66:.\main.c      ****         printf("%d %d %d %d\r\n",getDLL(),getDLR(),getDRL(),getDRR());   
  67:.\main.c      ****       
  68:.\main.c      ****         
  69:.\main.c      ****         if(getDLR()==0 && getDRL()==0)
  70:.\main.c      ****         {
  71:.\main.c      ****             motor_Start();
  72:.\main.c      ****             motor_forward(50,2000);   
  73:.\main.c      ****         }
  74:.\main.c      ****         else if(getDLR()==1 && getDRL()==0)
  75:.\main.c      ****         {
  76:.\main.c      ****             motor_Start();
  77:.\main.c      ****             motor_turn(50,20,2000);   
  78:.\main.c      ****         }
  79:.\main.c      ****         else if(getDLR()==0 && getDRL()==1)
  80:.\main.c      ****         {
  81:.\main.c      ****             motor_Start();
ARM GAS  C:\Users\dufma\AppData\Local\Temp\cchFzDba.s 			page 6


  82:.\main.c      ****             motor_turn(20,50,2000);   
  83:.\main.c      ****         }
  84:.\main.c      ****         else
  85:.\main.c      ****             motor_Stop();
  86:.\main.c      ****          
  87:.\main.c      ****         */
  88:.\main.c      ****     }
  89:.\main.c      ****     
  90:.\main.c      ****     /* //reflectance//
  91:.\main.c      ****     ----------------------------------------------------
  92:.\main.c      ****     sensor_isr_StartEx(sensor_isr_handler);
  93:.\main.c      ****     
  94:.\main.c      ****     Refelctance_Start();
  95:.\main.c      **** 
  96:.\main.c      ****     IR_led_Write(1);
  97:.\main.c      ****     for(;;)
  98:.\main.c      ****     {
  99:.\main.c      ****         reflectance_period();      //print out each period of reflectance sensors
 100:.\main.c      ****         reflectance_digital();      //print out 0 or 1 according to results of reflectance period
 101:.\main.c      ****         
 102:.\main.c      ****         CyDelay(500);
 103:.\main.c      ****     }
 104:.\main.c      ****     ----------------------------------------------------*/
 105:.\main.c      ****     
 106:.\main.c      ****      /* //ultra//
 107:.\main.c      ****     ----------------------------------------------------
 108:.\main.c      ****     ultra_isr_StartEx(ultra_isr_handler);   // Ultra Sonic Interrupt
 109:.\main.c      ****     Ultra_Start();                          // Ultra Sonic Start function
 110:.\main.c      ****    
 111:.\main.c      ****     for(;;)
 112:.\main.c      ****     {       
 113:.\main.c      ****         CyDelay(100); 
 114:.\main.c      ****         Trig_Write(1);           // Trigger High
 115:.\main.c      ****         CyDelayUs(10);              // 10 micro seconds for trigger input signals
 116:.\main.c      ****         Trig_Write(0);           // Trigger Low
 117:.\main.c      ****     }
 118:.\main.c      ****     ----------------------------------------------------*/
 119:.\main.c      ****     
 120:.\main.c      ****      /* //motor//
 121:.\main.c      ****     ----------------------------------------------------
 122:.\main.c      ****     motor_Start();              // motor start
 123:.\main.c      **** 
 124:.\main.c      ****     motor_forward(50,2000);     // moving forward
 125:.\main.c      ****     motor_turn(20,50,2000);     // turn
 126:.\main.c      ****     motor_turn(50,20,2000);     // turn
 127:.\main.c      ****     motor_backward(50,2000);    // movinb backward
 128:.\main.c      ****        
 129:.\main.c      ****     motor_Stop();               // motor stop
 130:.\main.c      ****     
 131:.\main.c      ****     for(;;)
 132:.\main.c      ****     {
 133:.\main.c      **** 
 134:.\main.c      ****     }
 135:.\main.c      ****     ----------------------------------------------------*/
 136:.\main.c      ****     
 137:.\main.c      ****     
 138:.\main.c      ****     /*  //nunchuk//
ARM GAS  C:\Users\dufma\AppData\Local\Temp\cchFzDba.s 			page 7


 139:.\main.c      ****     ----------------------------------------------------
 140:.\main.c      ****     nunchuk_start();
 141:.\main.c      ****     nunchuk_init();
 142:.\main.c      ****     
 143:.\main.c      ****     for(;;)
 144:.\main.c      ****     {    
 145:.\main.c      ****         nunchuk_read();
 146:.\main.c      ****     }
 147:.\main.c      ****     ----------------------------------------------------*/
 148:.\main.c      ****     
 149:.\main.c      ****    
 150:.\main.c      ****     
 151:.\main.c      ****    
 152:.\main.c      **** }
 153:.\main.c      **** 
 154:.\main.c      **** 
 155:.\main.c      **** #if 0
 156:.\main.c      **** int rread(void)
 157:.\main.c      **** {
 158:.\main.c      ****     SC0_SetDriveMode(PIN_DM_STRONG);
 159:.\main.c      ****     SC0_Write(1);
 160:.\main.c      ****     CyDelayUs(10);
 161:.\main.c      ****     SC0_SetDriveMode(PIN_DM_DIG_HIZ);
 162:.\main.c      ****     Timer_1_Start();
 163:.\main.c      ****     uint16_t start = Timer_1_ReadCounter();
 164:.\main.c      ****     uint16_t end = 0;
 165:.\main.c      ****     while(!(Timer_1_ReadStatusRegister() & Timer_1_STATUS_TC)) {
 166:.\main.c      ****         if(SC0_Read() == 0 && end == 0) {
 167:.\main.c      ****             end = Timer_1_ReadCounter();
 168:.\main.c      ****         }
 169:.\main.c      ****     }
 170:.\main.c      ****     Timer_1_Stop();
 171:.\main.c      ****     
 172:.\main.c      ****     return (start - end);
 173:.\main.c      **** }
 174:.\main.c      **** #endif
 175:.\main.c      **** 
 176:.\main.c      **** int _write(int file, char *ptr, int len)
 177:.\main.c      **** {
 205              		.loc 1 177 0
 206              		.cfi_startproc
 207              		@ args = 0, pretend = 0, frame = 0
 208              		@ frame_needed = 0, uses_anonymous_args = 0
 209              	.LVL33:
 210 0000 70B5     		push	{r4, r5, r6, lr}
 211              		.cfi_def_cfa_offset 16
 212              		.cfi_offset 4, -16
 213              		.cfi_offset 5, -12
 214              		.cfi_offset 6, -8
 215              		.cfi_offset 14, -4
 216 0002 1646     		mov	r6, r2
 217              	.LVL34:
 178:.\main.c      ****     (void) file;
 179:.\main.c      **** 	int n;
 180:.\main.c      **** 	for(n = 0; n < len; n++) {
 218              		.loc 1 180 0
 219 0004 0024     		movs	r4, #0
ARM GAS  C:\Users\dufma\AppData\Local\Temp\cchFzDba.s 			page 8


 220 0006 05E0     		b	.L11
 221              	.LVL35:
 222              	.L12:
 181:.\main.c      **** 		UART_PutChar(*ptr++);
 223              		.loc 1 181 0 discriminator 3
 224 0008 4D1C     		adds	r5, r1, #1
 225              	.LVL36:
 226 000a 0878     		ldrb	r0, [r1]	@ zero_extendqisi2
 227 000c FFF7FEFF 		bl	UART_PutChar
 228              	.LVL37:
 180:.\main.c      **** 		UART_PutChar(*ptr++);
 229              		.loc 1 180 0 discriminator 3
 230 0010 0134     		adds	r4, r4, #1
 231              	.LVL38:
 232              		.loc 1 181 0 discriminator 3
 233 0012 2946     		mov	r1, r5
 234              	.LVL39:
 235              	.L11:
 180:.\main.c      **** 		UART_PutChar(*ptr++);
 236              		.loc 1 180 0 discriminator 1
 237 0014 B442     		cmp	r4, r6
 238 0016 F7DB     		blt	.L12
 182:.\main.c      **** 	}
 183:.\main.c      **** 	return len;
 184:.\main.c      **** }
 239              		.loc 1 184 0
 240 0018 3046     		mov	r0, r6
 241 001a 70BD     		pop	{r4, r5, r6, pc}
 242              		.cfi_endproc
 243              	.LFE64:
 244              		.size	_write, .-_write
 245              		.comm	digital_sensor_value,8,4
 246              		.comm	sensors,8,4
 247              		.comm	joy,8,4
 248              		.section	.rodata.str1.4,"aMS",%progbits,1
 249              		.align	2
 250              	.LC0:
 251 0000 53746172 		.ascii	"Start\015\000"
 251      740D00
 252 0007 00       		.space	1
 253              	.LC1:
 254 0008 25642025 		.ascii	"%d %d\015\012\000"
 254      640D0A00 
 255              		.text
 256              	.Letext0:
 257              		.file 2 "c:\\program files (x86)\\cypress\\psoc creator\\3.3\\psoc creator\\import\\gnu\\arm\\4.9.
 258              		.file 3 "c:\\program files (x86)\\cypress\\psoc creator\\3.3\\psoc creator\\import\\gnu\\arm\\4.9.
 259              		.file 4 "Generated_Source\\PSoC5/cytypes.h"
 260              		.file 5 ".\\nunchuk.h"
 261              		.file 6 ".\\Reflectance.h"
 262              		.file 7 "Generated_Source\\PSoC5/core_cm3.h"
 263              		.file 8 ".\\Motor.h"
 264              		.file 9 "Generated_Source\\PSoC5/sensor_isr.h"
 265              		.file 10 "Generated_Source\\PSoC5/UART.h"
 266              		.file 11 "c:\\program files (x86)\\cypress\\psoc creator\\3.3\\psoc creator\\import\\gnu\\arm\\4.9
 267              		.file 12 "<built-in>"