ARM GAS  C:\Users\dufma\AppData\Local\Temp\ccDh9sEr.s 			page 1


   1              		.syntax unified
   2              		.cpu cortex-m3
   3              		.fpu softvfp
   4              		.eabi_attribute 20, 1
   5              		.eabi_attribute 21, 1
   6              		.eabi_attribute 23, 3
   7              		.eabi_attribute 24, 1
   8              		.eabi_attribute 25, 1
   9              		.eabi_attribute 26, 1
  10              		.eabi_attribute 30, 1
  11              		.eabi_attribute 34, 1
  12              		.eabi_attribute 18, 4
  13              		.thumb
  14              		.file	"Reflectance.c"
  15              		.text
  16              	.Ltext0:
  17              		.cfi_sections	.debug_frame
  18              		.section	.text.sensor_isr_handler,"ax",%progbits
  19              		.align	2
  20              		.global	sensor_isr_handler
  21              		.thumb
  22              		.thumb_func
  23              		.type	sensor_isr_handler, %function
  24              	sensor_isr_handler:
  25              	.LFB63:
  26              		.file 1 ".\\Reflectance.c"
   1:.\Reflectance.c **** /* ========================================
   2:.\Reflectance.c ****  *
   3:.\Reflectance.c ****  * Copyright YOUR COMPANY, THE YEAR
   4:.\Reflectance.c ****  * All Rights Reserved
   5:.\Reflectance.c ****  * UNPUBLISHED, LICENSED SOFTWARE.
   6:.\Reflectance.c ****  *
   7:.\Reflectance.c ****  * CONFIDENTIAL AND PROPRIETARY INFORMATION
   8:.\Reflectance.c ****  * WHICH IS THE PROPERTY OF your company.
   9:.\Reflectance.c ****  *
  10:.\Reflectance.c ****  * ========================================
  11:.\Reflectance.c **** */
  12:.\Reflectance.c **** 
  13:.\Reflectance.c **** #include "Reflectance.h"
  14:.\Reflectance.c **** 
  15:.\Reflectance.c **** 
  16:.\Reflectance.c **** CY_ISR(sensor_isr_handler)
  17:.\Reflectance.c **** {
  27              		.loc 1 17 0
  28              		.cfi_startproc
  29              		@ args = 0, pretend = 0, frame = 0
  30              		@ frame_needed = 0, uses_anonymous_args = 0
  31 0000 F8B5     		push	{r3, r4, r5, r6, r7, lr}
  32              		.cfi_def_cfa_offset 24
  33              		.cfi_offset 3, -24
  34              		.cfi_offset 4, -20
  35              		.cfi_offset 5, -16
  36              		.cfi_offset 6, -12
  37              		.cfi_offset 7, -8
  38              		.cfi_offset 14, -4
  18:.\Reflectance.c ****     uint32_t statusRL = Timer_RL_ReadStatusRegister();
  39              		.loc 1 18 0
ARM GAS  C:\Users\dufma\AppData\Local\Temp\ccDh9sEr.s 			page 2


  40 0002 FFF7FEFF 		bl	Timer_RL_ReadStatusRegister
  41              	.LVL0:
  42 0006 0446     		mov	r4, r0
  43              	.LVL1:
  19:.\Reflectance.c ****     uint32_t statusRR = Timer_RR_ReadStatusRegister();
  44              		.loc 1 19 0
  45 0008 FFF7FEFF 		bl	Timer_RR_ReadStatusRegister
  46              	.LVL2:
  47 000c 0746     		mov	r7, r0
  48              	.LVL3:
  20:.\Reflectance.c ****     uint32_t statusLL = Timer_LL_ReadStatusRegister();
  49              		.loc 1 20 0
  50 000e FFF7FEFF 		bl	Timer_LL_ReadStatusRegister
  51              	.LVL4:
  52 0012 0646     		mov	r6, r0
  53              	.LVL5:
  21:.\Reflectance.c ****     uint32_t statusLR = Timer_LR_ReadStatusRegister();
  54              		.loc 1 21 0
  55 0014 FFF7FEFF 		bl	Timer_LR_ReadStatusRegister
  56              	.LVL6:
  57 0018 0546     		mov	r5, r0
  58              	.LVL7:
  22:.\Reflectance.c **** 
  23:.\Reflectance.c ****     if(statusRL & Timer_RL_STATUS_CAPTURE) {
  59              		.loc 1 23 0
  60 001a 14F0400F 		tst	r4, #64
  61 001e 09D0     		beq	.L2
  24:.\Reflectance.c ****         sensors.rl = Timer_RL_ReadPeriod() - Timer_RL_ReadCapture();
  62              		.loc 1 24 0
  63 0020 FFF7FEFF 		bl	Timer_RL_ReadPeriod
  64              	.LVL8:
  65 0024 0446     		mov	r4, r0
  66              	.LVL9:
  67 0026 FFF7FEFF 		bl	Timer_RL_ReadCapture
  68              	.LVL10:
  69 002a 201A     		subs	r0, r4, r0
  70 002c 80B2     		uxth	r0, r0
  71 002e 314B     		ldr	r3, .L11
  72 0030 9880     		strh	r0, [r3, #4]	@ movhi
  73 0032 03E0     		b	.L3
  74              	.LVL11:
  75              	.L2:
  25:.\Reflectance.c ****     }
  26:.\Reflectance.c ****     else {
  27:.\Reflectance.c ****         sensors.rl = Timer_RL_ReadPeriod();
  76              		.loc 1 27 0
  77 0034 FFF7FEFF 		bl	Timer_RL_ReadPeriod
  78              	.LVL12:
  79 0038 2E4B     		ldr	r3, .L11
  80 003a 9880     		strh	r0, [r3, #4]	@ movhi
  81              	.LVL13:
  82              	.L3:
  28:.\Reflectance.c ****     }
  29:.\Reflectance.c ****     
  30:.\Reflectance.c ****     if(statusRR & Timer_RR_STATUS_CAPTURE) {
  83              		.loc 1 30 0
  84 003c 17F0400F 		tst	r7, #64
ARM GAS  C:\Users\dufma\AppData\Local\Temp\ccDh9sEr.s 			page 3


  85 0040 09D0     		beq	.L4
  31:.\Reflectance.c ****         sensors.rr = Timer_RR_ReadPeriod() - Timer_RR_ReadCapture();
  86              		.loc 1 31 0
  87 0042 FFF7FEFF 		bl	Timer_RR_ReadPeriod
  88              	.LVL14:
  89 0046 0446     		mov	r4, r0
  90 0048 FFF7FEFF 		bl	Timer_RR_ReadCapture
  91              	.LVL15:
  92 004c 201A     		subs	r0, r4, r0
  93 004e 80B2     		uxth	r0, r0
  94 0050 284B     		ldr	r3, .L11
  95 0052 D880     		strh	r0, [r3, #6]	@ movhi
  96 0054 03E0     		b	.L5
  97              	.L4:
  32:.\Reflectance.c ****     }
  33:.\Reflectance.c ****     else {
  34:.\Reflectance.c ****         sensors.rr = Timer_RR_ReadPeriod();
  98              		.loc 1 34 0
  99 0056 FFF7FEFF 		bl	Timer_RR_ReadPeriod
 100              	.LVL16:
 101 005a 264B     		ldr	r3, .L11
 102 005c D880     		strh	r0, [r3, #6]	@ movhi
 103              	.L5:
  35:.\Reflectance.c ****     }
  36:.\Reflectance.c ****     
  37:.\Reflectance.c ****     if(statusLL & Timer_LL_STATUS_CAPTURE) {
 104              		.loc 1 37 0
 105 005e 16F0400F 		tst	r6, #64
 106 0062 09D0     		beq	.L6
  38:.\Reflectance.c ****         sensors.ll = Timer_LL_ReadPeriod() - Timer_LL_ReadCapture();
 107              		.loc 1 38 0
 108 0064 FFF7FEFF 		bl	Timer_LL_ReadPeriod
 109              	.LVL17:
 110 0068 0446     		mov	r4, r0
 111 006a FFF7FEFF 		bl	Timer_LL_ReadCapture
 112              	.LVL18:
 113 006e 201A     		subs	r0, r4, r0
 114 0070 80B2     		uxth	r0, r0
 115 0072 204B     		ldr	r3, .L11
 116 0074 1880     		strh	r0, [r3]	@ movhi
 117 0076 03E0     		b	.L7
 118              	.L6:
  39:.\Reflectance.c ****     }
  40:.\Reflectance.c ****     else {
  41:.\Reflectance.c ****         sensors.ll = Timer_LL_ReadPeriod();
 119              		.loc 1 41 0
 120 0078 FFF7FEFF 		bl	Timer_LL_ReadPeriod
 121              	.LVL19:
 122 007c 1D4B     		ldr	r3, .L11
 123 007e 1880     		strh	r0, [r3]	@ movhi
 124              	.L7:
  42:.\Reflectance.c ****     }
  43:.\Reflectance.c ****     
  44:.\Reflectance.c ****     if(statusLR & Timer_LR_STATUS_CAPTURE) {
 125              		.loc 1 44 0
 126 0080 15F0400F 		tst	r5, #64
 127 0084 09D0     		beq	.L8
ARM GAS  C:\Users\dufma\AppData\Local\Temp\ccDh9sEr.s 			page 4


  45:.\Reflectance.c ****         sensors.lr = Timer_LR_ReadPeriod() - Timer_LR_ReadCapture();
 128              		.loc 1 45 0
 129 0086 FFF7FEFF 		bl	Timer_LR_ReadPeriod
 130              	.LVL20:
 131 008a 0446     		mov	r4, r0
 132 008c FFF7FEFF 		bl	Timer_LR_ReadCapture
 133              	.LVL21:
 134 0090 201A     		subs	r0, r4, r0
 135 0092 80B2     		uxth	r0, r0
 136 0094 174B     		ldr	r3, .L11
 137 0096 5880     		strh	r0, [r3, #2]	@ movhi
 138 0098 03E0     		b	.L9
 139              	.L8:
  46:.\Reflectance.c ****     }
  47:.\Reflectance.c ****     else {
  48:.\Reflectance.c ****         sensors.lr = Timer_LR_ReadPeriod();
 140              		.loc 1 48 0
 141 009a FFF7FEFF 		bl	Timer_LR_ReadPeriod
 142              	.LVL22:
 143 009e 154B     		ldr	r3, .L11
 144 00a0 5880     		strh	r0, [r3, #2]	@ movhi
 145              	.L9:
  49:.\Reflectance.c ****     }
  50:.\Reflectance.c ****     
  51:.\Reflectance.c ****     RL_SetDriveMode(PIN_DM_STRONG);
 146              		.loc 1 51 0
 147 00a2 0C20     		movs	r0, #12
 148 00a4 FFF7FEFF 		bl	RL_SetDriveMode
 149              	.LVL23:
  52:.\Reflectance.c ****     RL_Write(1);
 150              		.loc 1 52 0
 151 00a8 0120     		movs	r0, #1
 152 00aa FFF7FEFF 		bl	RL_Write
 153              	.LVL24:
  53:.\Reflectance.c ****     RR_SetDriveMode(PIN_DM_STRONG);
 154              		.loc 1 53 0
 155 00ae 0C20     		movs	r0, #12
 156 00b0 FFF7FEFF 		bl	RR_SetDriveMode
 157              	.LVL25:
  54:.\Reflectance.c ****     RR_Write(1);
 158              		.loc 1 54 0
 159 00b4 0120     		movs	r0, #1
 160 00b6 FFF7FEFF 		bl	RR_Write
 161              	.LVL26:
  55:.\Reflectance.c ****     LL_SetDriveMode(PIN_DM_STRONG);
 162              		.loc 1 55 0
 163 00ba 0C20     		movs	r0, #12
 164 00bc FFF7FEFF 		bl	LL_SetDriveMode
 165              	.LVL27:
  56:.\Reflectance.c ****     LL_Write(1);
 166              		.loc 1 56 0
 167 00c0 0120     		movs	r0, #1
 168 00c2 FFF7FEFF 		bl	LL_Write
 169              	.LVL28:
  57:.\Reflectance.c ****     LR_SetDriveMode(PIN_DM_STRONG);
 170              		.loc 1 57 0
 171 00c6 0C20     		movs	r0, #12
ARM GAS  C:\Users\dufma\AppData\Local\Temp\ccDh9sEr.s 			page 5


 172 00c8 FFF7FEFF 		bl	LR_SetDriveMode
 173              	.LVL29:
  58:.\Reflectance.c ****     LR_Write(1);
 174              		.loc 1 58 0
 175 00cc 0120     		movs	r0, #1
 176 00ce FFF7FEFF 		bl	LR_Write
 177              	.LVL30:
  59:.\Reflectance.c ****     CyDelayUs(10);
 178              		.loc 1 59 0
 179 00d2 0A20     		movs	r0, #10
 180 00d4 FFF7FEFF 		bl	CyDelayUs
 181              	.LVL31:
  60:.\Reflectance.c ****     RL_SetDriveMode(PIN_DM_DIG_HIZ);
 182              		.loc 1 60 0
 183 00d8 0220     		movs	r0, #2
 184 00da FFF7FEFF 		bl	RL_SetDriveMode
 185              	.LVL32:
  61:.\Reflectance.c ****     RR_SetDriveMode(PIN_DM_DIG_HIZ);
 186              		.loc 1 61 0
 187 00de 0220     		movs	r0, #2
 188 00e0 FFF7FEFF 		bl	RR_SetDriveMode
 189              	.LVL33:
  62:.\Reflectance.c ****     LL_SetDriveMode(PIN_DM_DIG_HIZ);
 190              		.loc 1 62 0
 191 00e4 0220     		movs	r0, #2
 192 00e6 FFF7FEFF 		bl	LL_SetDriveMode
 193              	.LVL34:
  63:.\Reflectance.c ****     LR_SetDriveMode(PIN_DM_DIG_HIZ);
 194              		.loc 1 63 0
 195 00ea 0220     		movs	r0, #2
 196 00ec FFF7FEFF 		bl	LR_SetDriveMode
 197              	.LVL35:
 198 00f0 F8BD     		pop	{r3, r4, r5, r6, r7, pc}
 199              	.LVL36:
 200              	.L12:
 201 00f2 00BF     		.align	2
 202              	.L11:
 203 00f4 00000000 		.word	sensors
 204              		.cfi_endproc
 205              	.LFE63:
 206              		.size	sensor_isr_handler, .-sensor_isr_handler
 207              		.section	.text.Refelctance_Start,"ax",%progbits
 208              		.align	2
 209              		.global	Refelctance_Start
 210              		.thumb
 211              		.thumb_func
 212              		.type	Refelctance_Start, %function
 213              	Refelctance_Start:
 214              	.LFB64:
  64:.\Reflectance.c ****         
  65:.\Reflectance.c **** }
  66:.\Reflectance.c **** void Refelctance_Start()
  67:.\Reflectance.c **** {
 215              		.loc 1 67 0
 216              		.cfi_startproc
 217              		@ args = 0, pretend = 0, frame = 0
 218              		@ frame_needed = 0, uses_anonymous_args = 0
ARM GAS  C:\Users\dufma\AppData\Local\Temp\ccDh9sEr.s 			page 6


 219 0000 08B5     		push	{r3, lr}
 220              		.cfi_def_cfa_offset 8
 221              		.cfi_offset 3, -8
 222              		.cfi_offset 14, -4
  68:.\Reflectance.c ****     Timer_RL_Start();
 223              		.loc 1 68 0
 224 0002 FFF7FEFF 		bl	Timer_RL_Start
 225              	.LVL37:
  69:.\Reflectance.c ****     Timer_RR_Start();
 226              		.loc 1 69 0
 227 0006 FFF7FEFF 		bl	Timer_RR_Start
 228              	.LVL38:
  70:.\Reflectance.c ****     Timer_LL_Start();
 229              		.loc 1 70 0
 230 000a FFF7FEFF 		bl	Timer_LL_Start
 231              	.LVL39:
  71:.\Reflectance.c ****     Timer_LR_Start();
 232              		.loc 1 71 0
 233 000e FFF7FEFF 		bl	Timer_LR_Start
 234              	.LVL40:
 235 0012 08BD     		pop	{r3, pc}
 236              		.cfi_endproc
 237              	.LFE64:
 238              		.size	Refelctance_Start, .-Refelctance_Start
 239              		.section	.text.reflectance_period,"ax",%progbits
 240              		.align	2
 241              		.global	reflectance_period
 242              		.thumb
 243              		.thumb_func
 244              		.type	reflectance_period, %function
 245              	reflectance_period:
 246              	.LFB65:
  72:.\Reflectance.c **** }
  73:.\Reflectance.c **** 
  74:.\Reflectance.c **** void reflectance_period()
  75:.\Reflectance.c **** {
 247              		.loc 1 75 0
 248              		.cfi_startproc
 249              		@ args = 0, pretend = 0, frame = 0
 250              		@ frame_needed = 0, uses_anonymous_args = 0
 251 0000 00B5     		push	{lr}
 252              		.cfi_def_cfa_offset 4
 253              		.cfi_offset 14, -4
 254 0002 83B0     		sub	sp, sp, #12
 255              		.cfi_def_cfa_offset 16
  76:.\Reflectance.c ****      printf("%d %d %d %d \t", sensors.ll, sensors.lr, sensors.rl, sensors.rr); 
 256              		.loc 1 76 0
 257 0004 0748     		ldr	r0, .L17
 258 0006 0188     		ldrh	r1, [r0]
 259 0008 4288     		ldrh	r2, [r0, #2]
 260 000a 8388     		ldrh	r3, [r0, #4]
 261 000c C088     		ldrh	r0, [r0, #6]
 262 000e 80B2     		uxth	r0, r0
 263 0010 0090     		str	r0, [sp]
 264 0012 0548     		ldr	r0, .L17+4
 265 0014 89B2     		uxth	r1, r1
 266 0016 92B2     		uxth	r2, r2
ARM GAS  C:\Users\dufma\AppData\Local\Temp\ccDh9sEr.s 			page 7


 267 0018 9BB2     		uxth	r3, r3
 268 001a FFF7FEFF 		bl	printf
 269              	.LVL41:
  77:.\Reflectance.c **** }
 270              		.loc 1 77 0
 271 001e 03B0     		add	sp, sp, #12
 272              		.cfi_def_cfa_offset 4
 273              		@ sp needed
 274 0020 5DF804FB 		ldr	pc, [sp], #4
 275              	.L18:
 276              		.align	2
 277              	.L17:
 278 0024 00000000 		.word	sensors
 279 0028 00000000 		.word	.LC0
 280              		.cfi_endproc
 281              	.LFE65:
 282              		.size	reflectance_period, .-reflectance_period
 283              		.section	.text.reflectance_digital,"ax",%progbits
 284              		.align	2
 285              		.global	reflectance_digital
 286              		.thumb
 287              		.thumb_func
 288              		.type	reflectance_digital, %function
 289              	reflectance_digital:
 290              	.LFB66:
  78:.\Reflectance.c **** 
  79:.\Reflectance.c **** void reflectance_digital()
  80:.\Reflectance.c **** {
 291              		.loc 1 80 0
 292              		.cfi_startproc
 293              		@ args = 0, pretend = 0, frame = 0
 294              		@ frame_needed = 0, uses_anonymous_args = 0
 295              		@ link register save eliminated.
  81:.\Reflectance.c ****     //if the results of reflectance_period function is over 10000, set digital_sensor_value to 0, w
  82:.\Reflectance.c ****     if(sensors.ll > 10000)
 296              		.loc 1 82 0
 297 0000 1C4B     		ldr	r3, .L28
 298 0002 1B88     		ldrh	r3, [r3]
 299 0004 9BB2     		uxth	r3, r3
 300 0006 42F21072 		movw	r2, #10000
 301 000a 9342     		cmp	r3, r2
 302 000c 03D9     		bls	.L20
  83:.\Reflectance.c ****         digital_sensor_value.ll  = 0;
 303              		.loc 1 83 0
 304 000e 0022     		movs	r2, #0
 305 0010 194B     		ldr	r3, .L28+4
 306 0012 1A80     		strh	r2, [r3]	@ movhi
 307 0014 02E0     		b	.L21
 308              	.L20:
  84:.\Reflectance.c ****     else
  85:.\Reflectance.c ****         digital_sensor_value.ll  = 1;
 309              		.loc 1 85 0
 310 0016 0122     		movs	r2, #1
 311 0018 174B     		ldr	r3, .L28+4
 312 001a 1A80     		strh	r2, [r3]	@ movhi
 313              	.L21:
  86:.\Reflectance.c ****     if(sensors.lr > 10000)
ARM GAS  C:\Users\dufma\AppData\Local\Temp\ccDh9sEr.s 			page 8


 314              		.loc 1 86 0
 315 001c 154B     		ldr	r3, .L28
 316 001e 5B88     		ldrh	r3, [r3, #2]
 317 0020 9BB2     		uxth	r3, r3
 318 0022 42F21072 		movw	r2, #10000
 319 0026 9342     		cmp	r3, r2
 320 0028 03D9     		bls	.L22
  87:.\Reflectance.c ****         digital_sensor_value.lr  = 0;
 321              		.loc 1 87 0
 322 002a 0022     		movs	r2, #0
 323 002c 124B     		ldr	r3, .L28+4
 324 002e 5A80     		strh	r2, [r3, #2]	@ movhi
 325 0030 02E0     		b	.L23
 326              	.L22:
  88:.\Reflectance.c ****     else
  89:.\Reflectance.c ****         digital_sensor_value.lr  = 1;
 327              		.loc 1 89 0
 328 0032 0122     		movs	r2, #1
 329 0034 104B     		ldr	r3, .L28+4
 330 0036 5A80     		strh	r2, [r3, #2]	@ movhi
 331              	.L23:
  90:.\Reflectance.c ****     if(sensors.rl > 10000)
 332              		.loc 1 90 0
 333 0038 0E4B     		ldr	r3, .L28
 334 003a 9B88     		ldrh	r3, [r3, #4]
 335 003c 9BB2     		uxth	r3, r3
 336 003e 42F21072 		movw	r2, #10000
 337 0042 9342     		cmp	r3, r2
 338 0044 03D9     		bls	.L24
  91:.\Reflectance.c ****         digital_sensor_value.rl  = 0;
 339              		.loc 1 91 0
 340 0046 0022     		movs	r2, #0
 341 0048 0B4B     		ldr	r3, .L28+4
 342 004a 9A80     		strh	r2, [r3, #4]	@ movhi
 343 004c 02E0     		b	.L25
 344              	.L24:
  92:.\Reflectance.c ****     else
  93:.\Reflectance.c ****         digital_sensor_value.rl  = 1;
 345              		.loc 1 93 0
 346 004e 0122     		movs	r2, #1
 347 0050 094B     		ldr	r3, .L28+4
 348 0052 9A80     		strh	r2, [r3, #4]	@ movhi
 349              	.L25:
  94:.\Reflectance.c ****     if(sensors.rr > 10000)
 350              		.loc 1 94 0
 351 0054 074B     		ldr	r3, .L28
 352 0056 DB88     		ldrh	r3, [r3, #6]
 353 0058 9BB2     		uxth	r3, r3
 354 005a 42F21072 		movw	r2, #10000
 355 005e 9342     		cmp	r3, r2
 356 0060 03D9     		bls	.L26
  95:.\Reflectance.c ****         digital_sensor_value.rr  = 0;
 357              		.loc 1 95 0
 358 0062 0022     		movs	r2, #0
 359 0064 044B     		ldr	r3, .L28+4
 360 0066 DA80     		strh	r2, [r3, #6]	@ movhi
 361 0068 7047     		bx	lr
ARM GAS  C:\Users\dufma\AppData\Local\Temp\ccDh9sEr.s 			page 9


 362              	.L26:
  96:.\Reflectance.c ****     else
  97:.\Reflectance.c ****         digital_sensor_value.rr  = 1;
 363              		.loc 1 97 0
 364 006a 0122     		movs	r2, #1
 365 006c 024B     		ldr	r3, .L28+4
 366 006e DA80     		strh	r2, [r3, #6]	@ movhi
 367 0070 7047     		bx	lr
 368              	.L29:
 369 0072 00BF     		.align	2
 370              	.L28:
 371 0074 00000000 		.word	sensors
 372 0078 00000000 		.word	digital_sensor_value
 373              		.cfi_endproc
 374              	.LFE66:
 375              		.size	reflectance_digital, .-reflectance_digital
 376              		.section	.text.ref_calibration,"ax",%progbits
 377              		.align	2
 378              		.global	ref_calibration
 379              		.thumb
 380              		.thumb_func
 381              		.type	ref_calibration, %function
 382              	ref_calibration:
 383              	.LFB67:
  98:.\Reflectance.c ****         
  99:.\Reflectance.c ****    //print out the results
 100:.\Reflectance.c **** // printf("%d %d %d %d \t", digital_sensor_value.ll, digital_sensor_value.lr, digital_sensor_value.
 101:.\Reflectance.c **** }
 102:.\Reflectance.c **** 
 103:.\Reflectance.c **** /////////////////////////////////////////////////////////////////////
 104:.\Reflectance.c **** 
 105:.\Reflectance.c **** void ref_calibration(int dark)
 106:.\Reflectance.c **** {
 384              		.loc 1 106 0
 385              		.cfi_startproc
 386              		@ args = 0, pretend = 0, frame = 0
 387              		@ frame_needed = 0, uses_anonymous_args = 0
 388              		@ link register save eliminated.
 389              	.LVL42:
 107:.\Reflectance.c ****     if(sensors.ll > dark)
 390              		.loc 1 107 0
 391 0000 184B     		ldr	r3, .L39
 392 0002 1B88     		ldrh	r3, [r3]
 393 0004 9BB2     		uxth	r3, r3
 394 0006 8342     		cmp	r3, r0
 395 0008 03DD     		ble	.L31
 108:.\Reflectance.c ****         digital_sensor_value.ll  = 0;
 396              		.loc 1 108 0
 397 000a 0022     		movs	r2, #0
 398 000c 164B     		ldr	r3, .L39+4
 399 000e 1A80     		strh	r2, [r3]	@ movhi
 400 0010 02E0     		b	.L32
 401              	.L31:
 109:.\Reflectance.c ****     else
 110:.\Reflectance.c ****         digital_sensor_value.ll  = 1;
 402              		.loc 1 110 0
 403 0012 0122     		movs	r2, #1
ARM GAS  C:\Users\dufma\AppData\Local\Temp\ccDh9sEr.s 			page 10


 404 0014 144B     		ldr	r3, .L39+4
 405 0016 1A80     		strh	r2, [r3]	@ movhi
 406              	.L32:
 111:.\Reflectance.c ****     if(sensors.lr > dark)
 407              		.loc 1 111 0
 408 0018 124B     		ldr	r3, .L39
 409 001a 5B88     		ldrh	r3, [r3, #2]
 410 001c 9BB2     		uxth	r3, r3
 411 001e 8342     		cmp	r3, r0
 412 0020 03DD     		ble	.L33
 112:.\Reflectance.c ****         digital_sensor_value.lr  = 0;
 413              		.loc 1 112 0
 414 0022 0022     		movs	r2, #0
 415 0024 104B     		ldr	r3, .L39+4
 416 0026 5A80     		strh	r2, [r3, #2]	@ movhi
 417 0028 02E0     		b	.L34
 418              	.L33:
 113:.\Reflectance.c ****     else
 114:.\Reflectance.c ****         digital_sensor_value.lr  = 1;
 419              		.loc 1 114 0
 420 002a 0122     		movs	r2, #1
 421 002c 0E4B     		ldr	r3, .L39+4
 422 002e 5A80     		strh	r2, [r3, #2]	@ movhi
 423              	.L34:
 115:.\Reflectance.c ****     if(sensors.rl > dark)
 424              		.loc 1 115 0
 425 0030 0C4B     		ldr	r3, .L39
 426 0032 9B88     		ldrh	r3, [r3, #4]
 427 0034 9BB2     		uxth	r3, r3
 428 0036 8342     		cmp	r3, r0
 429 0038 03DD     		ble	.L35
 116:.\Reflectance.c ****         digital_sensor_value.rl  = 0;
 430              		.loc 1 116 0
 431 003a 0022     		movs	r2, #0
 432 003c 0A4B     		ldr	r3, .L39+4
 433 003e 9A80     		strh	r2, [r3, #4]	@ movhi
 434 0040 02E0     		b	.L36
 435              	.L35:
 117:.\Reflectance.c ****     else
 118:.\Reflectance.c ****         digital_sensor_value.rl  = 1;
 436              		.loc 1 118 0
 437 0042 0122     		movs	r2, #1
 438 0044 084B     		ldr	r3, .L39+4
 439 0046 9A80     		strh	r2, [r3, #4]	@ movhi
 440              	.L36:
 119:.\Reflectance.c ****     if(sensors.rr > dark)
 441              		.loc 1 119 0
 442 0048 064B     		ldr	r3, .L39
 443 004a DB88     		ldrh	r3, [r3, #6]
 444 004c 9BB2     		uxth	r3, r3
 445 004e 8342     		cmp	r3, r0
 446 0050 03DD     		ble	.L37
 120:.\Reflectance.c ****         digital_sensor_value.rr  = 0;
 447              		.loc 1 120 0
 448 0052 0022     		movs	r2, #0
 449 0054 044B     		ldr	r3, .L39+4
 450 0056 DA80     		strh	r2, [r3, #6]	@ movhi
ARM GAS  C:\Users\dufma\AppData\Local\Temp\ccDh9sEr.s 			page 11


 451 0058 7047     		bx	lr
 452              	.L37:
 121:.\Reflectance.c ****     else
 122:.\Reflectance.c ****         digital_sensor_value.rr  = 1;
 453              		.loc 1 122 0
 454 005a 0122     		movs	r2, #1
 455 005c 024B     		ldr	r3, .L39+4
 456 005e DA80     		strh	r2, [r3, #6]	@ movhi
 457 0060 7047     		bx	lr
 458              	.L40:
 459 0062 00BF     		.align	2
 460              	.L39:
 461 0064 00000000 		.word	sensors
 462 0068 00000000 		.word	digital_sensor_value
 463              		.cfi_endproc
 464              	.LFE67:
 465              		.size	ref_calibration, .-ref_calibration
 466              		.section	.text.getDLL,"ax",%progbits
 467              		.align	2
 468              		.global	getDLL
 469              		.thumb
 470              		.thumb_func
 471              		.type	getDLL, %function
 472              	getDLL:
 473              	.LFB68:
 123:.\Reflectance.c **** }
 124:.\Reflectance.c **** 
 125:.\Reflectance.c **** int getDLL()
 126:.\Reflectance.c **** {
 474              		.loc 1 126 0
 475              		.cfi_startproc
 476              		@ args = 0, pretend = 0, frame = 0
 477              		@ frame_needed = 0, uses_anonymous_args = 0
 478              		@ link register save eliminated.
 127:.\Reflectance.c ****     return digital_sensor_value.ll;
 479              		.loc 1 127 0
 480 0000 014B     		ldr	r3, .L42
 481 0002 1888     		ldrh	r0, [r3]
 128:.\Reflectance.c **** }
 482              		.loc 1 128 0
 483 0004 80B2     		uxth	r0, r0
 484 0006 7047     		bx	lr
 485              	.L43:
 486              		.align	2
 487              	.L42:
 488 0008 00000000 		.word	digital_sensor_value
 489              		.cfi_endproc
 490              	.LFE68:
 491              		.size	getDLL, .-getDLL
 492              		.section	.text.getDLR,"ax",%progbits
 493              		.align	2
 494              		.global	getDLR
 495              		.thumb
 496              		.thumb_func
 497              		.type	getDLR, %function
 498              	getDLR:
 499              	.LFB69:
ARM GAS  C:\Users\dufma\AppData\Local\Temp\ccDh9sEr.s 			page 12


 129:.\Reflectance.c **** int getDLR()
 130:.\Reflectance.c **** {
 500              		.loc 1 130 0
 501              		.cfi_startproc
 502              		@ args = 0, pretend = 0, frame = 0
 503              		@ frame_needed = 0, uses_anonymous_args = 0
 504              		@ link register save eliminated.
 131:.\Reflectance.c ****     return digital_sensor_value.lr;
 505              		.loc 1 131 0
 506 0000 014B     		ldr	r3, .L45
 507 0002 5888     		ldrh	r0, [r3, #2]
 132:.\Reflectance.c **** }
 508              		.loc 1 132 0
 509 0004 80B2     		uxth	r0, r0
 510 0006 7047     		bx	lr
 511              	.L46:
 512              		.align	2
 513              	.L45:
 514 0008 00000000 		.word	digital_sensor_value
 515              		.cfi_endproc
 516              	.LFE69:
 517              		.size	getDLR, .-getDLR
 518              		.section	.text.getDRL,"ax",%progbits
 519              		.align	2
 520              		.global	getDRL
 521              		.thumb
 522              		.thumb_func
 523              		.type	getDRL, %function
 524              	getDRL:
 525              	.LFB70:
 133:.\Reflectance.c **** int getDRL()
 134:.\Reflectance.c **** {
 526              		.loc 1 134 0
 527              		.cfi_startproc
 528              		@ args = 0, pretend = 0, frame = 0
 529              		@ frame_needed = 0, uses_anonymous_args = 0
 530              		@ link register save eliminated.
 135:.\Reflectance.c ****     return digital_sensor_value.rl;
 531              		.loc 1 135 0
 532 0000 014B     		ldr	r3, .L48
 533 0002 9888     		ldrh	r0, [r3, #4]
 136:.\Reflectance.c **** }
 534              		.loc 1 136 0
 535 0004 80B2     		uxth	r0, r0
 536 0006 7047     		bx	lr
 537              	.L49:
 538              		.align	2
 539              	.L48:
 540 0008 00000000 		.word	digital_sensor_value
 541              		.cfi_endproc
 542              	.LFE70:
 543              		.size	getDRL, .-getDRL
 544              		.section	.text.getDRR,"ax",%progbits
 545              		.align	2
 546              		.global	getDRR
 547              		.thumb
 548              		.thumb_func
ARM GAS  C:\Users\dufma\AppData\Local\Temp\ccDh9sEr.s 			page 13


 549              		.type	getDRR, %function
 550              	getDRR:
 551              	.LFB71:
 137:.\Reflectance.c **** int getDRR()
 138:.\Reflectance.c **** {
 552              		.loc 1 138 0
 553              		.cfi_startproc
 554              		@ args = 0, pretend = 0, frame = 0
 555              		@ frame_needed = 0, uses_anonymous_args = 0
 556              		@ link register save eliminated.
 139:.\Reflectance.c ****     return digital_sensor_value.rr;
 557              		.loc 1 139 0
 558 0000 014B     		ldr	r3, .L51
 559 0002 D888     		ldrh	r0, [r3, #6]
 140:.\Reflectance.c **** }
 560              		.loc 1 140 0
 561 0004 80B2     		uxth	r0, r0
 562 0006 7047     		bx	lr
 563              	.L52:
 564              		.align	2
 565              	.L51:
 566 0008 00000000 		.word	digital_sensor_value
 567              		.cfi_endproc
 568              	.LFE71:
 569              		.size	getDRR, .-getDRR
 570              		.comm	digital_sensor_value,8,4
 571              		.comm	sensors,8,4
 572              		.section	.rodata.str1.4,"aMS",%progbits,1
 573              		.align	2
 574              	.LC0:
 575 0000 25642025 		.ascii	"%d %d %d %d \011\000"
 575      64202564 
 575      20256420 
 575      0900
 576 000e 0000     		.text
 577              	.Letext0:
 578              		.file 2 "c:\\program files (x86)\\cypress\\psoc creator\\3.3\\psoc creator\\import\\gnu\\arm\\4.9.
 579              		.file 3 "c:\\program files (x86)\\cypress\\psoc creator\\3.3\\psoc creator\\import\\gnu\\arm\\4.9.
 580              		.file 4 "Generated_Source\\PSoC5/cytypes.h"
 581              		.file 5 ".\\Reflectance.h"
 582              		.file 6 "Generated_Source\\PSoC5/core_cm3.h"
 583              		.file 7 "Generated_Source\\PSoC5/Timer_RL.h"
 584              		.file 8 "Generated_Source\\PSoC5/Timer_RR.h"
 585              		.file 9 "Generated_Source\\PSoC5/Timer_LL.h"
 586              		.file 10 "Generated_Source\\PSoC5/Timer_LR.h"
 587              		.file 11 "Generated_Source\\PSoC5/RL.h"
 588              		.file 12 "Generated_Source\\PSoC5/RR.h"
 589              		.file 13 "Generated_Source\\PSoC5/LL.h"
 590              		.file 14 "Generated_Source\\PSoC5/LR.h"
 591              		.file 15 "Generated_Source\\PSoC5/CyLib.h"
 592              		.file 16 "c:\\program files (x86)\\cypress\\psoc creator\\3.3\\psoc creator\\import\\gnu\\arm\\4.9