ARM GAS  C:\Users\suminh\AppData\Local\Temp\ccbq3V5g.s 			page 1


   1              		.syntax unified
   2              		.cpu cortex-m3
   3              		.fpu softvfp
   4              		.eabi_attribute 20, 1
   5              		.eabi_attribute 21, 1
   6              		.eabi_attribute 23, 3
   7              		.eabi_attribute 24, 1
   8              		.eabi_attribute 25, 1
   9              		.eabi_attribute 26, 1
  10              		.eabi_attribute 30, 1
  11              		.eabi_attribute 34, 1
  12              		.eabi_attribute 18, 4
  13              		.thumb
  14              		.file	"main.c"
  15              		.text
  16              	.Ltext0:
  17              		.cfi_sections	.debug_frame
  18              		.section	.text.sensor_isr_handler,"ax",%progbits
  19              		.align	2
  20              		.global	sensor_isr_handler
  21              		.thumb
  22              		.thumb_func
  23              		.type	sensor_isr_handler, %function
  24              	sensor_isr_handler:
  25              	.LFB67:
  26              		.file 1 ".\\main.c"
   1:.\main.c      **** /* ========================================
   2:.\main.c      ****  *
   3:.\main.c      ****  * Copyright YOUR COMPANY, THE YEAR
   4:.\main.c      ****  * All Rights Reserved
   5:.\main.c      ****  * UNPUBLISHED, LICENSED SOFTWARE.
   6:.\main.c      ****  *
   7:.\main.c      ****  * CONFIDENTIAL AND PROPRIETARY INFORMATION
   8:.\main.c      ****  * WHICH IS THE PROPERTY OF your company.
   9:.\main.c      ****  *
  10:.\main.c      ****  * ========================================
  11:.\main.c      **** */
  12:.\main.c      **** #include <project.h>
  13:.\main.c      **** #include <stdio.h>
  14:.\main.c      **** 
  15:.\main.c      **** #define Gyro 0x6B
  16:.\main.c      **** #define Gyro_R 0xD7
  17:.\main.c      **** #define Gyro_W 0xD6
  18:.\main.c      **** #define WHO_AM_I 0x0f
  19:.\main.c      **** #define CTRL_REG1 0x20
  20:.\main.c      **** #define OUT_X_L 0x28
  21:.\main.c      **** #define OUT_X_H 0x29
  22:.\main.c      **** #define OUT_Y_L 0x2A
  23:.\main.c      **** #define OUT_Y_H 0x2B
  24:.\main.c      **** #define OUT_Z_L 0x2C
  25:.\main.c      **** #define OUT_Z_H 0x2D
  26:.\main.c      **** 
  27:.\main.c      **** #define Accel_R 0x3B
  28:.\main.c      **** #define Accel_W 0x3A
  29:.\main.c      **** 
  30:.\main.c      **** int rread(void);
  31:.\main.c      **** void reflectance_period();
ARM GAS  C:\Users\suminh\AppData\Local\Temp\ccbq3V5g.s 			page 2


  32:.\main.c      **** void reflectance_digital();
  33:.\main.c      **** void gyro_init();
  34:.\main.c      **** uint8 gyro_ReadReg(uint8 Reg);
  35:.\main.c      **** void gyro_WriteReg(uint8 Reg, uint8 value);
  36:.\main.c      **** void gyro_read();
  37:.\main.c      **** void accel_read();
  38:.\main.c      **** 
  39:.\main.c      **** uint8_t buffer[22];
  40:.\main.c      **** 
  41:.\main.c      **** CY_ISR_PROTO(sensor_isr_handler);
  42:.\main.c      **** 
  43:.\main.c      **** volatile struct sensors_ {
  44:.\main.c      ****     uint16_t ll;
  45:.\main.c      ****     //uint16_t lc; // not used at the moment
  46:.\main.c      ****     uint16_t lr;
  47:.\main.c      ****     uint16_t rl;
  48:.\main.c      ****     //uint16_t rc; // not used at the moment
  49:.\main.c      ****     uint16_t rr;
  50:.\main.c      **** } sensors;
  51:.\main.c      **** 
  52:.\main.c      **** volatile struct digital_sensor_value_ {         //digital value for recognizing black or white
  53:.\main.c      ****     uint16_t ll;
  54:.\main.c      ****     //uint16_t lc; // not used at the moment
  55:.\main.c      ****     uint16_t lr;
  56:.\main.c      ****     uint16_t rl;
  57:.\main.c      ****     //uint16_t rc; // not used at the moment
  58:.\main.c      ****     uint16_t rr;
  59:.\main.c      **** } digital_sensor_value;
  60:.\main.c      **** 
  61:.\main.c      **** /* moving forward */
  62:.\main.c      **** void motor_forward(uint8 speed,uint32 delay)
  63:.\main.c      **** {
  64:.\main.c      ****     PWM_WriteCompare1(speed); 
  65:.\main.c      ****     PWM_WriteCompare2(speed); 
  66:.\main.c      ****     CyDelay(delay);
  67:.\main.c      **** }
  68:.\main.c      **** 
  69:.\main.c      **** /* moving left when l_speed < r_speed or moving right when l_speed > r_speed */
  70:.\main.c      **** void motor_turn(uint8 l_speed, uint8 r_speed, uint32 delay)
  71:.\main.c      **** {
  72:.\main.c      ****     PWM_WriteCompare1(l_speed); 
  73:.\main.c      ****     PWM_WriteCompare2(r_speed); 
  74:.\main.c      ****     CyDelay(delay);
  75:.\main.c      **** }
  76:.\main.c      **** 
  77:.\main.c      **** /* moving backward */
  78:.\main.c      **** void motor_backward(uint8 speed,uint32 delay)
  79:.\main.c      **** {
  80:.\main.c      ****     MotorDirLeft_Write(1);
  81:.\main.c      ****     MotorDirRight_Write(1);
  82:.\main.c      ****     PWM_WriteCompare1(speed); 
  83:.\main.c      ****     PWM_WriteCompare2(speed); 
  84:.\main.c      ****     CyDelay(delay);
  85:.\main.c      **** }
  86:.\main.c      **** 
  87:.\main.c      **** 
  88:.\main.c      **** int main()
ARM GAS  C:\Users\suminh\AppData\Local\Temp\ccbq3V5g.s 			page 3


  89:.\main.c      **** {
  90:.\main.c      ****     sensor_isr_StartEx(sensor_isr_handler);
  91:.\main.c      ****     
  92:.\main.c      ****     CyGlobalIntEnable; /* Enable global interrupts. */
  93:.\main.c      **** 
  94:.\main.c      ****     /* Place your initialization/startup code here (e.g. MyInst_Start()) */
  95:.\main.c      ****     UART_Start();
  96:.\main.c      ****     PWM_Start();
  97:.\main.c      ****     
  98:.\main.c      ****     I2C_Start();
  99:.\main.c      ****     
 100:.\main.c      ****     printf("\r\n\n");
 101:.\main.c      ****     printf("Start\r\n");
 102:.\main.c      ****     
 103:.\main.c      ****     uint8_t g_buf[6];
 104:.\main.c      ****     
 105:.\main.c      ****     I2C_Start();
 106:.\main.c      ****     
 107:.\main.c      ****     IR_led_Write(1);
 108:.\main.c      ****     
 109:.\main.c      ****     
 110:.\main.c      ****     
 111:.\main.c      **** //    uint8 deviceID;
 112:.\main.c      **** //    deviceID = gyro_ReadReg(WHO_AM_I);
 113:.\main.c      **** //    printf("%d\r\n",deviceID);
 114:.\main.c      ****     for(;;)
 115:.\main.c      ****     {
 116:.\main.c      ****         uint8 Ctrl_before,Ctrl_after;
 117:.\main.c      ****     
 118:.\main.c      ****     Ctrl_before = gyro_ReadReg(CTRL_REG1);
 119:.\main.c      ****    
 120:.\main.c      ****     gyro_WriteReg(CTRL_REG1,0x0f);
 121:.\main.c      ****      CyDelay(1000);
 122:.\main.c      ****  //   Ctrl_after = gyro_ReadReg(CTRL_REG1);
 123:.\main.c      ****     
 124:.\main.c      **** //   printf("%d %d\r\n",Ctrl_before,Ctrl_after);
 125:.\main.c      ****     //    gyro_init();
 126:.\main.c      ****    //    gyro_read();
 127:.\main.c      ****     }
 128:.\main.c      **** }
 129:.\main.c      **** 
 130:.\main.c      **** CY_ISR(sensor_isr_handler)
 131:.\main.c      **** {
  27              		.loc 1 131 0
  28              		.cfi_startproc
  29              		@ args = 0, pretend = 0, frame = 0
  30              		@ frame_needed = 0, uses_anonymous_args = 0
  31 0000 F8B5     		push	{r3, r4, r5, r6, r7, lr}
  32              		.cfi_def_cfa_offset 24
  33              		.cfi_offset 3, -24
  34              		.cfi_offset 4, -20
  35              		.cfi_offset 5, -16
  36              		.cfi_offset 6, -12
  37              		.cfi_offset 7, -8
  38              		.cfi_offset 14, -4
 132:.\main.c      ****     uint32_t statusRL = Timer_RL_ReadStatusRegister();
  39              		.loc 1 132 0
ARM GAS  C:\Users\suminh\AppData\Local\Temp\ccbq3V5g.s 			page 4


  40 0002 FFF7FEFF 		bl	Timer_RL_ReadStatusRegister
  41              	.LVL0:
  42 0006 0446     		mov	r4, r0
  43              	.LVL1:
 133:.\main.c      ****     uint32_t statusRR = Timer_RR_ReadStatusRegister();
  44              		.loc 1 133 0
  45 0008 FFF7FEFF 		bl	Timer_RR_ReadStatusRegister
  46              	.LVL2:
  47 000c 0746     		mov	r7, r0
  48              	.LVL3:
 134:.\main.c      ****     uint32_t statusLL = Timer_LL_ReadStatusRegister();
  49              		.loc 1 134 0
  50 000e FFF7FEFF 		bl	Timer_LL_ReadStatusRegister
  51              	.LVL4:
  52 0012 0646     		mov	r6, r0
  53              	.LVL5:
 135:.\main.c      ****     uint32_t statusLR = Timer_LR_ReadStatusRegister();
  54              		.loc 1 135 0
  55 0014 FFF7FEFF 		bl	Timer_LR_ReadStatusRegister
  56              	.LVL6:
  57 0018 0546     		mov	r5, r0
  58              	.LVL7:
 136:.\main.c      **** 
 137:.\main.c      ****     if(statusRL & Timer_RL_STATUS_CAPTURE) {
  59              		.loc 1 137 0
  60 001a 14F0400F 		tst	r4, #64
  61 001e 09D0     		beq	.L2
 138:.\main.c      ****         sensors.rl = Timer_RL_ReadPeriod() - Timer_RL_ReadCapture();
  62              		.loc 1 138 0
  63 0020 FFF7FEFF 		bl	Timer_RL_ReadPeriod
  64              	.LVL8:
  65 0024 0446     		mov	r4, r0
  66              	.LVL9:
  67 0026 FFF7FEFF 		bl	Timer_RL_ReadCapture
  68              	.LVL10:
  69 002a 201A     		subs	r0, r4, r0
  70 002c 80B2     		uxth	r0, r0
  71 002e 314B     		ldr	r3, .L11
  72 0030 9880     		strh	r0, [r3, #4]	@ movhi
  73 0032 03E0     		b	.L3
  74              	.LVL11:
  75              	.L2:
 139:.\main.c      ****     }
 140:.\main.c      ****     else {
 141:.\main.c      ****         sensors.rl = Timer_RL_ReadPeriod();
  76              		.loc 1 141 0
  77 0034 FFF7FEFF 		bl	Timer_RL_ReadPeriod
  78              	.LVL12:
  79 0038 2E4B     		ldr	r3, .L11
  80 003a 9880     		strh	r0, [r3, #4]	@ movhi
  81              	.LVL13:
  82              	.L3:
 142:.\main.c      ****     }
 143:.\main.c      ****     
 144:.\main.c      ****     if(statusRR & Timer_RR_STATUS_CAPTURE) {
  83              		.loc 1 144 0
  84 003c 17F0400F 		tst	r7, #64
ARM GAS  C:\Users\suminh\AppData\Local\Temp\ccbq3V5g.s 			page 5


  85 0040 09D0     		beq	.L4
 145:.\main.c      ****         sensors.rr = Timer_RR_ReadPeriod() - Timer_RR_ReadCapture();
  86              		.loc 1 145 0
  87 0042 FFF7FEFF 		bl	Timer_RR_ReadPeriod
  88              	.LVL14:
  89 0046 0446     		mov	r4, r0
  90 0048 FFF7FEFF 		bl	Timer_RR_ReadCapture
  91              	.LVL15:
  92 004c 201A     		subs	r0, r4, r0
  93 004e 80B2     		uxth	r0, r0
  94 0050 284B     		ldr	r3, .L11
  95 0052 D880     		strh	r0, [r3, #6]	@ movhi
  96 0054 03E0     		b	.L5
  97              	.L4:
 146:.\main.c      ****     }
 147:.\main.c      ****     else {
 148:.\main.c      ****         sensors.rr = Timer_RR_ReadPeriod();
  98              		.loc 1 148 0
  99 0056 FFF7FEFF 		bl	Timer_RR_ReadPeriod
 100              	.LVL16:
 101 005a 264B     		ldr	r3, .L11
 102 005c D880     		strh	r0, [r3, #6]	@ movhi
 103              	.L5:
 149:.\main.c      ****     }
 150:.\main.c      ****     
 151:.\main.c      ****     if(statusLL & Timer_LL_STATUS_CAPTURE) {
 104              		.loc 1 151 0
 105 005e 16F0400F 		tst	r6, #64
 106 0062 09D0     		beq	.L6
 152:.\main.c      ****         sensors.ll = Timer_LL_ReadPeriod() - Timer_LL_ReadCapture();
 107              		.loc 1 152 0
 108 0064 FFF7FEFF 		bl	Timer_LL_ReadPeriod
 109              	.LVL17:
 110 0068 0446     		mov	r4, r0
 111 006a FFF7FEFF 		bl	Timer_LL_ReadCapture
 112              	.LVL18:
 113 006e 201A     		subs	r0, r4, r0
 114 0070 80B2     		uxth	r0, r0
 115 0072 204B     		ldr	r3, .L11
 116 0074 1880     		strh	r0, [r3]	@ movhi
 117 0076 03E0     		b	.L7
 118              	.L6:
 153:.\main.c      ****     }
 154:.\main.c      ****     else {
 155:.\main.c      ****         sensors.ll = Timer_LL_ReadPeriod();
 119              		.loc 1 155 0
 120 0078 FFF7FEFF 		bl	Timer_LL_ReadPeriod
 121              	.LVL19:
 122 007c 1D4B     		ldr	r3, .L11
 123 007e 1880     		strh	r0, [r3]	@ movhi
 124              	.L7:
 156:.\main.c      ****     }
 157:.\main.c      ****     
 158:.\main.c      ****     if(statusLR & Timer_LR_STATUS_CAPTURE) {
 125              		.loc 1 158 0
 126 0080 15F0400F 		tst	r5, #64
 127 0084 09D0     		beq	.L8
ARM GAS  C:\Users\suminh\AppData\Local\Temp\ccbq3V5g.s 			page 6


 159:.\main.c      ****         sensors.lr = Timer_LR_ReadPeriod() - Timer_LR_ReadCapture();
 128              		.loc 1 159 0
 129 0086 FFF7FEFF 		bl	Timer_LR_ReadPeriod
 130              	.LVL20:
 131 008a 0446     		mov	r4, r0
 132 008c FFF7FEFF 		bl	Timer_LR_ReadCapture
 133              	.LVL21:
 134 0090 201A     		subs	r0, r4, r0
 135 0092 80B2     		uxth	r0, r0
 136 0094 174B     		ldr	r3, .L11
 137 0096 5880     		strh	r0, [r3, #2]	@ movhi
 138 0098 03E0     		b	.L9
 139              	.L8:
 160:.\main.c      ****     }
 161:.\main.c      ****     else {
 162:.\main.c      ****         sensors.lr = Timer_LR_ReadPeriod();
 140              		.loc 1 162 0
 141 009a FFF7FEFF 		bl	Timer_LR_ReadPeriod
 142              	.LVL22:
 143 009e 154B     		ldr	r3, .L11
 144 00a0 5880     		strh	r0, [r3, #2]	@ movhi
 145              	.L9:
 163:.\main.c      ****     }
 164:.\main.c      ****     
 165:.\main.c      ****     RL_SetDriveMode(PIN_DM_STRONG);
 146              		.loc 1 165 0
 147 00a2 0C20     		movs	r0, #12
 148 00a4 FFF7FEFF 		bl	RL_SetDriveMode
 149              	.LVL23:
 166:.\main.c      ****     RL_Write(1);
 150              		.loc 1 166 0
 151 00a8 0120     		movs	r0, #1
 152 00aa FFF7FEFF 		bl	RL_Write
 153              	.LVL24:
 167:.\main.c      ****     RR_SetDriveMode(PIN_DM_STRONG);
 154              		.loc 1 167 0
 155 00ae 0C20     		movs	r0, #12
 156 00b0 FFF7FEFF 		bl	RR_SetDriveMode
 157              	.LVL25:
 168:.\main.c      ****     RR_Write(1);
 158              		.loc 1 168 0
 159 00b4 0120     		movs	r0, #1
 160 00b6 FFF7FEFF 		bl	RR_Write
 161              	.LVL26:
 169:.\main.c      ****     LL_SetDriveMode(PIN_DM_STRONG);
 162              		.loc 1 169 0
 163 00ba 0C20     		movs	r0, #12
 164 00bc FFF7FEFF 		bl	LL_SetDriveMode
 165              	.LVL27:
 170:.\main.c      ****     LL_Write(1);
 166              		.loc 1 170 0
 167 00c0 0120     		movs	r0, #1
 168 00c2 FFF7FEFF 		bl	LL_Write
 169              	.LVL28:
 171:.\main.c      ****     LR_SetDriveMode(PIN_DM_STRONG);
 170              		.loc 1 171 0
 171 00c6 0C20     		movs	r0, #12
ARM GAS  C:\Users\suminh\AppData\Local\Temp\ccbq3V5g.s 			page 7


 172 00c8 FFF7FEFF 		bl	LR_SetDriveMode
 173              	.LVL29:
 172:.\main.c      ****     LR_Write(1);
 174              		.loc 1 172 0
 175 00cc 0120     		movs	r0, #1
 176 00ce FFF7FEFF 		bl	LR_Write
 177              	.LVL30:
 173:.\main.c      ****     CyDelayUs(10);
 178              		.loc 1 173 0
 179 00d2 0A20     		movs	r0, #10
 180 00d4 FFF7FEFF 		bl	CyDelayUs
 181              	.LVL31:
 174:.\main.c      ****     RL_SetDriveMode(PIN_DM_DIG_HIZ);
 182              		.loc 1 174 0
 183 00d8 0220     		movs	r0, #2
 184 00da FFF7FEFF 		bl	RL_SetDriveMode
 185              	.LVL32:
 175:.\main.c      ****     RR_SetDriveMode(PIN_DM_DIG_HIZ);
 186              		.loc 1 175 0
 187 00de 0220     		movs	r0, #2
 188 00e0 FFF7FEFF 		bl	RR_SetDriveMode
 189              	.LVL33:
 176:.\main.c      ****     LL_SetDriveMode(PIN_DM_DIG_HIZ);
 190              		.loc 1 176 0
 191 00e4 0220     		movs	r0, #2
 192 00e6 FFF7FEFF 		bl	LL_SetDriveMode
 193              	.LVL34:
 177:.\main.c      ****     LR_SetDriveMode(PIN_DM_DIG_HIZ);
 194              		.loc 1 177 0
 195 00ea 0220     		movs	r0, #2
 196 00ec FFF7FEFF 		bl	LR_SetDriveMode
 197              	.LVL35:
 198 00f0 F8BD     		pop	{r3, r4, r5, r6, r7, pc}
 199              	.LVL36:
 200              	.L12:
 201 00f2 00BF     		.align	2
 202              	.L11:
 203 00f4 00000000 		.word	sensors
 204              		.cfi_endproc
 205              	.LFE67:
 206              		.size	sensor_isr_handler, .-sensor_isr_handler
 207              		.section	.text.motor_forward,"ax",%progbits
 208              		.align	2
 209              		.global	motor_forward
 210              		.thumb
 211              		.thumb_func
 212              		.type	motor_forward, %function
 213              	motor_forward:
 214              	.LFB63:
  63:.\main.c      ****     PWM_WriteCompare1(speed); 
 215              		.loc 1 63 0
 216              		.cfi_startproc
 217              		@ args = 0, pretend = 0, frame = 0
 218              		@ frame_needed = 0, uses_anonymous_args = 0
 219              	.LVL37:
 220 0000 38B5     		push	{r3, r4, r5, lr}
 221              		.cfi_def_cfa_offset 16
ARM GAS  C:\Users\suminh\AppData\Local\Temp\ccbq3V5g.s 			page 8


 222              		.cfi_offset 3, -16
 223              		.cfi_offset 4, -12
 224              		.cfi_offset 5, -8
 225              		.cfi_offset 14, -4
 226 0002 0546     		mov	r5, r0
 227 0004 0C46     		mov	r4, r1
  64:.\main.c      ****     PWM_WriteCompare2(speed); 
 228              		.loc 1 64 0
 229 0006 FFF7FEFF 		bl	PWM_WriteCompare1
 230              	.LVL38:
  65:.\main.c      ****     CyDelay(delay);
 231              		.loc 1 65 0
 232 000a 2846     		mov	r0, r5
 233 000c FFF7FEFF 		bl	PWM_WriteCompare2
 234              	.LVL39:
  66:.\main.c      **** }
 235              		.loc 1 66 0
 236 0010 2046     		mov	r0, r4
 237 0012 FFF7FEFF 		bl	CyDelay
 238              	.LVL40:
 239 0016 38BD     		pop	{r3, r4, r5, pc}
 240              		.cfi_endproc
 241              	.LFE63:
 242              		.size	motor_forward, .-motor_forward
 243              		.section	.text.motor_turn,"ax",%progbits
 244              		.align	2
 245              		.global	motor_turn
 246              		.thumb
 247              		.thumb_func
 248              		.type	motor_turn, %function
 249              	motor_turn:
 250              	.LFB64:
  71:.\main.c      ****     PWM_WriteCompare1(l_speed); 
 251              		.loc 1 71 0
 252              		.cfi_startproc
 253              		@ args = 0, pretend = 0, frame = 0
 254              		@ frame_needed = 0, uses_anonymous_args = 0
 255              	.LVL41:
 256 0000 38B5     		push	{r3, r4, r5, lr}
 257              		.cfi_def_cfa_offset 16
 258              		.cfi_offset 3, -16
 259              		.cfi_offset 4, -12
 260              		.cfi_offset 5, -8
 261              		.cfi_offset 14, -4
 262 0002 0D46     		mov	r5, r1
 263 0004 1446     		mov	r4, r2
  72:.\main.c      ****     PWM_WriteCompare2(r_speed); 
 264              		.loc 1 72 0
 265 0006 FFF7FEFF 		bl	PWM_WriteCompare1
 266              	.LVL42:
  73:.\main.c      ****     CyDelay(delay);
 267              		.loc 1 73 0
 268 000a 2846     		mov	r0, r5
 269 000c FFF7FEFF 		bl	PWM_WriteCompare2
 270              	.LVL43:
  74:.\main.c      **** }
 271              		.loc 1 74 0
ARM GAS  C:\Users\suminh\AppData\Local\Temp\ccbq3V5g.s 			page 9


 272 0010 2046     		mov	r0, r4
 273 0012 FFF7FEFF 		bl	CyDelay
 274              	.LVL44:
 275 0016 38BD     		pop	{r3, r4, r5, pc}
 276              		.cfi_endproc
 277              	.LFE64:
 278              		.size	motor_turn, .-motor_turn
 279              		.section	.text.motor_backward,"ax",%progbits
 280              		.align	2
 281              		.global	motor_backward
 282              		.thumb
 283              		.thumb_func
 284              		.type	motor_backward, %function
 285              	motor_backward:
 286              	.LFB65:
  79:.\main.c      ****     MotorDirLeft_Write(1);
 287              		.loc 1 79 0
 288              		.cfi_startproc
 289              		@ args = 0, pretend = 0, frame = 0
 290              		@ frame_needed = 0, uses_anonymous_args = 0
 291              	.LVL45:
 292 0000 38B5     		push	{r3, r4, r5, lr}
 293              		.cfi_def_cfa_offset 16
 294              		.cfi_offset 3, -16
 295              		.cfi_offset 4, -12
 296              		.cfi_offset 5, -8
 297              		.cfi_offset 14, -4
 298 0002 0446     		mov	r4, r0
 299 0004 0D46     		mov	r5, r1
  80:.\main.c      ****     MotorDirRight_Write(1);
 300              		.loc 1 80 0
 301 0006 0120     		movs	r0, #1
 302              	.LVL46:
 303 0008 FFF7FEFF 		bl	MotorDirLeft_Write
 304              	.LVL47:
  81:.\main.c      ****     PWM_WriteCompare1(speed); 
 305              		.loc 1 81 0
 306 000c 0120     		movs	r0, #1
 307 000e FFF7FEFF 		bl	MotorDirRight_Write
 308              	.LVL48:
  82:.\main.c      ****     PWM_WriteCompare2(speed); 
 309              		.loc 1 82 0
 310 0012 2046     		mov	r0, r4
 311 0014 FFF7FEFF 		bl	PWM_WriteCompare1
 312              	.LVL49:
  83:.\main.c      ****     CyDelay(delay);
 313              		.loc 1 83 0
 314 0018 2046     		mov	r0, r4
 315 001a FFF7FEFF 		bl	PWM_WriteCompare2
 316              	.LVL50:
  84:.\main.c      **** }
 317              		.loc 1 84 0
 318 001e 2846     		mov	r0, r5
 319 0020 FFF7FEFF 		bl	CyDelay
 320              	.LVL51:
 321 0024 38BD     		pop	{r3, r4, r5, pc}
 322              		.cfi_endproc
ARM GAS  C:\Users\suminh\AppData\Local\Temp\ccbq3V5g.s 			page 10


 323              	.LFE65:
 324              		.size	motor_backward, .-motor_backward
 325 0026 00BF     		.section	.text.reflectance_period,"ax",%progbits
 326              		.align	2
 327              		.global	reflectance_period
 328              		.thumb
 329              		.thumb_func
 330              		.type	reflectance_period, %function
 331              	reflectance_period:
 332              	.LFB68:
 178:.\main.c      ****         
 179:.\main.c      **** }
 180:.\main.c      **** 
 181:.\main.c      **** void reflectance_period()
 182:.\main.c      **** {
 333              		.loc 1 182 0
 334              		.cfi_startproc
 335              		@ args = 0, pretend = 0, frame = 0
 336              		@ frame_needed = 0, uses_anonymous_args = 0
 337 0000 00B5     		push	{lr}
 338              		.cfi_def_cfa_offset 4
 339              		.cfi_offset 14, -4
 340 0002 83B0     		sub	sp, sp, #12
 341              		.cfi_def_cfa_offset 16
 183:.\main.c      ****      printf("%d %d %d %d \t", sensors.ll, sensors.lr, sensors.rl, sensors.rr); 
 342              		.loc 1 183 0
 343 0004 0748     		ldr	r0, .L21
 344 0006 0188     		ldrh	r1, [r0]
 345 0008 4288     		ldrh	r2, [r0, #2]
 346 000a 8388     		ldrh	r3, [r0, #4]
 347 000c C088     		ldrh	r0, [r0, #6]
 348 000e 80B2     		uxth	r0, r0
 349 0010 0090     		str	r0, [sp]
 350 0012 0548     		ldr	r0, .L21+4
 351 0014 89B2     		uxth	r1, r1
 352 0016 92B2     		uxth	r2, r2
 353 0018 9BB2     		uxth	r3, r3
 354 001a FFF7FEFF 		bl	printf
 355              	.LVL52:
 184:.\main.c      **** }
 356              		.loc 1 184 0
 357 001e 03B0     		add	sp, sp, #12
 358              		.cfi_def_cfa_offset 4
 359              		@ sp needed
 360 0020 5DF804FB 		ldr	pc, [sp], #4
 361              	.L22:
 362              		.align	2
 363              	.L21:
 364 0024 00000000 		.word	sensors
 365 0028 00000000 		.word	.LC0
 366              		.cfi_endproc
 367              	.LFE68:
 368              		.size	reflectance_period, .-reflectance_period
 369              		.section	.text.reflectance_digital,"ax",%progbits
 370              		.align	2
 371              		.global	reflectance_digital
 372              		.thumb
ARM GAS  C:\Users\suminh\AppData\Local\Temp\ccbq3V5g.s 			page 11


 373              		.thumb_func
 374              		.type	reflectance_digital, %function
 375              	reflectance_digital:
 376              	.LFB69:
 185:.\main.c      **** 
 186:.\main.c      **** void reflectance_digital()
 187:.\main.c      **** {
 377              		.loc 1 187 0
 378              		.cfi_startproc
 379              		@ args = 0, pretend = 0, frame = 0
 380              		@ frame_needed = 0, uses_anonymous_args = 0
 381 0000 00B5     		push	{lr}
 382              		.cfi_def_cfa_offset 4
 383              		.cfi_offset 14, -4
 384 0002 83B0     		sub	sp, sp, #12
 385              		.cfi_def_cfa_offset 16
 188:.\main.c      ****     //if the results of reflectance_period function is over 10000, set digital_sensor_value to 0, w
 189:.\main.c      ****     if(sensors.ll > 10000)
 386              		.loc 1 189 0
 387 0004 234B     		ldr	r3, .L33
 388 0006 1B88     		ldrh	r3, [r3]
 389 0008 9BB2     		uxth	r3, r3
 390 000a 42F21072 		movw	r2, #10000
 391 000e 9342     		cmp	r3, r2
 392 0010 03D9     		bls	.L24
 190:.\main.c      ****         digital_sensor_value.ll  = 0;
 393              		.loc 1 190 0
 394 0012 0022     		movs	r2, #0
 395 0014 204B     		ldr	r3, .L33+4
 396 0016 1A80     		strh	r2, [r3]	@ movhi
 397 0018 02E0     		b	.L25
 398              	.L24:
 191:.\main.c      ****     else
 192:.\main.c      ****         digital_sensor_value.ll  = 1;
 399              		.loc 1 192 0
 400 001a 0122     		movs	r2, #1
 401 001c 1E4B     		ldr	r3, .L33+4
 402 001e 1A80     		strh	r2, [r3]	@ movhi
 403              	.L25:
 193:.\main.c      ****     if(sensors.lr > 10000)
 404              		.loc 1 193 0
 405 0020 1C4B     		ldr	r3, .L33
 406 0022 5B88     		ldrh	r3, [r3, #2]
 407 0024 9BB2     		uxth	r3, r3
 408 0026 42F21072 		movw	r2, #10000
 409 002a 9342     		cmp	r3, r2
 410 002c 03D9     		bls	.L26
 194:.\main.c      ****         digital_sensor_value.lr  = 0;
 411              		.loc 1 194 0
 412 002e 0022     		movs	r2, #0
 413 0030 194B     		ldr	r3, .L33+4
 414 0032 5A80     		strh	r2, [r3, #2]	@ movhi
 415 0034 02E0     		b	.L27
 416              	.L26:
 195:.\main.c      ****     else
 196:.\main.c      ****         digital_sensor_value.lr  = 1;
 417              		.loc 1 196 0
ARM GAS  C:\Users\suminh\AppData\Local\Temp\ccbq3V5g.s 			page 12


 418 0036 0122     		movs	r2, #1
 419 0038 174B     		ldr	r3, .L33+4
 420 003a 5A80     		strh	r2, [r3, #2]	@ movhi
 421              	.L27:
 197:.\main.c      ****     if(sensors.rl > 10000)
 422              		.loc 1 197 0
 423 003c 154B     		ldr	r3, .L33
 424 003e 9B88     		ldrh	r3, [r3, #4]
 425 0040 9BB2     		uxth	r3, r3
 426 0042 42F21072 		movw	r2, #10000
 427 0046 9342     		cmp	r3, r2
 428 0048 03D9     		bls	.L28
 198:.\main.c      ****         digital_sensor_value.rl  = 0;
 429              		.loc 1 198 0
 430 004a 0022     		movs	r2, #0
 431 004c 124B     		ldr	r3, .L33+4
 432 004e 9A80     		strh	r2, [r3, #4]	@ movhi
 433 0050 02E0     		b	.L29
 434              	.L28:
 199:.\main.c      ****     else
 200:.\main.c      ****         digital_sensor_value.rl  = 1;
 435              		.loc 1 200 0
 436 0052 0122     		movs	r2, #1
 437 0054 104B     		ldr	r3, .L33+4
 438 0056 9A80     		strh	r2, [r3, #4]	@ movhi
 439              	.L29:
 201:.\main.c      ****     if(sensors.rr > 10000)
 440              		.loc 1 201 0
 441 0058 0E4B     		ldr	r3, .L33
 442 005a DB88     		ldrh	r3, [r3, #6]
 443 005c 9BB2     		uxth	r3, r3
 444 005e 42F21072 		movw	r2, #10000
 445 0062 9342     		cmp	r3, r2
 446 0064 03D9     		bls	.L30
 202:.\main.c      ****         digital_sensor_value.rr  = 0;
 447              		.loc 1 202 0
 448 0066 0022     		movs	r2, #0
 449 0068 0B4B     		ldr	r3, .L33+4
 450 006a DA80     		strh	r2, [r3, #6]	@ movhi
 451 006c 02E0     		b	.L31
 452              	.L30:
 203:.\main.c      ****     else
 204:.\main.c      ****         digital_sensor_value.rr  = 1;
 453              		.loc 1 204 0
 454 006e 0122     		movs	r2, #1
 455 0070 094B     		ldr	r3, .L33+4
 456 0072 DA80     		strh	r2, [r3, #6]	@ movhi
 457              	.L31:
 205:.\main.c      ****         
 206:.\main.c      ****    //print out the results
 207:.\main.c      ****    printf("%d %d %d %d \t", digital_sensor_value.ll, digital_sensor_value.lr, digital_sensor_value.
 458              		.loc 1 207 0
 459 0074 0848     		ldr	r0, .L33+4
 460 0076 0188     		ldrh	r1, [r0]
 461 0078 4288     		ldrh	r2, [r0, #2]
 462 007a 8388     		ldrh	r3, [r0, #4]
 463 007c C088     		ldrh	r0, [r0, #6]
ARM GAS  C:\Users\suminh\AppData\Local\Temp\ccbq3V5g.s 			page 13


 464 007e 80B2     		uxth	r0, r0
 465 0080 0090     		str	r0, [sp]
 466 0082 0648     		ldr	r0, .L33+8
 467 0084 89B2     		uxth	r1, r1
 468 0086 92B2     		uxth	r2, r2
 469 0088 9BB2     		uxth	r3, r3
 470 008a FFF7FEFF 		bl	printf
 471              	.LVL53:
 208:.\main.c      **** }
 472              		.loc 1 208 0
 473 008e 03B0     		add	sp, sp, #12
 474              		.cfi_def_cfa_offset 4
 475              		@ sp needed
 476 0090 5DF804FB 		ldr	pc, [sp], #4
 477              	.L34:
 478              		.align	2
 479              	.L33:
 480 0094 00000000 		.word	sensors
 481 0098 00000000 		.word	digital_sensor_value
 482 009c 00000000 		.word	.LC0
 483              		.cfi_endproc
 484              	.LFE69:
 485              		.size	reflectance_digital, .-reflectance_digital
 486              		.section	.text.accel_read,"ax",%progbits
 487              		.align	2
 488              		.global	accel_read
 489              		.thumb
 490              		.thumb_func
 491              		.type	accel_read, %function
 492              	accel_read:
 493              	.LFB70:
 209:.\main.c      **** 
 210:.\main.c      **** void accel_read(void)
 211:.\main.c      **** {
 494              		.loc 1 211 0
 495              		.cfi_startproc
 496              		@ args = 0, pretend = 0, frame = 8
 497              		@ frame_needed = 0, uses_anonymous_args = 0
 498 0000 30B5     		push	{r4, r5, lr}
 499              		.cfi_def_cfa_offset 12
 500              		.cfi_offset 4, -12
 501              		.cfi_offset 5, -8
 502              		.cfi_offset 14, -4
 503 0002 87B0     		sub	sp, sp, #28
 504              		.cfi_def_cfa_offset 40
 212:.\main.c      ****     uint8_t a_status;
 213:.\main.c      ****     uint8_t a_buf[6];
 214:.\main.c      ****     // send conversion command
 215:.\main.c      ****     a_buf[0] = 0x00;
 505              		.loc 1 215 0
 506 0004 0025     		movs	r5, #0
 507 0006 06AC     		add	r4, sp, #24
 508 0008 04F8085D 		strb	r5, [r4, #-8]!
 216:.\main.c      ****     
 217:.\main.c      ****     I2C_MasterClearStatus();
 509              		.loc 1 217 0
 510 000c FFF7FEFF 		bl	I2C_MasterClearStatus
ARM GAS  C:\Users\suminh\AppData\Local\Temp\ccbq3V5g.s 			page 14


 511              	.LVL54:
 218:.\main.c      ****     a_status = I2C_MasterWriteBuf(Accel_W, a_buf, 1, I2C_MODE_COMPLETE_XFER);
 512              		.loc 1 218 0
 513 0010 3A20     		movs	r0, #58
 514 0012 2146     		mov	r1, r4
 515 0014 0122     		movs	r2, #1
 516 0016 2B46     		mov	r3, r5
 517 0018 FFF7FEFF 		bl	I2C_MasterWriteBuf
 518              	.LVL55:
 519              	.L36:
 219:.\main.c      ****     while(((a_status = I2C_MasterStatus()) & I2C_MSTAT_WR_CMPLT) == 0);
 520              		.loc 1 219 0 discriminator 1
 521 001c FFF7FEFF 		bl	I2C_MasterStatus
 522              	.LVL56:
 523 0020 10F0020F 		tst	r0, #2
 524 0024 FAD0     		beq	.L36
 220:.\main.c      ****     // wait for conversion to complete
 221:.\main.c      ****     CyDelay(50); // todo: check if shorter wait would work
 525              		.loc 1 221 0
 526 0026 3220     		movs	r0, #50
 527              	.LVL57:
 528 0028 FFF7FEFF 		bl	CyDelay
 529              	.LVL58:
 222:.\main.c      ****     // read values
 223:.\main.c      ****     I2C_MasterClearStatus();
 530              		.loc 1 223 0
 531 002c FFF7FEFF 		bl	I2C_MasterClearStatus
 532              	.LVL59:
 224:.\main.c      ****     a_status = I2C_MasterReadBuf(Accel_R, a_buf, 6, I2C_MODE_COMPLETE_XFER);
 533              		.loc 1 224 0
 534 0030 3B20     		movs	r0, #59
 535 0032 04A9     		add	r1, sp, #16
 536 0034 0622     		movs	r2, #6
 537 0036 0023     		movs	r3, #0
 538 0038 FFF7FEFF 		bl	I2C_MasterReadBuf
 539              	.LVL60:
 540              	.L37:
 225:.\main.c      ****     while(((a_status = I2C_MasterStatus()) & I2C_MSTAT_RD_CMPLT) == 0);
 541              		.loc 1 225 0 discriminator 1
 542 003c FFF7FEFF 		bl	I2C_MasterStatus
 543              	.LVL61:
 544 0040 10F0010F 		tst	r0, #1
 545 0044 FAD0     		beq	.L37
 226:.\main.c      ****     
 227:.\main.c      ****     printf("%d %d %d %d %d %d\r\n", a_buf[0], a_buf[1], a_buf[2], a_buf[3], a_buf[4], a_buf[5] );
 546              		.loc 1 227 0
 547 0046 9DF81010 		ldrb	r1, [sp, #16]	@ zero_extendqisi2
 548 004a 9DF81120 		ldrb	r2, [sp, #17]	@ zero_extendqisi2
 549 004e 9DF81230 		ldrb	r3, [sp, #18]	@ zero_extendqisi2
 550 0052 9DF81350 		ldrb	r5, [sp, #19]	@ zero_extendqisi2
 551 0056 9DF81440 		ldrb	r4, [sp, #20]	@ zero_extendqisi2
 552 005a 9DF81500 		ldrb	r0, [sp, #21]	@ zero_extendqisi2
 553              	.LVL62:
 554 005e 0095     		str	r5, [sp]
 555 0060 0194     		str	r4, [sp, #4]
 556 0062 0290     		str	r0, [sp, #8]
 557 0064 0248     		ldr	r0, .L39
ARM GAS  C:\Users\suminh\AppData\Local\Temp\ccbq3V5g.s 			page 15


 558 0066 FFF7FEFF 		bl	printf
 559              	.LVL63:
 228:.\main.c      ****    
 229:.\main.c      **** }    
 560              		.loc 1 229 0
 561 006a 07B0     		add	sp, sp, #28
 562              		.cfi_def_cfa_offset 12
 563              		@ sp needed
 564 006c 30BD     		pop	{r4, r5, pc}
 565              	.L40:
 566 006e 00BF     		.align	2
 567              	.L39:
 568 0070 10000000 		.word	.LC1
 569              		.cfi_endproc
 570              	.LFE70:
 571              		.size	accel_read, .-accel_read
 572              		.section	.text.gyro_init,"ax",%progbits
 573              		.align	2
 574              		.global	gyro_init
 575              		.thumb
 576              		.thumb_func
 577              		.type	gyro_init, %function
 578              	gyro_init:
 579              	.LFB71:
 230:.\main.c      **** 
 231:.\main.c      **** void gyro_init(void)
 232:.\main.c      **** {
 580              		.loc 1 232 0
 581              		.cfi_startproc
 582              		@ args = 0, pretend = 0, frame = 8
 583              		@ frame_needed = 0, uses_anonymous_args = 0
 584 0000 10B5     		push	{r4, lr}
 585              		.cfi_def_cfa_offset 8
 586              		.cfi_offset 4, -8
 587              		.cfi_offset 14, -4
 588 0002 82B0     		sub	sp, sp, #8
 589              		.cfi_def_cfa_offset 16
 233:.\main.c      ****     uint8_t buf[1] = { 0x20 };
 590              		.loc 1 233 0
 591 0004 02AC     		add	r4, sp, #8
 592 0006 2023     		movs	r3, #32
 593 0008 04F8043D 		strb	r3, [r4, #-4]!
 234:.\main.c      ****     uint8_t status;
 235:.\main.c      ****     I2C_MasterClearStatus();
 594              		.loc 1 235 0
 595 000c FFF7FEFF 		bl	I2C_MasterClearStatus
 596              	.LVL64:
 236:.\main.c      ****     CyDelay(100);
 597              		.loc 1 236 0
 598 0010 6420     		movs	r0, #100
 599 0012 FFF7FEFF 		bl	CyDelay
 600              	.LVL65:
 237:.\main.c      ****     status = I2C_MasterWriteBuf(0x6B, buf, 1, I2C_MODE_COMPLETE_XFER);
 601              		.loc 1 237 0
 602 0016 6B20     		movs	r0, #107
 603 0018 2146     		mov	r1, r4
 604 001a 0122     		movs	r2, #1
ARM GAS  C:\Users\suminh\AppData\Local\Temp\ccbq3V5g.s 			page 16


 605 001c 0023     		movs	r3, #0
 606 001e FFF7FEFF 		bl	I2C_MasterWriteBuf
 607              	.LVL66:
 608              	.L42:
 238:.\main.c      ****     while(((status = I2C_MasterStatus()) & I2C_MSTAT_WR_CMPLT) == 0);
 609              		.loc 1 238 0 discriminator 1
 610 0022 FFF7FEFF 		bl	I2C_MasterStatus
 611              	.LVL67:
 612 0026 10F0020F 		tst	r0, #2
 613 002a FAD0     		beq	.L42
 239:.\main.c      ****     CyDelay(100);
 614              		.loc 1 239 0
 615 002c 6420     		movs	r0, #100
 616              	.LVL68:
 617 002e FFF7FEFF 		bl	CyDelay
 618              	.LVL69:
 240:.\main.c      **** }    
 619              		.loc 1 240 0
 620 0032 02B0     		add	sp, sp, #8
 621              		.cfi_def_cfa_offset 8
 622              		@ sp needed
 623 0034 10BD     		pop	{r4, pc}
 624              		.cfi_endproc
 625              	.LFE71:
 626              		.size	gyro_init, .-gyro_init
 627 0036 00BF     		.section	.text.gyro_ReadReg,"ax",%progbits
 628              		.align	2
 629              		.global	gyro_ReadReg
 630              		.thumb
 631              		.thumb_func
 632              		.type	gyro_ReadReg, %function
 633              	gyro_ReadReg:
 634              	.LFB72:
 241:.\main.c      **** 
 242:.\main.c      **** uint8 gyro_ReadReg(uint8 Reg)
 243:.\main.c      **** {
 635              		.loc 1 243 0
 636              		.cfi_startproc
 637              		@ args = 0, pretend = 0, frame = 8
 638              		@ frame_needed = 0, uses_anonymous_args = 0
 639              	.LVL70:
 640 0000 00B5     		push	{lr}
 641              		.cfi_def_cfa_offset 4
 642              		.cfi_offset 14, -4
 643 0002 83B0     		sub	sp, sp, #12
 644              		.cfi_def_cfa_offset 16
 244:.\main.c      ****     uint8 Write_Buf[1] = {0};
 245:.\main.c      ****     Write_Buf[0] = Reg;
 645              		.loc 1 245 0
 646 0004 8DF80400 		strb	r0, [sp, #4]
 246:.\main.c      ****     
 247:.\main.c      ****     uint8 Read_Buf[1]={0};
 647              		.loc 1 247 0
 648 0008 0023     		movs	r3, #0
 649 000a 8DF80030 		strb	r3, [sp]
 248:.\main.c      ****     
 249:.\main.c      ****     I2C_MasterWriteBuf(Gyro,(uint8 *)Write_Buf,1,I2C_MODE_NO_STOP);
ARM GAS  C:\Users\suminh\AppData\Local\Temp\ccbq3V5g.s 			page 17


 650              		.loc 1 249 0
 651 000e 6B20     		movs	r0, #107
 652              	.LVL71:
 653 0010 01A9     		add	r1, sp, #4
 654              	.LVL72:
 655 0012 0122     		movs	r2, #1
 656 0014 0223     		movs	r3, #2
 657 0016 FFF7FEFF 		bl	I2C_MasterWriteBuf
 658              	.LVL73:
 659              	.L45:
 250:.\main.c      ****     while((I2C_MasterStatus() & I2C_MSTAT_WR_CMPLT)==0){};
 660              		.loc 1 250 0 discriminator 1
 661 001a FFF7FEFF 		bl	I2C_MasterStatus
 662              	.LVL74:
 663 001e 10F0020F 		tst	r0, #2
 664 0022 FAD0     		beq	.L45
 251:.\main.c      **** 
 252:.\main.c      ****     I2C_MasterReadBuf(Gyro,(uint8 *)Read_Buf,1,I2C_MODE_REPEAT_START);
 665              		.loc 1 252 0
 666 0024 6B20     		movs	r0, #107
 667 0026 6946     		mov	r1, sp
 668 0028 0122     		movs	r2, #1
 669 002a 1346     		mov	r3, r2
 670 002c FFF7FEFF 		bl	I2C_MasterReadBuf
 671              	.LVL75:
 672              	.L46:
 253:.\main.c      ****     while((I2C_MasterStatus() & I2C_MSTAT_RD_CMPLT)==0){};
 673              		.loc 1 253 0 discriminator 1
 674 0030 FFF7FEFF 		bl	I2C_MasterStatus
 675              	.LVL76:
 676 0034 10F0010F 		tst	r0, #1
 677 0038 FAD0     		beq	.L46
 254:.\main.c      ****     
 255:.\main.c      ****     return Read_Buf[0];
 256:.\main.c      **** }
 678              		.loc 1 256 0
 679 003a 9DF80000 		ldrb	r0, [sp]	@ zero_extendqisi2
 680 003e 03B0     		add	sp, sp, #12
 681              		.cfi_def_cfa_offset 4
 682              		@ sp needed
 683 0040 5DF804FB 		ldr	pc, [sp], #4
 684              		.cfi_endproc
 685              	.LFE72:
 686              		.size	gyro_ReadReg, .-gyro_ReadReg
 687              		.section	.text.gyro_WriteReg,"ax",%progbits
 688              		.align	2
 689              		.global	gyro_WriteReg
 690              		.thumb
 691              		.thumb_func
 692              		.type	gyro_WriteReg, %function
 693              	gyro_WriteReg:
 694              	.LFB73:
 257:.\main.c      **** 
 258:.\main.c      **** void gyro_WriteReg(uint8 Reg, uint8 value)
 259:.\main.c      **** {
 695              		.loc 1 259 0
 696              		.cfi_startproc
ARM GAS  C:\Users\suminh\AppData\Local\Temp\ccbq3V5g.s 			page 18


 697              		@ args = 0, pretend = 0, frame = 8
 698              		@ frame_needed = 0, uses_anonymous_args = 0
 699              	.LVL77:
 700 0000 00B5     		push	{lr}
 701              		.cfi_def_cfa_offset 4
 702              		.cfi_offset 14, -4
 703 0002 83B0     		sub	sp, sp, #12
 704              		.cfi_def_cfa_offset 16
 260:.\main.c      ****     uint8 Write_Buf[2] = {0};
 261:.\main.c      ****     Write_Buf[0] = Reg;
 705              		.loc 1 261 0
 706 0004 8DF80400 		strb	r0, [sp, #4]
 262:.\main.c      ****     Write_Buf[1] = value;
 707              		.loc 1 262 0
 708 0008 8DF80510 		strb	r1, [sp, #5]
 263:.\main.c      ****     
 264:.\main.c      ****     I2C_MasterClearStatus();
 709              		.loc 1 264 0
 710 000c FFF7FEFF 		bl	I2C_MasterClearStatus
 711              	.LVL78:
 265:.\main.c      ****    
 266:.\main.c      ****     I2C_MasterWriteBuf(Gyro,(uint8 *)Write_Buf,2,I2C_MODE_COMPLETE_XFER);
 712              		.loc 1 266 0
 713 0010 6B20     		movs	r0, #107
 714 0012 01A9     		add	r1, sp, #4
 715 0014 0222     		movs	r2, #2
 716 0016 0023     		movs	r3, #0
 717 0018 FFF7FEFF 		bl	I2C_MasterWriteBuf
 718              	.LVL79:
 719              	.L49:
 267:.\main.c      ****     while((I2C_MasterStatus() & I2C_MSTAT_WR_CMPLT)==0){};
 720              		.loc 1 267 0 discriminator 1
 721 001c FFF7FEFF 		bl	I2C_MasterStatus
 722              	.LVL80:
 723 0020 10F0020F 		tst	r0, #2
 724 0024 FAD0     		beq	.L49
 268:.\main.c      ****     
 269:.\main.c      ****     return;
 270:.\main.c      **** }
 725              		.loc 1 270 0
 726 0026 03B0     		add	sp, sp, #12
 727              		.cfi_def_cfa_offset 4
 728              		@ sp needed
 729 0028 5DF804FB 		ldr	pc, [sp], #4
 730              		.cfi_endproc
 731              	.LFE73:
 732              		.size	gyro_WriteReg, .-gyro_WriteReg
 733              		.section	.text.main,"ax",%progbits
 734              		.align	2
 735              		.global	main
 736              		.thumb
 737              		.thumb_func
 738              		.type	main, %function
 739              	main:
 740              	.LFB66:
  89:.\main.c      ****     sensor_isr_StartEx(sensor_isr_handler);
 741              		.loc 1 89 0
ARM GAS  C:\Users\suminh\AppData\Local\Temp\ccbq3V5g.s 			page 19


 742              		.cfi_startproc
 743              		@ args = 0, pretend = 0, frame = 0
 744              		@ frame_needed = 0, uses_anonymous_args = 0
 745 0000 08B5     		push	{r3, lr}
 746              		.cfi_def_cfa_offset 8
 747              		.cfi_offset 3, -8
 748              		.cfi_offset 14, -4
  90:.\main.c      ****     
 749              		.loc 1 90 0
 750 0002 1048     		ldr	r0, .L54
 751 0004 FFF7FEFF 		bl	sensor_isr_StartEx
 752              	.LVL81:
  92:.\main.c      **** 
 753              		.loc 1 92 0
 754              	@ 92 ".\main.c" 1
 755 0008 62B6     		CPSIE   i
 756              	@ 0 "" 2
  95:.\main.c      ****     PWM_Start();
 757              		.loc 1 95 0
 758              		.thumb
 759 000a FFF7FEFF 		bl	UART_Start
 760              	.LVL82:
  96:.\main.c      ****     
 761              		.loc 1 96 0
 762 000e FFF7FEFF 		bl	PWM_Start
 763              	.LVL83:
  98:.\main.c      ****     
 764              		.loc 1 98 0
 765 0012 FFF7FEFF 		bl	I2C_Start
 766              	.LVL84:
 100:.\main.c      ****     printf("Start\r\n");
 767              		.loc 1 100 0
 768 0016 0C48     		ldr	r0, .L54+4
 769 0018 FFF7FEFF 		bl	puts
 770              	.LVL85:
 101:.\main.c      ****     
 771              		.loc 1 101 0
 772 001c 0B48     		ldr	r0, .L54+8
 773 001e FFF7FEFF 		bl	puts
 774              	.LVL86:
 105:.\main.c      ****     
 775              		.loc 1 105 0
 776 0022 FFF7FEFF 		bl	I2C_Start
 777              	.LVL87:
 107:.\main.c      ****     
 778              		.loc 1 107 0
 779 0026 0120     		movs	r0, #1
 780 0028 FFF7FEFF 		bl	IR_led_Write
 781              	.LVL88:
 782              	.L52:
 783              	.LBB2:
 118:.\main.c      ****    
 784              		.loc 1 118 0 discriminator 1
 785 002c 2020     		movs	r0, #32
 786 002e FFF7FEFF 		bl	gyro_ReadReg
 787              	.LVL89:
 120:.\main.c      ****      CyDelay(1000);
ARM GAS  C:\Users\suminh\AppData\Local\Temp\ccbq3V5g.s 			page 20


 788              		.loc 1 120 0 discriminator 1
 789 0032 2020     		movs	r0, #32
 790 0034 0F21     		movs	r1, #15
 791 0036 FFF7FEFF 		bl	gyro_WriteReg
 792              	.LVL90:
 121:.\main.c      ****  //   Ctrl_after = gyro_ReadReg(CTRL_REG1);
 793              		.loc 1 121 0 discriminator 1
 794 003a 4FF47A70 		mov	r0, #1000
 795 003e FFF7FEFF 		bl	CyDelay
 796              	.LVL91:
 797              	.LBE2:
 127:.\main.c      **** }
 798              		.loc 1 127 0 discriminator 1
 799 0042 F3E7     		b	.L52
 800              	.L55:
 801              		.align	2
 802              	.L54:
 803 0044 00000000 		.word	sensor_isr_handler
 804 0048 24000000 		.word	.LC2
 805 004c 28000000 		.word	.LC3
 806              		.cfi_endproc
 807              	.LFE66:
 808              		.size	main, .-main
 809              		.section	.text.gyro_read,"ax",%progbits
 810              		.align	2
 811              		.global	gyro_read
 812              		.thumb
 813              		.thumb_func
 814              		.type	gyro_read, %function
 815              	gyro_read:
 816              	.LFB74:
 271:.\main.c      **** 
 272:.\main.c      **** void gyro_read()
 273:.\main.c      **** {
 817              		.loc 1 273 0
 818              		.cfi_startproc
 819              		@ args = 0, pretend = 0, frame = 8
 820              		@ frame_needed = 0, uses_anonymous_args = 0
 821 0000 30B5     		push	{r4, r5, lr}
 822              		.cfi_def_cfa_offset 12
 823              		.cfi_offset 4, -12
 824              		.cfi_offset 5, -8
 825              		.cfi_offset 14, -4
 826 0002 87B0     		sub	sp, sp, #28
 827              		.cfi_def_cfa_offset 40
 274:.\main.c      ****     uint8_t reg = 0x28;
 828              		.loc 1 274 0
 829 0004 06AC     		add	r4, sp, #24
 830 0006 2823     		movs	r3, #40
 831 0008 04F8013D 		strb	r3, [r4, #-1]!
 275:.\main.c      ****     uint8_t g_status;
 276:.\main.c      ****     uint8_t g_buf[6];//={0};
 277:.\main.c      ****     // send conversion command
 278:.\main.c      ****     
 279:.\main.c      ****     I2C_MasterClearStatus();
 832              		.loc 1 279 0
 833 000c FFF7FEFF 		bl	I2C_MasterClearStatus
ARM GAS  C:\Users\suminh\AppData\Local\Temp\ccbq3V5g.s 			page 21


 834              	.LVL92:
 280:.\main.c      ****     
 281:.\main.c      ****     g_status = I2C_MasterWriteBuf(0x6B, &reg, 1, I2C_MODE_COMPLETE_XFER);
 835              		.loc 1 281 0
 836 0010 6B20     		movs	r0, #107
 837 0012 2146     		mov	r1, r4
 838 0014 0122     		movs	r2, #1
 839 0016 0023     		movs	r3, #0
 840 0018 FFF7FEFF 		bl	I2C_MasterWriteBuf
 841              	.LVL93:
 842              	.L57:
 282:.\main.c      ****     
 283:.\main.c      ****     while(((g_status = I2C_MasterStatus()) & I2C_MSTAT_WR_CMPLT) == 0);
 843              		.loc 1 283 0 discriminator 1
 844 001c FFF7FEFF 		bl	I2C_MasterStatus
 845              	.LVL94:
 846 0020 10F0020F 		tst	r0, #2
 847 0024 FAD0     		beq	.L57
 284:.\main.c      ****     // wait for conversion to complete
 285:.\main.c      ****     CyDelay(50); // todo: check if shorter wait would work
 848              		.loc 1 285 0
 849 0026 3220     		movs	r0, #50
 850              	.LVL95:
 851 0028 FFF7FEFF 		bl	CyDelay
 852              	.LVL96:
 286:.\main.c      ****     // read values
 287:.\main.c      ****     I2C_MasterClearStatus();
 853              		.loc 1 287 0
 854 002c FFF7FEFF 		bl	I2C_MasterClearStatus
 855              	.LVL97:
 288:.\main.c      ****     g_status = I2C_MasterReadBuf(0x6B, g_buf, 1, I2C_MODE_COMPLETE_XFER);
 856              		.loc 1 288 0
 857 0030 6B20     		movs	r0, #107
 858 0032 04A9     		add	r1, sp, #16
 859 0034 0122     		movs	r2, #1
 860 0036 0023     		movs	r3, #0
 861 0038 FFF7FEFF 		bl	I2C_MasterReadBuf
 862              	.LVL98:
 863              	.L58:
 289:.\main.c      ****     while(((g_status = I2C_MasterStatus()) & I2C_MSTAT_RD_CMPLT) == 0);
 864              		.loc 1 289 0 discriminator 1
 865 003c FFF7FEFF 		bl	I2C_MasterStatus
 866              	.LVL99:
 867 0040 10F0010F 		tst	r0, #1
 868 0044 FAD0     		beq	.L58
 290:.\main.c      ****     
 291:.\main.c      ****     printf("%d %d %d %d %d %d\r\n", g_buf[0], g_buf[1], g_buf[2], g_buf[3], g_buf[4], g_buf[5] );
 869              		.loc 1 291 0
 870 0046 9DF81010 		ldrb	r1, [sp, #16]	@ zero_extendqisi2
 871 004a 9DF81120 		ldrb	r2, [sp, #17]	@ zero_extendqisi2
 872 004e 9DF81230 		ldrb	r3, [sp, #18]	@ zero_extendqisi2
 873 0052 9DF81350 		ldrb	r5, [sp, #19]	@ zero_extendqisi2
 874 0056 9DF81440 		ldrb	r4, [sp, #20]	@ zero_extendqisi2
 875 005a 9DF81500 		ldrb	r0, [sp, #21]	@ zero_extendqisi2
 876              	.LVL100:
 877 005e 0095     		str	r5, [sp]
 878 0060 0194     		str	r4, [sp, #4]
ARM GAS  C:\Users\suminh\AppData\Local\Temp\ccbq3V5g.s 			page 22


 879 0062 0290     		str	r0, [sp, #8]
 880 0064 0248     		ldr	r0, .L60
 881 0066 FFF7FEFF 		bl	printf
 882              	.LVL101:
 292:.\main.c      ****     /*   I2C_Wakeup();   
 293:.\main.c      ****    
 294:.\main.c      ****     uint8_t i=0;
 295:.\main.c      ****     
 296:.\main.c      ****     I2C_MasterClearStatus();
 297:.\main.c      ****     printf("0\r\n");
 298:.\main.c      ****     uint8_t g_status;
 299:.\main.c      ****     g_status = I2C_MasterSendStart(0x6B, I2C_WRITE_XFER_MODE);
 300:.\main.c      **** //    printf("%d, %d, %d, %d, %d, %d, %d\r\n",g_status,I2C_MSTR_NO_ERROR,I2C_MSTR_BUS_BUSY,I2C_MSTR
 301:.\main.c      **** //    printf("1\r\n");
 302:.\main.c      ****     g_status=I2C_MasterWriteByte(1);
 303:.\main.c      ****     I2C_MasterSendStop();
 304:.\main.c      ****     printf("2\r\n");
 305:.\main.c      ****     */
 306:.\main.c      **** //    uint8_t g_buf[0];//={0};
 307:.\main.c      **** //    
 308:.\main.c      **** //    g_buf[0] = 0x0f;
 309:.\main.c      **** //    g_status = I2C_MasterWriteBuf(Gyro_R, g_buf , 1, I2C_MODE_COMPLETE_XFER);
 310:.\main.c      **** //    while(((g_status = I2C_MasterStatus()) & I2C_MSTAT_WR_CMPLT) == 0);
 311:.\main.c      **** //    printf("2-2\r\n");
 312:.\main.c      **** //    I2C_MasterSendRestart(devAddr, I2C_READ_XFER_MODE);
 313:.\main.c      **** //    printf("3\r\n");
 314:.\main.c      **** //   while (i++ < (length-1)) {
 315:.\main.c      **** //		*value++ = I2C_MasterReadByte(I2C_ACK_DATA);
 316:.\main.c      **** //        printf("%d",i);
 317:.\main.c      **** //	}
 318:.\main.c      **** //	*value = I2C_MasterReadByte(I2C_NAK_DATA);
 319:.\main.c      **** //	I2C_MasterSendStop();	
 320:.\main.c      **** //    
 321:.\main.c      **** //    /*
 322:.\main.c      **** //     uint8_t g_status;
 323:.\main.c      **** //    uint8_t g_buf[6];//={0};
 324:.\main.c      **** //    // send conversion command
 325:.\main.c      **** //    
 326:.\main.c      **** //    g_buf[0] = 0x00;
 327:.\main.c      **** //    
 328:.\main.c      **** //    I2C_MasterClearStatus();
 329:.\main.c      **** //    g_status = I2C_MasterWriteBuf(Gyro_W, g_buf, 1, I2C_MODE_COMPLETE_XFER);
 330:.\main.c      **** //    
 331:.\main.c      **** //    while(((g_status = I2C_MasterStatus()) & I2C_MSTAT_WR_CMPLT) == 0);
 332:.\main.c      **** //    // wait for conversion to complete
 333:.\main.c      **** //    CyDelay(50); // todo: check if shorter wait would work
 334:.\main.c      **** //    // read values
 335:.\main.c      **** //    I2C_MasterClearStatus();
 336:.\main.c      **** //    g_status = I2C_MasterReadBuf(Gyro_R, g_buf, 6, I2C_MODE_COMPLETE_XFER);
 337:.\main.c      **** //    while(((g_status = I2C_MasterStatus()) & I2C_MSTAT_RD_CMPLT) == 0);
 338:.\main.c      **** //    
 339:.\main.c      **** //    printf("%d %d %d %d %d %d\r\n", g_buf[0], g_buf[1], g_buf[2], g_buf[3], g_buf[4], g_buf[5] );
 340:.\main.c      **** //   */
 341:.\main.c      **** }   
 883              		.loc 1 341 0
 884 006a 07B0     		add	sp, sp, #28
 885              		.cfi_def_cfa_offset 12
ARM GAS  C:\Users\suminh\AppData\Local\Temp\ccbq3V5g.s 			page 23


 886              		@ sp needed
 887 006c 30BD     		pop	{r4, r5, pc}
 888              	.L61:
 889 006e 00BF     		.align	2
 890              	.L60:
 891 0070 10000000 		.word	.LC1
 892              		.cfi_endproc
 893              	.LFE74:
 894              		.size	gyro_read, .-gyro_read
 895              		.section	.text.nunchuk_init,"ax",%progbits
 896              		.align	2
 897              		.global	nunchuk_init
 898              		.thumb
 899              		.thumb_func
 900              		.type	nunchuk_init, %function
 901              	nunchuk_init:
 902              	.LFB75:
 342:.\main.c      **** 
 343:.\main.c      **** 
 344:.\main.c      **** void nunchuk_init(void)
 345:.\main.c      **** {
 903              		.loc 1 345 0
 904              		.cfi_startproc
 905              		@ args = 0, pretend = 0, frame = 8
 906              		@ frame_needed = 0, uses_anonymous_args = 0
 907 0000 10B5     		push	{r4, lr}
 908              		.cfi_def_cfa_offset 8
 909              		.cfi_offset 4, -8
 910              		.cfi_offset 14, -4
 911 0002 82B0     		sub	sp, sp, #8
 912              		.cfi_def_cfa_offset 16
 346:.\main.c      ****     uint8_t buf[2] = { 0x40, 0x00 };
 913              		.loc 1 346 0
 914 0004 4023     		movs	r3, #64
 915 0006 8DF80430 		strb	r3, [sp, #4]
 916 000a 0024     		movs	r4, #0
 917 000c 8DF80540 		strb	r4, [sp, #5]
 347:.\main.c      ****     uint8_t status;
 348:.\main.c      ****     I2C_2_MasterClearStatus();
 918              		.loc 1 348 0
 919 0010 FFF7FEFF 		bl	I2C_2_MasterClearStatus
 920              	.LVL102:
 349:.\main.c      ****     CyDelay(100);
 921              		.loc 1 349 0
 922 0014 6420     		movs	r0, #100
 923 0016 FFF7FEFF 		bl	CyDelay
 924              	.LVL103:
 350:.\main.c      ****     status = I2C_2_MasterWriteBuf(0x52, buf, 2, I2C_2_MODE_COMPLETE_XFER);
 925              		.loc 1 350 0
 926 001a 5220     		movs	r0, #82
 927 001c 01A9     		add	r1, sp, #4
 928 001e 0222     		movs	r2, #2
 929 0020 2346     		mov	r3, r4
 930 0022 FFF7FEFF 		bl	I2C_2_MasterWriteBuf
 931              	.LVL104:
 932              	.L63:
 351:.\main.c      ****     while(((status = I2C_2_MasterStatus()) & I2C_2_MSTAT_WR_CMPLT) == 0);
ARM GAS  C:\Users\suminh\AppData\Local\Temp\ccbq3V5g.s 			page 24


 933              		.loc 1 351 0 discriminator 1
 934 0026 FFF7FEFF 		bl	I2C_2_MasterStatus
 935              	.LVL105:
 936 002a 10F0020F 		tst	r0, #2
 937 002e FAD0     		beq	.L63
 352:.\main.c      ****     CyDelay(100);
 938              		.loc 1 352 0
 939 0030 6420     		movs	r0, #100
 940              	.LVL106:
 941 0032 FFF7FEFF 		bl	CyDelay
 942              	.LVL107:
 353:.\main.c      **** }    
 943              		.loc 1 353 0
 944 0036 02B0     		add	sp, sp, #8
 945              		.cfi_def_cfa_offset 8
 946              		@ sp needed
 947 0038 10BD     		pop	{r4, pc}
 948              		.cfi_endproc
 949              	.LFE75:
 950              		.size	nunchuk_init, .-nunchuk_init
 951 003a 00BF     		.section	.text.nunchuk_read,"ax",%progbits
 952              		.align	2
 953              		.global	nunchuk_read
 954              		.thumb
 955              		.thumb_func
 956              		.type	nunchuk_read, %function
 957              	nunchuk_read:
 958              	.LFB76:
 354:.\main.c      **** 
 355:.\main.c      **** void nunchuk_read(void)
 356:.\main.c      **** {
 959              		.loc 1 356 0
 960              		.cfi_startproc
 961              		@ args = 0, pretend = 0, frame = 8
 962              		@ frame_needed = 0, uses_anonymous_args = 0
 963 0000 30B5     		push	{r4, r5, lr}
 964              		.cfi_def_cfa_offset 12
 965              		.cfi_offset 4, -12
 966              		.cfi_offset 5, -8
 967              		.cfi_offset 14, -4
 968 0002 83B0     		sub	sp, sp, #12
 969              		.cfi_def_cfa_offset 24
 357:.\main.c      ****     uint8_t status;
 358:.\main.c      ****     uint8_t buf[6];
 359:.\main.c      ****     // send conversion command
 360:.\main.c      ****     buf[0] = 0x00;
 970              		.loc 1 360 0
 971 0004 0025     		movs	r5, #0
 972 0006 02AC     		add	r4, sp, #8
 973 0008 04F8085D 		strb	r5, [r4, #-8]!
 361:.\main.c      ****     I2C_2_MasterClearStatus();
 974              		.loc 1 361 0
 975 000c FFF7FEFF 		bl	I2C_2_MasterClearStatus
 976              	.LVL108:
 362:.\main.c      ****     status = I2C_2_MasterWriteBuf(0x52, buf, 1, I2C_2_MODE_COMPLETE_XFER);
 977              		.loc 1 362 0
 978 0010 5220     		movs	r0, #82
ARM GAS  C:\Users\suminh\AppData\Local\Temp\ccbq3V5g.s 			page 25


 979 0012 2146     		mov	r1, r4
 980 0014 0122     		movs	r2, #1
 981 0016 2B46     		mov	r3, r5
 982 0018 FFF7FEFF 		bl	I2C_2_MasterWriteBuf
 983              	.LVL109:
 984              	.L66:
 363:.\main.c      ****     while(((status = I2C_2_MasterStatus()) & I2C_2_MSTAT_WR_CMPLT) == 0);
 985              		.loc 1 363 0 discriminator 1
 986 001c FFF7FEFF 		bl	I2C_2_MasterStatus
 987              	.LVL110:
 988 0020 10F0020F 		tst	r0, #2
 989 0024 FAD0     		beq	.L66
 364:.\main.c      ****     // wait for conversion to complete
 365:.\main.c      ****     CyDelay(50); // todo: check if shorter wait would work
 990              		.loc 1 365 0
 991 0026 3220     		movs	r0, #50
 992              	.LVL111:
 993 0028 FFF7FEFF 		bl	CyDelay
 994              	.LVL112:
 366:.\main.c      ****     // read values
 367:.\main.c      ****     I2C_2_MasterClearStatus();
 995              		.loc 1 367 0
 996 002c FFF7FEFF 		bl	I2C_2_MasterClearStatus
 997              	.LVL113:
 368:.\main.c      ****     status = I2C_2_MasterReadBuf(0x52, buf, 6, I2C_2_MODE_COMPLETE_XFER);
 998              		.loc 1 368 0
 999 0030 5220     		movs	r0, #82
 1000 0032 6946     		mov	r1, sp
 1001 0034 0622     		movs	r2, #6
 1002 0036 0023     		movs	r3, #0
 1003 0038 FFF7FEFF 		bl	I2C_2_MasterReadBuf
 1004              	.LVL114:
 1005              	.L67:
 369:.\main.c      ****     while(((status = I2C_2_MasterStatus()) & I2C_2_MSTAT_RD_CMPLT) == 0);
 1006              		.loc 1 369 0 discriminator 1
 1007 003c FFF7FEFF 		bl	I2C_2_MasterStatus
 1008              	.LVL115:
 1009 0040 10F0010F 		tst	r0, #1
 1010 0044 FAD0     		beq	.L67
 1011 0046 0023     		movs	r3, #0
 1012 0048 00E0     		b	.L68
 1013              	.LVL116:
 1014              	.L69:
 370:.\main.c      ****     
 371:.\main.c      ****     int i;
 372:.\main.c      ****     // decrypt data
 373:.\main.c      ****     for(i = 0; i < 6; i++) buf[i] = (buf[i] ^ 0x17) + 0x17;
 1015              		.loc 1 373 0 discriminator 3
 1016 004a 0133     		adds	r3, r3, #1
 1017              	.LVL117:
 1018              	.L68:
 1019              		.loc 1 373 0 is_stmt 0 discriminator 1
 1020 004c 052B     		cmp	r3, #5
 1021 004e FCDD     		ble	.L69
 374:.\main.c      ****     // accelerometer values
 375:.\main.c      ****     /*
 376:.\main.c      ****     int x,y,z;
ARM GAS  C:\Users\suminh\AppData\Local\Temp\ccbq3V5g.s 			page 26


 377:.\main.c      ****     x = (buf[2] << 2) | ((buf[5] >> 2) & 0x03);
 378:.\main.c      ****     y = (buf[3] << 2) | ((buf[5] >> 4) & 0x03);
 379:.\main.c      ****     z = (buf[4] << 2) | ((buf[5] >> 6) & 0x03);
 380:.\main.c      ****     // buf[0] = JoyX, buf[1] = JoyY
 381:.\main.c      ****     //printf("%3d %3d, %d, %d, %4d %4d %4d\r\n", buf[0], buf[1], (buf[5] >> 1) & 1, buf[5] & 1, x, 
 382:.\main.c      ****     */
 383:.\main.c      **** }    
 1022              		.loc 1 383 0 is_stmt 1
 1023 0050 03B0     		add	sp, sp, #12
 1024              		.cfi_def_cfa_offset 12
 1025              		@ sp needed
 1026 0052 30BD     		pop	{r4, r5, pc}
 1027              		.cfi_endproc
 1028              	.LFE76:
 1029              		.size	nunchuk_read, .-nunchuk_read
 1030              		.section	.text._write,"ax",%progbits
 1031              		.align	2
 1032              		.global	_write
 1033              		.thumb
 1034              		.thumb_func
 1035              		.type	_write, %function
 1036              	_write:
 1037              	.LFB77:
 384:.\main.c      **** 
 385:.\main.c      **** #if 0
 386:.\main.c      **** int rread(void)
 387:.\main.c      **** {
 388:.\main.c      ****     SC0_SetDriveMode(PIN_DM_STRONG);
 389:.\main.c      ****     SC0_Write(1);
 390:.\main.c      ****     CyDelayUs(10);
 391:.\main.c      ****     SC0_SetDriveMode(PIN_DM_DIG_HIZ);
 392:.\main.c      ****     Timer_1_Start();
 393:.\main.c      ****     uint16_t start = Timer_1_ReadCounter();
 394:.\main.c      ****     uint16_t end = 0;
 395:.\main.c      ****     while(!(Timer_1_ReadStatusRegister() & Timer_1_STATUS_TC)) {
 396:.\main.c      ****         if(SC0_Read() == 0 && end == 0) {
 397:.\main.c      ****             end = Timer_1_ReadCounter();
 398:.\main.c      ****         }
 399:.\main.c      ****     }
 400:.\main.c      ****     Timer_1_Stop();
 401:.\main.c      ****     
 402:.\main.c      ****     return (start - end);
 403:.\main.c      **** }
 404:.\main.c      **** #endif
 405:.\main.c      **** 
 406:.\main.c      **** int _write(int file, char *ptr, int len)
 407:.\main.c      **** {
 1038              		.loc 1 407 0
 1039              		.cfi_startproc
 1040              		@ args = 0, pretend = 0, frame = 0
 1041              		@ frame_needed = 0, uses_anonymous_args = 0
 1042              	.LVL118:
 1043 0000 70B5     		push	{r4, r5, r6, lr}
 1044              		.cfi_def_cfa_offset 16
 1045              		.cfi_offset 4, -16
 1046              		.cfi_offset 5, -12
 1047              		.cfi_offset 6, -8
ARM GAS  C:\Users\suminh\AppData\Local\Temp\ccbq3V5g.s 			page 27


 1048              		.cfi_offset 14, -4
 1049 0002 1646     		mov	r6, r2
 1050              	.LVL119:
 408:.\main.c      ****     (void) file;
 409:.\main.c      **** 	int n;
 410:.\main.c      **** 	for(n = 0; n < len; n++) {
 1051              		.loc 1 410 0
 1052 0004 0024     		movs	r4, #0
 1053 0006 05E0     		b	.L72
 1054              	.LVL120:
 1055              	.L73:
 411:.\main.c      **** 		UART_PutChar(*ptr++);
 1056              		.loc 1 411 0 discriminator 3
 1057 0008 4D1C     		adds	r5, r1, #1
 1058              	.LVL121:
 1059 000a 0878     		ldrb	r0, [r1]	@ zero_extendqisi2
 1060 000c FFF7FEFF 		bl	UART_PutChar
 1061              	.LVL122:
 410:.\main.c      **** 		UART_PutChar(*ptr++);
 1062              		.loc 1 410 0 discriminator 3
 1063 0010 0134     		adds	r4, r4, #1
 1064              	.LVL123:
 1065              		.loc 1 411 0 discriminator 3
 1066 0012 2946     		mov	r1, r5
 1067              	.LVL124:
 1068              	.L72:
 410:.\main.c      **** 		UART_PutChar(*ptr++);
 1069              		.loc 1 410 0 discriminator 1
 1070 0014 B442     		cmp	r4, r6
 1071 0016 F7DB     		blt	.L73
 412:.\main.c      **** 	}
 413:.\main.c      **** 	return len;
 414:.\main.c      **** }
 1072              		.loc 1 414 0
 1073 0018 3046     		mov	r0, r6
 1074 001a 70BD     		pop	{r4, r5, r6, pc}
 1075              		.cfi_endproc
 1076              	.LFE77:
 1077              		.size	_write, .-_write
 1078              		.comm	digital_sensor_value,8,4
 1079              		.comm	sensors,8,4
 1080              		.comm	buffer,22,4
 1081              		.section	.rodata.str1.4,"aMS",%progbits,1
 1082              		.align	2
 1083              	.LC0:
 1084 0000 25642025 		.ascii	"%d %d %d %d \011\000"
 1084      64202564 
 1084      20256420 
 1084      0900
 1085 000e 0000     		.space	2
 1086              	.LC1:
 1087 0010 25642025 		.ascii	"%d %d %d %d %d %d\015\012\000"
 1087      64202564 
 1087      20256420 
 1087      25642025 
 1087      640D0A00 
 1088              	.LC2:
ARM GAS  C:\Users\suminh\AppData\Local\Temp\ccbq3V5g.s 			page 28


 1089 0024 0D0A00   		.ascii	"\015\012\000"
 1090 0027 00       		.space	1
 1091              	.LC3:
 1092 0028 53746172 		.ascii	"Start\015\000"
 1092      740D00
 1093 002f 00       		.text
 1094              	.Letext0:
 1095              		.file 2 "c:\\program files (x86)\\cypress\\psoc creator\\3.3\\psoc creator\\import\\gnu\\arm\\4.9.
 1096              		.file 3 "c:\\program files (x86)\\cypress\\psoc creator\\3.3\\psoc creator\\import\\gnu\\arm\\4.9.
 1097              		.file 4 "Generated_Source\\PSoC5/cytypes.h"
 1098              		.file 5 "Generated_Source\\PSoC5/core_cm3.h"
 1099              		.file 6 "Generated_Source\\PSoC5/Timer_RL.h"
 1100              		.file 7 "Generated_Source\\PSoC5/Timer_RR.h"
 1101              		.file 8 "Generated_Source\\PSoC5/Timer_LL.h"
 1102              		.file 9 "Generated_Source\\PSoC5/Timer_LR.h"
 1103              		.file 10 "Generated_Source\\PSoC5/RL.h"
 1104              		.file 11 "Generated_Source\\PSoC5/RR.h"
 1105              		.file 12 "Generated_Source\\PSoC5/LL.h"
 1106              		.file 13 "Generated_Source\\PSoC5/LR.h"
 1107              		.file 14 "Generated_Source\\PSoC5/CyLib.h"
 1108              		.file 15 "Generated_Source\\PSoC5/PWM.h"
 1109              		.file 16 "Generated_Source\\PSoC5/MotorDirLeft.h"
 1110              		.file 17 "Generated_Source\\PSoC5/MotorDirRight.h"
 1111              		.file 18 "Generated_Source\\PSoC5/I2C.h"
 1112              		.file 19 "c:\\program files (x86)\\cypress\\psoc creator\\3.3\\psoc creator\\import\\gnu\\arm\\4.9
 1113              		.file 20 "Generated_Source\\PSoC5/sensor_isr.h"
 1114              		.file 21 "Generated_Source\\PSoC5/UART.h"
 1115              		.file 22 "<built-in>"
 1116              		.file 23 "Generated_Source\\PSoC5/IR_led.h"
 1117              		.file 24 "Generated_Source\\PSoC5/I2C_2.h"