ARM GAS  C:\Users\dufma\AppData\Local\Temp\ccK8xGNc.s 			page 1


   1              		.syntax unified
   2              		.cpu cortex-m3
   3              		.fpu softvfp
   4              		.eabi_attribute 20, 1
   5              		.eabi_attribute 21, 1
   6              		.eabi_attribute 23, 3
   7              		.eabi_attribute 24, 1
   8              		.eabi_attribute 25, 1
   9              		.eabi_attribute 26, 1
  10              		.eabi_attribute 30, 1
  11              		.eabi_attribute 34, 1
  12              		.eabi_attribute 18, 4
  13              		.thumb
  14              		.file	"main.c"
  15              		.text
  16              	.Ltext0:
  17              		.cfi_sections	.debug_frame
  18              		.section	.text.main,"ax",%progbits
  19              		.align	2
  20              		.global	main
  21              		.thumb
  22              		.thumb_func
  23              		.type	main, %function
  24              	main:
  25              	.LFB63:
  26              		.file 1 ".\\main.c"
   1:.\main.c      **** /* ========================================
   2:.\main.c      ****  *
   3:.\main.c      ****  * Copyright YOUR COMPANY, THE YEAR
   4:.\main.c      ****  * All Rights Reserved
   5:.\main.c      ****  * UNPUBLISHED, LICENSED SOFTWARE.
   6:.\main.c      ****  *
   7:.\main.c      ****  * CONFIDENTIAL AND PROPRIETARY INFORMATION
   8:.\main.c      ****  * WHICH IS THE PROPERTY OF your company.
   9:.\main.c      ****  *
  10:.\main.c      ****  * ========================================
  11:.\main.c      **** */
  12:.\main.c      **** #include <project.h>
  13:.\main.c      **** #include <stdio.h>
  14:.\main.c      **** #include "Motor.h"
  15:.\main.c      **** #include "Ultra.h"
  16:.\main.c      **** #include "nunchuk.h"
  17:.\main.c      **** #include "Reflectance.h"
  18:.\main.c      **** 
  19:.\main.c      **** int rread(void);
  20:.\main.c      **** 
  21:.\main.c      **** int main()
  22:.\main.c      **** {
  27              		.loc 1 22 0
  28              		.cfi_startproc
  29              		@ Volatile: function does not return.
  30              		@ args = 0, pretend = 0, frame = 0
  31              		@ frame_needed = 0, uses_anonymous_args = 0
  32 0000 08B5     		push	{r3, lr}
  33              		.cfi_def_cfa_offset 8
  34              		.cfi_offset 3, -8
  35              		.cfi_offset 14, -4
ARM GAS  C:\Users\dufma\AppData\Local\Temp\ccK8xGNc.s 			page 2


  23:.\main.c      ****     CyGlobalIntEnable; 
  36              		.loc 1 23 0
  37              	@ 23 ".\main.c" 1
  38 0002 62B6     		CPSIE   i
  39              	@ 0 "" 2
  24:.\main.c      ****     UART_Start();
  40              		.loc 1 24 0
  41              		.thumb
  42 0004 FFF7FEFF 		bl	UART_Start
  43              	.LVL0:
  25:.\main.c      ****     printf("Start\r\n");
  44              		.loc 1 25 0
  45 0008 0948     		ldr	r0, .L4
  46 000a FFF7FEFF 		bl	puts
  47              	.LVL1:
  26:.\main.c      ****     
  27:.\main.c      ****     /* //reflectance//
  28:.\main.c      ****     ----------------------------------------------------*/
  29:.\main.c      ****     sensor_isr_StartEx(sensor_isr_handler);
  48              		.loc 1 29 0
  49 000e 0948     		ldr	r0, .L4+4
  50 0010 FFF7FEFF 		bl	sensor_isr_StartEx
  51              	.LVL2:
  30:.\main.c      ****     
  31:.\main.c      ****     Refelctance_Start();
  52              		.loc 1 31 0
  53 0014 FFF7FEFF 		bl	Refelctance_Start
  54              	.LVL3:
  32:.\main.c      **** 
  33:.\main.c      ****     IR_led_Write(1);
  55              		.loc 1 33 0
  56 0018 0120     		movs	r0, #1
  57 001a FFF7FEFF 		bl	IR_led_Write
  58              	.LVL4:
  59              	.L2:
  34:.\main.c      ****     for(;;)
  35:.\main.c      ****     {
  36:.\main.c      ****         reflectance_period();      //print out each period of reflectance sensors
  60              		.loc 1 36 0 discriminator 1
  61 001e FFF7FEFF 		bl	reflectance_period
  62              	.LVL5:
  37:.\main.c      ****         reflectance_digital();      //print out 0 or 1 according to results of reflectance period
  63              		.loc 1 37 0 discriminator 1
  64 0022 FFF7FEFF 		bl	reflectance_digital
  65              	.LVL6:
  38:.\main.c      ****         
  39:.\main.c      ****         CyDelay(500);
  66              		.loc 1 39 0 discriminator 1
  67 0026 4FF4FA70 		mov	r0, #500
  68 002a FFF7FEFF 		bl	CyDelay
  69              	.LVL7:
  40:.\main.c      ****     }
  70              		.loc 1 40 0 discriminator 1
  71 002e F6E7     		b	.L2
  72              	.L5:
  73              		.align	2
  74              	.L4:
ARM GAS  C:\Users\dufma\AppData\Local\Temp\ccK8xGNc.s 			page 3


  75 0030 00000000 		.word	.LC0
  76 0034 00000000 		.word	sensor_isr_handler
  77              		.cfi_endproc
  78              	.LFE63:
  79              		.size	main, .-main
  80              		.section	.text._write,"ax",%progbits
  81              		.align	2
  82              		.global	_write
  83              		.thumb
  84              		.thumb_func
  85              		.type	_write, %function
  86              	_write:
  87              	.LFB64:
  41:.\main.c      ****     /*----------------------------------------------------*/
  42:.\main.c      ****     
  43:.\main.c      ****      /* //ultra//
  44:.\main.c      ****     ----------------------------------------------------
  45:.\main.c      ****     ultra_isr_StartEx(ultra_isr_handler);   // Ultra Sonic Interrupt
  46:.\main.c      ****     Ultra_Start();                          // Ultra Sonic Start function
  47:.\main.c      ****    
  48:.\main.c      ****     for(;;)
  49:.\main.c      ****     {       
  50:.\main.c      ****         CyDelay(100); 
  51:.\main.c      ****         Trig_Write(1);           // Trigger High
  52:.\main.c      ****         CyDelayUs(10);              // 10 micro seconds for trigger input signals
  53:.\main.c      ****         Trig_Write(0);           // Trigger Low
  54:.\main.c      ****     }
  55:.\main.c      ****     ----------------------------------------------------*/
  56:.\main.c      ****     
  57:.\main.c      ****      /* //motor//
  58:.\main.c      ****     ----------------------------------------------------
  59:.\main.c      ****     motor_Start();              // motor start
  60:.\main.c      **** 
  61:.\main.c      ****     motor_forward(50,2000);     // moving forward
  62:.\main.c      ****     motor_turn(20,50,2000);     // turn
  63:.\main.c      ****     motor_turn(50,20,2000);     // turn
  64:.\main.c      ****     motor_backward(50,2000);    // movinb backward
  65:.\main.c      ****        
  66:.\main.c      ****     motor_Stop();               // motor stop
  67:.\main.c      ****     
  68:.\main.c      ****     for(;;)
  69:.\main.c      ****     {
  70:.\main.c      **** 
  71:.\main.c      ****     }
  72:.\main.c      ****     ----------------------------------------------------*/
  73:.\main.c      ****     
  74:.\main.c      ****     
  75:.\main.c      ****     /*  //nunchuk//
  76:.\main.c      ****     ----------------------------------------------------
  77:.\main.c      ****     nunchuk_start();
  78:.\main.c      ****     nunchuk_init();
  79:.\main.c      ****     
  80:.\main.c      ****     for(;;)
  81:.\main.c      ****     {    
  82:.\main.c      ****         nunchuk_read();
  83:.\main.c      ****     }
  84:.\main.c      ****     ----------------------------------------------------*/
ARM GAS  C:\Users\dufma\AppData\Local\Temp\ccK8xGNc.s 			page 4


  85:.\main.c      ****     
  86:.\main.c      ****    
  87:.\main.c      ****     
  88:.\main.c      ****    
  89:.\main.c      **** }
  90:.\main.c      **** 
  91:.\main.c      **** 
  92:.\main.c      **** #if 0
  93:.\main.c      **** int rread(void)
  94:.\main.c      **** {
  95:.\main.c      ****     SC0_SetDriveMode(PIN_DM_STRONG);
  96:.\main.c      ****     SC0_Write(1);
  97:.\main.c      ****     CyDelayUs(10);
  98:.\main.c      ****     SC0_SetDriveMode(PIN_DM_DIG_HIZ);
  99:.\main.c      ****     Timer_1_Start();
 100:.\main.c      ****     uint16_t start = Timer_1_ReadCounter();
 101:.\main.c      ****     uint16_t end = 0;
 102:.\main.c      ****     while(!(Timer_1_ReadStatusRegister() & Timer_1_STATUS_TC)) {
 103:.\main.c      ****         if(SC0_Read() == 0 && end == 0) {
 104:.\main.c      ****             end = Timer_1_ReadCounter();
 105:.\main.c      ****         }
 106:.\main.c      ****     }
 107:.\main.c      ****     Timer_1_Stop();
 108:.\main.c      ****     
 109:.\main.c      ****     return (start - end);
 110:.\main.c      **** }
 111:.\main.c      **** #endif
 112:.\main.c      **** 
 113:.\main.c      **** int _write(int file, char *ptr, int len)
 114:.\main.c      **** {
  88              		.loc 1 114 0
  89              		.cfi_startproc
  90              		@ args = 0, pretend = 0, frame = 0
  91              		@ frame_needed = 0, uses_anonymous_args = 0
  92              	.LVL8:
  93 0000 70B5     		push	{r4, r5, r6, lr}
  94              		.cfi_def_cfa_offset 16
  95              		.cfi_offset 4, -16
  96              		.cfi_offset 5, -12
  97              		.cfi_offset 6, -8
  98              		.cfi_offset 14, -4
  99 0002 1646     		mov	r6, r2
 100              	.LVL9:
 115:.\main.c      ****     (void) file;
 116:.\main.c      **** 	int n;
 117:.\main.c      **** 	for(n = 0; n < len; n++) {
 101              		.loc 1 117 0
 102 0004 0024     		movs	r4, #0
 103 0006 05E0     		b	.L7
 104              	.LVL10:
 105              	.L8:
 118:.\main.c      **** 		UART_PutChar(*ptr++);
 106              		.loc 1 118 0 discriminator 3
 107 0008 4D1C     		adds	r5, r1, #1
 108              	.LVL11:
 109 000a 0878     		ldrb	r0, [r1]	@ zero_extendqisi2
 110 000c FFF7FEFF 		bl	UART_PutChar
ARM GAS  C:\Users\dufma\AppData\Local\Temp\ccK8xGNc.s 			page 5


 111              	.LVL12:
 117:.\main.c      **** 		UART_PutChar(*ptr++);
 112              		.loc 1 117 0 discriminator 3
 113 0010 0134     		adds	r4, r4, #1
 114              	.LVL13:
 115              		.loc 1 118 0 discriminator 3
 116 0012 2946     		mov	r1, r5
 117              	.LVL14:
 118              	.L7:
 117:.\main.c      **** 		UART_PutChar(*ptr++);
 119              		.loc 1 117 0 discriminator 1
 120 0014 B442     		cmp	r4, r6
 121 0016 F7DB     		blt	.L8
 119:.\main.c      **** 	}
 120:.\main.c      **** 	return len;
 121:.\main.c      **** }
 122              		.loc 1 121 0
 123 0018 3046     		mov	r0, r6
 124 001a 70BD     		pop	{r4, r5, r6, pc}
 125              		.cfi_endproc
 126              	.LFE64:
 127              		.size	_write, .-_write
 128              		.comm	digital_sensor_value,8,4
 129              		.comm	sensors,8,4
 130              		.section	.rodata.str1.4,"aMS",%progbits,1
 131              		.align	2
 132              	.LC0:
 133 0000 53746172 		.ascii	"Start\015\000"
 133      740D00
 134 0007 00       		.text
 135              	.Letext0:
 136              		.file 2 "c:\\program files (x86)\\cypress\\psoc creator\\3.3\\psoc creator\\import\\gnu\\arm\\4.9.
 137              		.file 3 "c:\\program files (x86)\\cypress\\psoc creator\\3.3\\psoc creator\\import\\gnu\\arm\\4.9.
 138              		.file 4 "Generated_Source\\PSoC5/cytypes.h"
 139              		.file 5 ".\\Reflectance.h"
 140              		.file 6 "Generated_Source\\PSoC5/core_cm3.h"
 141              		.file 7 "Generated_Source\\PSoC5/sensor_isr.h"
 142              		.file 8 "Generated_Source\\PSoC5/IR_led.h"
 143              		.file 9 "Generated_Source\\PSoC5/CyLib.h"
 144              		.file 10 "Generated_Source\\PSoC5/UART.h"
 145              		.file 11 "<built-in>"