ARM GAS  C:\Users\suminh\AppData\Local\Temp\ccVooiEL.s 			page 1


   1              		.syntax unified
   2              		.cpu cortex-m3
   3              		.fpu softvfp
   4              		.eabi_attribute 20, 1
   5              		.eabi_attribute 21, 1
   6              		.eabi_attribute 23, 3
   7              		.eabi_attribute 24, 1
   8              		.eabi_attribute 25, 1
   9              		.eabi_attribute 26, 1
  10              		.eabi_attribute 30, 1
  11              		.eabi_attribute 34, 1
  12              		.eabi_attribute 18, 4
  13              		.thumb
  14              		.file	"main.c"
  15              		.text
  16              	.Ltext0:
  17              		.cfi_sections	.debug_frame
  18              		.section	.text.sensor_isr_handler,"ax",%progbits
  19              		.align	2
  20              		.global	sensor_isr_handler
  21              		.thumb
  22              		.thumb_func
  23              		.type	sensor_isr_handler, %function
  24              	sensor_isr_handler:
  25              	.LFB67:
  26              		.file 1 ".\\main.c"
   1:.\main.c      **** /* ========================================
   2:.\main.c      ****  *
   3:.\main.c      ****  * Copyright YOUR COMPANY, THE YEAR
   4:.\main.c      ****  * All Rights Reserved
   5:.\main.c      ****  * UNPUBLISHED, LICENSED SOFTWARE.
   6:.\main.c      ****  *
   7:.\main.c      ****  * CONFIDENTIAL AND PROPRIETARY INFORMATION
   8:.\main.c      ****  * WHICH IS THE PROPERTY OF your company.
   9:.\main.c      ****  *
  10:.\main.c      ****  * ========================================
  11:.\main.c      **** */
  12:.\main.c      **** #include <project.h>
  13:.\main.c      **** #include <stdio.h>
  14:.\main.c      **** 
  15:.\main.c      **** #define Gyro_R 0xD5
  16:.\main.c      **** #define Gyro_W 0xD4
  17:.\main.c      **** #define Accel_R 0x3B
  18:.\main.c      **** #define Accel_W 0x3A
  19:.\main.c      **** 
  20:.\main.c      **** int rread(void);
  21:.\main.c      **** void reflectance_period();
  22:.\main.c      **** void reflectance_digital();
  23:.\main.c      **** void gyro_write();
  24:.\main.c      **** void gyro_read();
  25:.\main.c      **** void accel_read();
  26:.\main.c      **** 
  27:.\main.c      **** CY_ISR_PROTO(sensor_isr_handler);
  28:.\main.c      **** 
  29:.\main.c      **** volatile struct sensors_ {
  30:.\main.c      ****     uint16_t ll;
  31:.\main.c      ****     //uint16_t lc; // not used at the moment
ARM GAS  C:\Users\suminh\AppData\Local\Temp\ccVooiEL.s 			page 2


  32:.\main.c      ****     uint16_t lr;
  33:.\main.c      ****     uint16_t rl;
  34:.\main.c      ****     //uint16_t rc; // not used at the moment
  35:.\main.c      ****     uint16_t rr;
  36:.\main.c      **** } sensors;
  37:.\main.c      **** 
  38:.\main.c      **** volatile struct digital_sensor_value_ {         //digital value for recognizing black or white
  39:.\main.c      ****     uint16_t ll;
  40:.\main.c      ****     //uint16_t lc; // not used at the moment
  41:.\main.c      ****     uint16_t lr;
  42:.\main.c      ****     uint16_t rl;
  43:.\main.c      ****     //uint16_t rc; // not used at the moment
  44:.\main.c      ****     uint16_t rr;
  45:.\main.c      **** } digital_sensor_value;
  46:.\main.c      **** 
  47:.\main.c      **** /* moving forward */
  48:.\main.c      **** void motor_forward(uint8 speed,uint32 delay)
  49:.\main.c      **** {
  50:.\main.c      ****     PWM_WriteCompare1(speed); 
  51:.\main.c      ****     PWM_WriteCompare2(speed); 
  52:.\main.c      ****     CyDelay(delay);
  53:.\main.c      **** }
  54:.\main.c      **** 
  55:.\main.c      **** /* moving left when l_speed < r_speed or moving right when l_speed > r_speed */
  56:.\main.c      **** void motor_turn(uint8 l_speed, uint8 r_speed, uint32 delay)
  57:.\main.c      **** {
  58:.\main.c      ****     PWM_WriteCompare1(l_speed); 
  59:.\main.c      ****     PWM_WriteCompare2(r_speed); 
  60:.\main.c      ****     CyDelay(delay);
  61:.\main.c      **** }
  62:.\main.c      **** 
  63:.\main.c      **** /* moving backward */
  64:.\main.c      **** void motor_backward(uint8 speed,uint32 delay)
  65:.\main.c      **** {
  66:.\main.c      ****     MotorDirLeft_Write(1);
  67:.\main.c      ****     MotorDirRight_Write(1);
  68:.\main.c      ****     PWM_WriteCompare1(speed); 
  69:.\main.c      ****     PWM_WriteCompare2(speed); 
  70:.\main.c      ****     CyDelay(delay);
  71:.\main.c      **** }
  72:.\main.c      **** 
  73:.\main.c      **** 
  74:.\main.c      **** int main()
  75:.\main.c      **** {
  76:.\main.c      ****     sensor_isr_StartEx(sensor_isr_handler);
  77:.\main.c      ****     
  78:.\main.c      ****     CyGlobalIntEnable; /* Enable global interrupts. */
  79:.\main.c      **** 
  80:.\main.c      ****     /* Place your initialization/startup code here (e.g. MyInst_Start()) */
  81:.\main.c      ****     UART_Start();
  82:.\main.c      ****     Timer_RL_Start();
  83:.\main.c      ****     Timer_RR_Start();
  84:.\main.c      ****     Timer_LL_Start();
  85:.\main.c      ****     Timer_LR_Start();
  86:.\main.c      ****     PWM_Start();
  87:.\main.c      ****     
  88:.\main.c      ****     I2C_Start();
ARM GAS  C:\Users\suminh\AppData\Local\Temp\ccVooiEL.s 			page 3


  89:.\main.c      ****     
  90:.\main.c      ****     
  91:.\main.c      ****     printf("Start\r\n");
  92:.\main.c      ****     
  93:.\main.c      ****     uint8_t g_buf[6];
  94:.\main.c      ****     
  95:.\main.c      ****     I2C_Start();
  96:.\main.c      ****     
  97:.\main.c      ****     IR_led_Write(1);
  98:.\main.c      ****     for(;;)
  99:.\main.c      ****     {
 100:.\main.c      ****        // gyro_write();
 101:.\main.c      ****        gyro_read();
 102:.\main.c      ****         /* 
 103:.\main.c      ****         I2C_MasterWriteBuf(Gyro_W, g_buf, 1, I2C_MODE_COMPLETE_XFER);
 104:.\main.c      **** 
 105:.\main.c      ****         while(0u==(I2C_MasterStatus()& I2C_MSTAT_WR_CMPLT));
 106:.\main.c      **** 
 107:.\main.c      ****         I2C_MasterReadBuf(Gyro_R, g_buf, 6, I2C_MODE_COMPLETE_XFER);
 108:.\main.c      **** 
 109:.\main.c      ****         while(0u==(I2C_MasterStatus()& I2C_MSTAT_RD_CMPLT));
 110:.\main.c      ****         //printf("%d %d %d %d %d %d\r\n", g_buf[0], g_buf[1], g_buf[2], g_buf[3], g_buf[4], g_buf[5
 111:.\main.c      ****         CyDelay(500);*/
 112:.\main.c      ****     }
 113:.\main.c      **** }
 114:.\main.c      **** 
 115:.\main.c      **** CY_ISR(sensor_isr_handler)
 116:.\main.c      **** {
  27              		.loc 1 116 0
  28              		.cfi_startproc
  29              		@ args = 0, pretend = 0, frame = 0
  30              		@ frame_needed = 0, uses_anonymous_args = 0
  31 0000 F8B5     		push	{r3, r4, r5, r6, r7, lr}
  32              		.cfi_def_cfa_offset 24
  33              		.cfi_offset 3, -24
  34              		.cfi_offset 4, -20
  35              		.cfi_offset 5, -16
  36              		.cfi_offset 6, -12
  37              		.cfi_offset 7, -8
  38              		.cfi_offset 14, -4
 117:.\main.c      ****     uint32_t statusRL = Timer_RL_ReadStatusRegister();
  39              		.loc 1 117 0
  40 0002 FFF7FEFF 		bl	Timer_RL_ReadStatusRegister
  41              	.LVL0:
  42 0006 0446     		mov	r4, r0
  43              	.LVL1:
 118:.\main.c      ****     uint32_t statusRR = Timer_RR_ReadStatusRegister();
  44              		.loc 1 118 0
  45 0008 FFF7FEFF 		bl	Timer_RR_ReadStatusRegister
  46              	.LVL2:
  47 000c 0746     		mov	r7, r0
  48              	.LVL3:
 119:.\main.c      ****     uint32_t statusLL = Timer_LL_ReadStatusRegister();
  49              		.loc 1 119 0
  50 000e FFF7FEFF 		bl	Timer_LL_ReadStatusRegister
  51              	.LVL4:
  52 0012 0646     		mov	r6, r0
ARM GAS  C:\Users\suminh\AppData\Local\Temp\ccVooiEL.s 			page 4


  53              	.LVL5:
 120:.\main.c      ****     uint32_t statusLR = Timer_LR_ReadStatusRegister();
  54              		.loc 1 120 0
  55 0014 FFF7FEFF 		bl	Timer_LR_ReadStatusRegister
  56              	.LVL6:
  57 0018 0546     		mov	r5, r0
  58              	.LVL7:
 121:.\main.c      **** 
 122:.\main.c      ****     if(statusRL & Timer_RL_STATUS_CAPTURE) {
  59              		.loc 1 122 0
  60 001a 14F0400F 		tst	r4, #64
  61 001e 09D0     		beq	.L2
 123:.\main.c      ****         sensors.rl = Timer_RL_ReadPeriod() - Timer_RL_ReadCapture();
  62              		.loc 1 123 0
  63 0020 FFF7FEFF 		bl	Timer_RL_ReadPeriod
  64              	.LVL8:
  65 0024 0446     		mov	r4, r0
  66              	.LVL9:
  67 0026 FFF7FEFF 		bl	Timer_RL_ReadCapture
  68              	.LVL10:
  69 002a 201A     		subs	r0, r4, r0
  70 002c 80B2     		uxth	r0, r0
  71 002e 314B     		ldr	r3, .L11
  72 0030 9880     		strh	r0, [r3, #4]	@ movhi
  73 0032 03E0     		b	.L3
  74              	.LVL11:
  75              	.L2:
 124:.\main.c      ****     }
 125:.\main.c      ****     else {
 126:.\main.c      ****         sensors.rl = Timer_RL_ReadPeriod();
  76              		.loc 1 126 0
  77 0034 FFF7FEFF 		bl	Timer_RL_ReadPeriod
  78              	.LVL12:
  79 0038 2E4B     		ldr	r3, .L11
  80 003a 9880     		strh	r0, [r3, #4]	@ movhi
  81              	.LVL13:
  82              	.L3:
 127:.\main.c      ****     }
 128:.\main.c      ****     
 129:.\main.c      ****     if(statusRR & Timer_RR_STATUS_CAPTURE) {
  83              		.loc 1 129 0
  84 003c 17F0400F 		tst	r7, #64
  85 0040 09D0     		beq	.L4
 130:.\main.c      ****         sensors.rr = Timer_RR_ReadPeriod() - Timer_RR_ReadCapture();
  86              		.loc 1 130 0
  87 0042 FFF7FEFF 		bl	Timer_RR_ReadPeriod
  88              	.LVL14:
  89 0046 0446     		mov	r4, r0
  90 0048 FFF7FEFF 		bl	Timer_RR_ReadCapture
  91              	.LVL15:
  92 004c 201A     		subs	r0, r4, r0
  93 004e 80B2     		uxth	r0, r0
  94 0050 284B     		ldr	r3, .L11
  95 0052 D880     		strh	r0, [r3, #6]	@ movhi
  96 0054 03E0     		b	.L5
  97              	.L4:
 131:.\main.c      ****     }
ARM GAS  C:\Users\suminh\AppData\Local\Temp\ccVooiEL.s 			page 5


 132:.\main.c      ****     else {
 133:.\main.c      ****         sensors.rr = Timer_RR_ReadPeriod();
  98              		.loc 1 133 0
  99 0056 FFF7FEFF 		bl	Timer_RR_ReadPeriod
 100              	.LVL16:
 101 005a 264B     		ldr	r3, .L11
 102 005c D880     		strh	r0, [r3, #6]	@ movhi
 103              	.L5:
 134:.\main.c      ****     }
 135:.\main.c      ****     
 136:.\main.c      ****     if(statusLL & Timer_LL_STATUS_CAPTURE) {
 104              		.loc 1 136 0
 105 005e 16F0400F 		tst	r6, #64
 106 0062 09D0     		beq	.L6
 137:.\main.c      ****         sensors.ll = Timer_LL_ReadPeriod() - Timer_LL_ReadCapture();
 107              		.loc 1 137 0
 108 0064 FFF7FEFF 		bl	Timer_LL_ReadPeriod
 109              	.LVL17:
 110 0068 0446     		mov	r4, r0
 111 006a FFF7FEFF 		bl	Timer_LL_ReadCapture
 112              	.LVL18:
 113 006e 201A     		subs	r0, r4, r0
 114 0070 80B2     		uxth	r0, r0
 115 0072 204B     		ldr	r3, .L11
 116 0074 1880     		strh	r0, [r3]	@ movhi
 117 0076 03E0     		b	.L7
 118              	.L6:
 138:.\main.c      ****     }
 139:.\main.c      ****     else {
 140:.\main.c      ****         sensors.ll = Timer_LL_ReadPeriod();
 119              		.loc 1 140 0
 120 0078 FFF7FEFF 		bl	Timer_LL_ReadPeriod
 121              	.LVL19:
 122 007c 1D4B     		ldr	r3, .L11
 123 007e 1880     		strh	r0, [r3]	@ movhi
 124              	.L7:
 141:.\main.c      ****     }
 142:.\main.c      ****     
 143:.\main.c      ****     if(statusLR & Timer_LR_STATUS_CAPTURE) {
 125              		.loc 1 143 0
 126 0080 15F0400F 		tst	r5, #64
 127 0084 09D0     		beq	.L8
 144:.\main.c      ****         sensors.lr = Timer_LR_ReadPeriod() - Timer_LR_ReadCapture();
 128              		.loc 1 144 0
 129 0086 FFF7FEFF 		bl	Timer_LR_ReadPeriod
 130              	.LVL20:
 131 008a 0446     		mov	r4, r0
 132 008c FFF7FEFF 		bl	Timer_LR_ReadCapture
 133              	.LVL21:
 134 0090 201A     		subs	r0, r4, r0
 135 0092 80B2     		uxth	r0, r0
 136 0094 174B     		ldr	r3, .L11
 137 0096 5880     		strh	r0, [r3, #2]	@ movhi
 138 0098 03E0     		b	.L9
 139              	.L8:
 145:.\main.c      ****     }
 146:.\main.c      ****     else {
ARM GAS  C:\Users\suminh\AppData\Local\Temp\ccVooiEL.s 			page 6


 147:.\main.c      ****         sensors.lr = Timer_LR_ReadPeriod();
 140              		.loc 1 147 0
 141 009a FFF7FEFF 		bl	Timer_LR_ReadPeriod
 142              	.LVL22:
 143 009e 154B     		ldr	r3, .L11
 144 00a0 5880     		strh	r0, [r3, #2]	@ movhi
 145              	.L9:
 148:.\main.c      ****     }
 149:.\main.c      ****     
 150:.\main.c      ****     RL_SetDriveMode(PIN_DM_STRONG);
 146              		.loc 1 150 0
 147 00a2 0C20     		movs	r0, #12
 148 00a4 FFF7FEFF 		bl	RL_SetDriveMode
 149              	.LVL23:
 151:.\main.c      ****     RL_Write(1);
 150              		.loc 1 151 0
 151 00a8 0120     		movs	r0, #1
 152 00aa FFF7FEFF 		bl	RL_Write
 153              	.LVL24:
 152:.\main.c      ****     RR_SetDriveMode(PIN_DM_STRONG);
 154              		.loc 1 152 0
 155 00ae 0C20     		movs	r0, #12
 156 00b0 FFF7FEFF 		bl	RR_SetDriveMode
 157              	.LVL25:
 153:.\main.c      ****     RR_Write(1);
 158              		.loc 1 153 0
 159 00b4 0120     		movs	r0, #1
 160 00b6 FFF7FEFF 		bl	RR_Write
 161              	.LVL26:
 154:.\main.c      ****     LL_SetDriveMode(PIN_DM_STRONG);
 162              		.loc 1 154 0
 163 00ba 0C20     		movs	r0, #12
 164 00bc FFF7FEFF 		bl	LL_SetDriveMode
 165              	.LVL27:
 155:.\main.c      ****     LL_Write(1);
 166              		.loc 1 155 0
 167 00c0 0120     		movs	r0, #1
 168 00c2 FFF7FEFF 		bl	LL_Write
 169              	.LVL28:
 156:.\main.c      ****     LR_SetDriveMode(PIN_DM_STRONG);
 170              		.loc 1 156 0
 171 00c6 0C20     		movs	r0, #12
 172 00c8 FFF7FEFF 		bl	LR_SetDriveMode
 173              	.LVL29:
 157:.\main.c      ****     LR_Write(1);
 174              		.loc 1 157 0
 175 00cc 0120     		movs	r0, #1
 176 00ce FFF7FEFF 		bl	LR_Write
 177              	.LVL30:
 158:.\main.c      ****     CyDelayUs(10);
 178              		.loc 1 158 0
 179 00d2 0A20     		movs	r0, #10
 180 00d4 FFF7FEFF 		bl	CyDelayUs
 181              	.LVL31:
 159:.\main.c      ****     RL_SetDriveMode(PIN_DM_DIG_HIZ);
 182              		.loc 1 159 0
 183 00d8 0220     		movs	r0, #2
ARM GAS  C:\Users\suminh\AppData\Local\Temp\ccVooiEL.s 			page 7


 184 00da FFF7FEFF 		bl	RL_SetDriveMode
 185              	.LVL32:
 160:.\main.c      ****     RR_SetDriveMode(PIN_DM_DIG_HIZ);
 186              		.loc 1 160 0
 187 00de 0220     		movs	r0, #2
 188 00e0 FFF7FEFF 		bl	RR_SetDriveMode
 189              	.LVL33:
 161:.\main.c      ****     LL_SetDriveMode(PIN_DM_DIG_HIZ);
 190              		.loc 1 161 0
 191 00e4 0220     		movs	r0, #2
 192 00e6 FFF7FEFF 		bl	LL_SetDriveMode
 193              	.LVL34:
 162:.\main.c      ****     LR_SetDriveMode(PIN_DM_DIG_HIZ);
 194              		.loc 1 162 0
 195 00ea 0220     		movs	r0, #2
 196 00ec FFF7FEFF 		bl	LR_SetDriveMode
 197              	.LVL35:
 198 00f0 F8BD     		pop	{r3, r4, r5, r6, r7, pc}
 199              	.LVL36:
 200              	.L12:
 201 00f2 00BF     		.align	2
 202              	.L11:
 203 00f4 00000000 		.word	sensors
 204              		.cfi_endproc
 205              	.LFE67:
 206              		.size	sensor_isr_handler, .-sensor_isr_handler
 207              		.section	.text.motor_forward,"ax",%progbits
 208              		.align	2
 209              		.global	motor_forward
 210              		.thumb
 211              		.thumb_func
 212              		.type	motor_forward, %function
 213              	motor_forward:
 214              	.LFB63:
  49:.\main.c      ****     PWM_WriteCompare1(speed); 
 215              		.loc 1 49 0
 216              		.cfi_startproc
 217              		@ args = 0, pretend = 0, frame = 0
 218              		@ frame_needed = 0, uses_anonymous_args = 0
 219              	.LVL37:
 220 0000 38B5     		push	{r3, r4, r5, lr}
 221              		.cfi_def_cfa_offset 16
 222              		.cfi_offset 3, -16
 223              		.cfi_offset 4, -12
 224              		.cfi_offset 5, -8
 225              		.cfi_offset 14, -4
 226 0002 0546     		mov	r5, r0
 227 0004 0C46     		mov	r4, r1
  50:.\main.c      ****     PWM_WriteCompare2(speed); 
 228              		.loc 1 50 0
 229 0006 FFF7FEFF 		bl	PWM_WriteCompare1
 230              	.LVL38:
  51:.\main.c      ****     CyDelay(delay);
 231              		.loc 1 51 0
 232 000a 2846     		mov	r0, r5
 233 000c FFF7FEFF 		bl	PWM_WriteCompare2
 234              	.LVL39:
ARM GAS  C:\Users\suminh\AppData\Local\Temp\ccVooiEL.s 			page 8


  52:.\main.c      **** }
 235              		.loc 1 52 0
 236 0010 2046     		mov	r0, r4
 237 0012 FFF7FEFF 		bl	CyDelay
 238              	.LVL40:
 239 0016 38BD     		pop	{r3, r4, r5, pc}
 240              		.cfi_endproc
 241              	.LFE63:
 242              		.size	motor_forward, .-motor_forward
 243              		.section	.text.motor_turn,"ax",%progbits
 244              		.align	2
 245              		.global	motor_turn
 246              		.thumb
 247              		.thumb_func
 248              		.type	motor_turn, %function
 249              	motor_turn:
 250              	.LFB64:
  57:.\main.c      ****     PWM_WriteCompare1(l_speed); 
 251              		.loc 1 57 0
 252              		.cfi_startproc
 253              		@ args = 0, pretend = 0, frame = 0
 254              		@ frame_needed = 0, uses_anonymous_args = 0
 255              	.LVL41:
 256 0000 38B5     		push	{r3, r4, r5, lr}
 257              		.cfi_def_cfa_offset 16
 258              		.cfi_offset 3, -16
 259              		.cfi_offset 4, -12
 260              		.cfi_offset 5, -8
 261              		.cfi_offset 14, -4
 262 0002 0D46     		mov	r5, r1
 263 0004 1446     		mov	r4, r2
  58:.\main.c      ****     PWM_WriteCompare2(r_speed); 
 264              		.loc 1 58 0
 265 0006 FFF7FEFF 		bl	PWM_WriteCompare1
 266              	.LVL42:
  59:.\main.c      ****     CyDelay(delay);
 267              		.loc 1 59 0
 268 000a 2846     		mov	r0, r5
 269 000c FFF7FEFF 		bl	PWM_WriteCompare2
 270              	.LVL43:
  60:.\main.c      **** }
 271              		.loc 1 60 0
 272 0010 2046     		mov	r0, r4
 273 0012 FFF7FEFF 		bl	CyDelay
 274              	.LVL44:
 275 0016 38BD     		pop	{r3, r4, r5, pc}
 276              		.cfi_endproc
 277              	.LFE64:
 278              		.size	motor_turn, .-motor_turn
 279              		.section	.text.motor_backward,"ax",%progbits
 280              		.align	2
 281              		.global	motor_backward
 282              		.thumb
 283              		.thumb_func
 284              		.type	motor_backward, %function
 285              	motor_backward:
 286              	.LFB65:
ARM GAS  C:\Users\suminh\AppData\Local\Temp\ccVooiEL.s 			page 9


  65:.\main.c      ****     MotorDirLeft_Write(1);
 287              		.loc 1 65 0
 288              		.cfi_startproc
 289              		@ args = 0, pretend = 0, frame = 0
 290              		@ frame_needed = 0, uses_anonymous_args = 0
 291              	.LVL45:
 292 0000 38B5     		push	{r3, r4, r5, lr}
 293              		.cfi_def_cfa_offset 16
 294              		.cfi_offset 3, -16
 295              		.cfi_offset 4, -12
 296              		.cfi_offset 5, -8
 297              		.cfi_offset 14, -4
 298 0002 0446     		mov	r4, r0
 299 0004 0D46     		mov	r5, r1
  66:.\main.c      ****     MotorDirRight_Write(1);
 300              		.loc 1 66 0
 301 0006 0120     		movs	r0, #1
 302              	.LVL46:
 303 0008 FFF7FEFF 		bl	MotorDirLeft_Write
 304              	.LVL47:
  67:.\main.c      ****     PWM_WriteCompare1(speed); 
 305              		.loc 1 67 0
 306 000c 0120     		movs	r0, #1
 307 000e FFF7FEFF 		bl	MotorDirRight_Write
 308              	.LVL48:
  68:.\main.c      ****     PWM_WriteCompare2(speed); 
 309              		.loc 1 68 0
 310 0012 2046     		mov	r0, r4
 311 0014 FFF7FEFF 		bl	PWM_WriteCompare1
 312              	.LVL49:
  69:.\main.c      ****     CyDelay(delay);
 313              		.loc 1 69 0
 314 0018 2046     		mov	r0, r4
 315 001a FFF7FEFF 		bl	PWM_WriteCompare2
 316              	.LVL50:
  70:.\main.c      **** }
 317              		.loc 1 70 0
 318 001e 2846     		mov	r0, r5
 319 0020 FFF7FEFF 		bl	CyDelay
 320              	.LVL51:
 321 0024 38BD     		pop	{r3, r4, r5, pc}
 322              		.cfi_endproc
 323              	.LFE65:
 324              		.size	motor_backward, .-motor_backward
 325 0026 00BF     		.section	.text.reflectance_period,"ax",%progbits
 326              		.align	2
 327              		.global	reflectance_period
 328              		.thumb
 329              		.thumb_func
 330              		.type	reflectance_period, %function
 331              	reflectance_period:
 332              	.LFB68:
 163:.\main.c      ****         
 164:.\main.c      **** }
 165:.\main.c      **** 
 166:.\main.c      **** void reflectance_period()
 167:.\main.c      **** {
ARM GAS  C:\Users\suminh\AppData\Local\Temp\ccVooiEL.s 			page 10


 333              		.loc 1 167 0
 334              		.cfi_startproc
 335              		@ args = 0, pretend = 0, frame = 0
 336              		@ frame_needed = 0, uses_anonymous_args = 0
 337 0000 00B5     		push	{lr}
 338              		.cfi_def_cfa_offset 4
 339              		.cfi_offset 14, -4
 340 0002 83B0     		sub	sp, sp, #12
 341              		.cfi_def_cfa_offset 16
 168:.\main.c      ****      printf("%d %d %d %d \t", sensors.ll, sensors.lr, sensors.rl, sensors.rr); 
 342              		.loc 1 168 0
 343 0004 0748     		ldr	r0, .L21
 344 0006 0188     		ldrh	r1, [r0]
 345 0008 4288     		ldrh	r2, [r0, #2]
 346 000a 8388     		ldrh	r3, [r0, #4]
 347 000c C088     		ldrh	r0, [r0, #6]
 348 000e 80B2     		uxth	r0, r0
 349 0010 0090     		str	r0, [sp]
 350 0012 0548     		ldr	r0, .L21+4
 351 0014 89B2     		uxth	r1, r1
 352 0016 92B2     		uxth	r2, r2
 353 0018 9BB2     		uxth	r3, r3
 354 001a FFF7FEFF 		bl	printf
 355              	.LVL52:
 169:.\main.c      **** }
 356              		.loc 1 169 0
 357 001e 03B0     		add	sp, sp, #12
 358              		.cfi_def_cfa_offset 4
 359              		@ sp needed
 360 0020 5DF804FB 		ldr	pc, [sp], #4
 361              	.L22:
 362              		.align	2
 363              	.L21:
 364 0024 00000000 		.word	sensors
 365 0028 00000000 		.word	.LC1
 366              		.cfi_endproc
 367              	.LFE68:
 368              		.size	reflectance_period, .-reflectance_period
 369              		.section	.text.reflectance_digital,"ax",%progbits
 370              		.align	2
 371              		.global	reflectance_digital
 372              		.thumb
 373              		.thumb_func
 374              		.type	reflectance_digital, %function
 375              	reflectance_digital:
 376              	.LFB69:
 170:.\main.c      **** 
 171:.\main.c      **** void reflectance_digital()
 172:.\main.c      **** {
 377              		.loc 1 172 0
 378              		.cfi_startproc
 379              		@ args = 0, pretend = 0, frame = 0
 380              		@ frame_needed = 0, uses_anonymous_args = 0
 381 0000 00B5     		push	{lr}
 382              		.cfi_def_cfa_offset 4
 383              		.cfi_offset 14, -4
 384 0002 83B0     		sub	sp, sp, #12
ARM GAS  C:\Users\suminh\AppData\Local\Temp\ccVooiEL.s 			page 11


 385              		.cfi_def_cfa_offset 16
 173:.\main.c      ****     //if the results of reflectance_period function is over 10000, set digital_sensor_value to 0, w
 174:.\main.c      ****     if(sensors.ll > 10000)
 386              		.loc 1 174 0
 387 0004 234B     		ldr	r3, .L33
 388 0006 1B88     		ldrh	r3, [r3]
 389 0008 9BB2     		uxth	r3, r3
 390 000a 42F21072 		movw	r2, #10000
 391 000e 9342     		cmp	r3, r2
 392 0010 03D9     		bls	.L24
 175:.\main.c      ****         digital_sensor_value.ll  = 0;
 393              		.loc 1 175 0
 394 0012 0022     		movs	r2, #0
 395 0014 204B     		ldr	r3, .L33+4
 396 0016 1A80     		strh	r2, [r3]	@ movhi
 397 0018 02E0     		b	.L25
 398              	.L24:
 176:.\main.c      ****     else
 177:.\main.c      ****         digital_sensor_value.ll  = 1;
 399              		.loc 1 177 0
 400 001a 0122     		movs	r2, #1
 401 001c 1E4B     		ldr	r3, .L33+4
 402 001e 1A80     		strh	r2, [r3]	@ movhi
 403              	.L25:
 178:.\main.c      ****     if(sensors.lr > 10000)
 404              		.loc 1 178 0
 405 0020 1C4B     		ldr	r3, .L33
 406 0022 5B88     		ldrh	r3, [r3, #2]
 407 0024 9BB2     		uxth	r3, r3
 408 0026 42F21072 		movw	r2, #10000
 409 002a 9342     		cmp	r3, r2
 410 002c 03D9     		bls	.L26
 179:.\main.c      ****         digital_sensor_value.lr  = 0;
 411              		.loc 1 179 0
 412 002e 0022     		movs	r2, #0
 413 0030 194B     		ldr	r3, .L33+4
 414 0032 5A80     		strh	r2, [r3, #2]	@ movhi
 415 0034 02E0     		b	.L27
 416              	.L26:
 180:.\main.c      ****     else
 181:.\main.c      ****         digital_sensor_value.lr  = 1;
 417              		.loc 1 181 0
 418 0036 0122     		movs	r2, #1
 419 0038 174B     		ldr	r3, .L33+4
 420 003a 5A80     		strh	r2, [r3, #2]	@ movhi
 421              	.L27:
 182:.\main.c      ****     if(sensors.rl > 10000)
 422              		.loc 1 182 0
 423 003c 154B     		ldr	r3, .L33
 424 003e 9B88     		ldrh	r3, [r3, #4]
 425 0040 9BB2     		uxth	r3, r3
 426 0042 42F21072 		movw	r2, #10000
 427 0046 9342     		cmp	r3, r2
 428 0048 03D9     		bls	.L28
 183:.\main.c      ****         digital_sensor_value.rl  = 0;
 429              		.loc 1 183 0
 430 004a 0022     		movs	r2, #0
ARM GAS  C:\Users\suminh\AppData\Local\Temp\ccVooiEL.s 			page 12


 431 004c 124B     		ldr	r3, .L33+4
 432 004e 9A80     		strh	r2, [r3, #4]	@ movhi
 433 0050 02E0     		b	.L29
 434              	.L28:
 184:.\main.c      ****     else
 185:.\main.c      ****         digital_sensor_value.rl  = 1;
 435              		.loc 1 185 0
 436 0052 0122     		movs	r2, #1
 437 0054 104B     		ldr	r3, .L33+4
 438 0056 9A80     		strh	r2, [r3, #4]	@ movhi
 439              	.L29:
 186:.\main.c      ****     if(sensors.rr > 10000)
 440              		.loc 1 186 0
 441 0058 0E4B     		ldr	r3, .L33
 442 005a DB88     		ldrh	r3, [r3, #6]
 443 005c 9BB2     		uxth	r3, r3
 444 005e 42F21072 		movw	r2, #10000
 445 0062 9342     		cmp	r3, r2
 446 0064 03D9     		bls	.L30
 187:.\main.c      ****         digital_sensor_value.rr  = 0;
 447              		.loc 1 187 0
 448 0066 0022     		movs	r2, #0
 449 0068 0B4B     		ldr	r3, .L33+4
 450 006a DA80     		strh	r2, [r3, #6]	@ movhi
 451 006c 02E0     		b	.L31
 452              	.L30:
 188:.\main.c      ****     else
 189:.\main.c      ****         digital_sensor_value.rr  = 1;
 453              		.loc 1 189 0
 454 006e 0122     		movs	r2, #1
 455 0070 094B     		ldr	r3, .L33+4
 456 0072 DA80     		strh	r2, [r3, #6]	@ movhi
 457              	.L31:
 190:.\main.c      ****         
 191:.\main.c      ****    //print out the results
 192:.\main.c      ****    printf("%d %d %d %d \t", digital_sensor_value.ll, digital_sensor_value.lr, digital_sensor_value.
 458              		.loc 1 192 0
 459 0074 0848     		ldr	r0, .L33+4
 460 0076 0188     		ldrh	r1, [r0]
 461 0078 4288     		ldrh	r2, [r0, #2]
 462 007a 8388     		ldrh	r3, [r0, #4]
 463 007c C088     		ldrh	r0, [r0, #6]
 464 007e 80B2     		uxth	r0, r0
 465 0080 0090     		str	r0, [sp]
 466 0082 0648     		ldr	r0, .L33+8
 467 0084 89B2     		uxth	r1, r1
 468 0086 92B2     		uxth	r2, r2
 469 0088 9BB2     		uxth	r3, r3
 470 008a FFF7FEFF 		bl	printf
 471              	.LVL53:
 193:.\main.c      **** }
 472              		.loc 1 193 0
 473 008e 03B0     		add	sp, sp, #12
 474              		.cfi_def_cfa_offset 4
 475              		@ sp needed
 476 0090 5DF804FB 		ldr	pc, [sp], #4
 477              	.L34:
ARM GAS  C:\Users\suminh\AppData\Local\Temp\ccVooiEL.s 			page 13


 478              		.align	2
 479              	.L33:
 480 0094 00000000 		.word	sensors
 481 0098 00000000 		.word	digital_sensor_value
 482 009c 00000000 		.word	.LC1
 483              		.cfi_endproc
 484              	.LFE69:
 485              		.size	reflectance_digital, .-reflectance_digital
 486              		.section	.text.accel_read,"ax",%progbits
 487              		.align	2
 488              		.global	accel_read
 489              		.thumb
 490              		.thumb_func
 491              		.type	accel_read, %function
 492              	accel_read:
 493              	.LFB70:
 194:.\main.c      **** 
 195:.\main.c      **** void accel_read(void)
 196:.\main.c      **** {
 494              		.loc 1 196 0
 495              		.cfi_startproc
 496              		@ args = 0, pretend = 0, frame = 8
 497              		@ frame_needed = 0, uses_anonymous_args = 0
 498 0000 30B5     		push	{r4, r5, lr}
 499              		.cfi_def_cfa_offset 12
 500              		.cfi_offset 4, -12
 501              		.cfi_offset 5, -8
 502              		.cfi_offset 14, -4
 503 0002 87B0     		sub	sp, sp, #28
 504              		.cfi_def_cfa_offset 40
 197:.\main.c      ****     uint8_t a_status;
 198:.\main.c      ****     uint8_t a_buf[6];
 199:.\main.c      ****     // send conversion command
 200:.\main.c      ****     a_buf[0] = 0x00;
 505              		.loc 1 200 0
 506 0004 0025     		movs	r5, #0
 507 0006 06AC     		add	r4, sp, #24
 508 0008 04F8085D 		strb	r5, [r4, #-8]!
 201:.\main.c      ****     
 202:.\main.c      ****     I2C_MasterClearStatus();
 509              		.loc 1 202 0
 510 000c FFF7FEFF 		bl	I2C_MasterClearStatus
 511              	.LVL54:
 203:.\main.c      ****     a_status = I2C_MasterWriteBuf(Accel_W, a_buf, 1, I2C_MODE_COMPLETE_XFER);
 512              		.loc 1 203 0
 513 0010 3A20     		movs	r0, #58
 514 0012 2146     		mov	r1, r4
 515 0014 0122     		movs	r2, #1
 516 0016 2B46     		mov	r3, r5
 517 0018 FFF7FEFF 		bl	I2C_MasterWriteBuf
 518              	.LVL55:
 519              	.L36:
 204:.\main.c      ****     while(((a_status = I2C_MasterStatus()) & I2C_MSTAT_WR_CMPLT) == 0);
 520              		.loc 1 204 0 discriminator 1
 521 001c FFF7FEFF 		bl	I2C_MasterStatus
 522              	.LVL56:
 523 0020 10F0020F 		tst	r0, #2
ARM GAS  C:\Users\suminh\AppData\Local\Temp\ccVooiEL.s 			page 14


 524 0024 FAD0     		beq	.L36
 205:.\main.c      ****     // wait for conversion to complete
 206:.\main.c      ****     CyDelay(50); // todo: check if shorter wait would work
 525              		.loc 1 206 0
 526 0026 3220     		movs	r0, #50
 527              	.LVL57:
 528 0028 FFF7FEFF 		bl	CyDelay
 529              	.LVL58:
 207:.\main.c      ****     // read values
 208:.\main.c      ****     I2C_MasterClearStatus();
 530              		.loc 1 208 0
 531 002c FFF7FEFF 		bl	I2C_MasterClearStatus
 532              	.LVL59:
 209:.\main.c      ****     a_status = I2C_MasterReadBuf(Accel_R, a_buf, 6, I2C_MODE_COMPLETE_XFER);
 533              		.loc 1 209 0
 534 0030 3B20     		movs	r0, #59
 535 0032 04A9     		add	r1, sp, #16
 536 0034 0622     		movs	r2, #6
 537 0036 0023     		movs	r3, #0
 538 0038 FFF7FEFF 		bl	I2C_MasterReadBuf
 539              	.LVL60:
 540              	.L37:
 210:.\main.c      ****     while(((a_status = I2C_MasterStatus()) & I2C_MSTAT_RD_CMPLT) == 0);
 541              		.loc 1 210 0 discriminator 1
 542 003c FFF7FEFF 		bl	I2C_MasterStatus
 543              	.LVL61:
 544 0040 10F0010F 		tst	r0, #1
 545 0044 FAD0     		beq	.L37
 211:.\main.c      ****     
 212:.\main.c      ****     printf("%d %d %d %d %d %d\r\n", a_buf[0], a_buf[1], a_buf[2], a_buf[3], a_buf[4], a_buf[5] );
 546              		.loc 1 212 0
 547 0046 9DF81010 		ldrb	r1, [sp, #16]	@ zero_extendqisi2
 548 004a 9DF81120 		ldrb	r2, [sp, #17]	@ zero_extendqisi2
 549 004e 9DF81230 		ldrb	r3, [sp, #18]	@ zero_extendqisi2
 550 0052 9DF81350 		ldrb	r5, [sp, #19]	@ zero_extendqisi2
 551 0056 9DF81440 		ldrb	r4, [sp, #20]	@ zero_extendqisi2
 552 005a 9DF81500 		ldrb	r0, [sp, #21]	@ zero_extendqisi2
 553              	.LVL62:
 554 005e 0095     		str	r5, [sp]
 555 0060 0194     		str	r4, [sp, #4]
 556 0062 0290     		str	r0, [sp, #8]
 557 0064 0248     		ldr	r0, .L39
 558 0066 FFF7FEFF 		bl	printf
 559              	.LVL63:
 213:.\main.c      ****    
 214:.\main.c      **** }    
 560              		.loc 1 214 0
 561 006a 07B0     		add	sp, sp, #28
 562              		.cfi_def_cfa_offset 12
 563              		@ sp needed
 564 006c 30BD     		pop	{r4, r5, pc}
 565              	.L40:
 566 006e 00BF     		.align	2
 567              	.L39:
 568 0070 10000000 		.word	.LC2
 569              		.cfi_endproc
 570              	.LFE70:
ARM GAS  C:\Users\suminh\AppData\Local\Temp\ccVooiEL.s 			page 15


 571              		.size	accel_read, .-accel_read
 572              		.section	.text.gyro_write,"ax",%progbits
 573              		.align	2
 574              		.global	gyro_write
 575              		.thumb
 576              		.thumb_func
 577              		.type	gyro_write, %function
 578              	gyro_write:
 579              	.LFB71:
 215:.\main.c      **** void gyro_write(void)
 216:.\main.c      **** {
 580              		.loc 1 216 0
 581              		.cfi_startproc
 582              		@ args = 0, pretend = 0, frame = 8
 583              		@ frame_needed = 0, uses_anonymous_args = 0
 584 0000 00B5     		push	{lr}
 585              		.cfi_def_cfa_offset 4
 586              		.cfi_offset 14, -4
 587 0002 83B0     		sub	sp, sp, #12
 588              		.cfi_def_cfa_offset 16
 217:.\main.c      ****      uint8_t g_status;
 218:.\main.c      ****     uint8_t g_buf[6]={0,1,2,3,4,5};
 589              		.loc 1 218 0
 590 0004 084B     		ldr	r3, .L43
 591 0006 1868     		ldr	r0, [r3]	@ unaligned
 592 0008 0090     		str	r0, [sp]	@ unaligned
 593 000a 9B88     		ldrh	r3, [r3, #4]	@ unaligned
 594 000c ADF80430 		strh	r3, [sp, #4]	@ unaligned
 219:.\main.c      ****     // send conversion command
 220:.\main.c      ****     
 221:.\main.c      ****     
 222:.\main.c      ****     I2C_MasterClearStatus();
 595              		.loc 1 222 0
 596 0010 FFF7FEFF 		bl	I2C_MasterClearStatus
 597              	.LVL64:
 223:.\main.c      ****     g_status = I2C_MasterWriteBuf(Gyro_W, g_buf, 1, I2C_MODE_COMPLETE_XFER);
 598              		.loc 1 223 0
 599 0014 D420     		movs	r0, #212
 600 0016 6946     		mov	r1, sp
 601 0018 0122     		movs	r2, #1
 602 001a 0023     		movs	r3, #0
 603 001c FFF7FEFF 		bl	I2C_MasterWriteBuf
 604              	.LVL65:
 224:.\main.c      ****     //printf("%d %d %d %d %d %d\r\n", g_buf[0], g_buf[1], g_buf[2], g_buf[3], g_buf[4], g_buf[5] );
 225:.\main.c      ****     
 226:.\main.c      **** }
 605              		.loc 1 226 0
 606 0020 03B0     		add	sp, sp, #12
 607              		.cfi_def_cfa_offset 4
 608              		@ sp needed
 609 0022 5DF804FB 		ldr	pc, [sp], #4
 610              	.L44:
 611 0026 00BF     		.align	2
 612              	.L43:
 613 0028 00000000 		.word	.LANCHOR0
 614              		.cfi_endproc
 615              	.LFE71:
ARM GAS  C:\Users\suminh\AppData\Local\Temp\ccVooiEL.s 			page 16


 616              		.size	gyro_write, .-gyro_write
 617              		.section	.text.gyro_read,"ax",%progbits
 618              		.align	2
 619              		.global	gyro_read
 620              		.thumb
 621              		.thumb_func
 622              		.type	gyro_read, %function
 623              	gyro_read:
 624              	.LFB72:
 227:.\main.c      **** 
 228:.\main.c      **** void gyro_read(void)
 229:.\main.c      **** {
 625              		.loc 1 229 0
 626              		.cfi_startproc
 627              		@ args = 0, pretend = 0, frame = 8
 628              		@ frame_needed = 0, uses_anonymous_args = 0
 629 0000 30B5     		push	{r4, r5, lr}
 630              		.cfi_def_cfa_offset 12
 631              		.cfi_offset 4, -12
 632              		.cfi_offset 5, -8
 633              		.cfi_offset 14, -4
 634 0002 87B0     		sub	sp, sp, #28
 635              		.cfi_def_cfa_offset 40
 230:.\main.c      ****      uint8_t g_status;
 231:.\main.c      ****     uint8_t g_buf[6];//={0};
 232:.\main.c      ****     // send conversion command
 233:.\main.c      ****     
 234:.\main.c      ****     g_buf[0] = 0x00;
 636              		.loc 1 234 0
 637 0004 0025     		movs	r5, #0
 638 0006 06AC     		add	r4, sp, #24
 639 0008 04F8085D 		strb	r5, [r4, #-8]!
 235:.\main.c      ****     
 236:.\main.c      ****     I2C_MasterClearStatus();
 640              		.loc 1 236 0
 641 000c FFF7FEFF 		bl	I2C_MasterClearStatus
 642              	.LVL66:
 237:.\main.c      ****     g_status = I2C_MasterWriteBuf(Gyro_W, g_buf, 1, I2C_MODE_COMPLETE_XFER);
 643              		.loc 1 237 0
 644 0010 D420     		movs	r0, #212
 645 0012 2146     		mov	r1, r4
 646 0014 0122     		movs	r2, #1
 647 0016 2B46     		mov	r3, r5
 648 0018 FFF7FEFF 		bl	I2C_MasterWriteBuf
 649              	.LVL67:
 650              	.L46:
 238:.\main.c      ****     
 239:.\main.c      ****     while(((g_status = I2C_MasterStatus()) & I2C_MSTAT_WR_CMPLT) == 0);
 651              		.loc 1 239 0 discriminator 1
 652 001c FFF7FEFF 		bl	I2C_MasterStatus
 653              	.LVL68:
 654 0020 10F0020F 		tst	r0, #2
 655 0024 FAD0     		beq	.L46
 240:.\main.c      ****     // wait for conversion to complete
 241:.\main.c      ****     CyDelay(50); // todo: check if shorter wait would work
 656              		.loc 1 241 0
 657 0026 3220     		movs	r0, #50
ARM GAS  C:\Users\suminh\AppData\Local\Temp\ccVooiEL.s 			page 17


 658              	.LVL69:
 659 0028 FFF7FEFF 		bl	CyDelay
 660              	.LVL70:
 242:.\main.c      ****     // read values
 243:.\main.c      ****     I2C_MasterClearStatus();
 661              		.loc 1 243 0
 662 002c FFF7FEFF 		bl	I2C_MasterClearStatus
 663              	.LVL71:
 244:.\main.c      ****     g_status = I2C_MasterReadBuf(Gyro_R, g_buf, 6, I2C_MODE_COMPLETE_XFER);
 664              		.loc 1 244 0
 665 0030 D520     		movs	r0, #213
 666 0032 04A9     		add	r1, sp, #16
 667 0034 0622     		movs	r2, #6
 668 0036 0023     		movs	r3, #0
 669 0038 FFF7FEFF 		bl	I2C_MasterReadBuf
 670              	.LVL72:
 671              	.L47:
 245:.\main.c      ****     while(((g_status = I2C_MasterStatus()) & I2C_MSTAT_RD_CMPLT) == 0);
 672              		.loc 1 245 0 discriminator 1
 673 003c FFF7FEFF 		bl	I2C_MasterStatus
 674              	.LVL73:
 675 0040 10F0010F 		tst	r0, #1
 676 0044 FAD0     		beq	.L47
 246:.\main.c      ****     
 247:.\main.c      ****     printf("%d %d %d %d %d %d\r\n", g_buf[0], g_buf[1], g_buf[2], g_buf[3], g_buf[4], g_buf[5] );
 677              		.loc 1 247 0
 678 0046 9DF81010 		ldrb	r1, [sp, #16]	@ zero_extendqisi2
 679 004a 9DF81120 		ldrb	r2, [sp, #17]	@ zero_extendqisi2
 680 004e 9DF81230 		ldrb	r3, [sp, #18]	@ zero_extendqisi2
 681 0052 9DF81350 		ldrb	r5, [sp, #19]	@ zero_extendqisi2
 682 0056 9DF81440 		ldrb	r4, [sp, #20]	@ zero_extendqisi2
 683 005a 9DF81500 		ldrb	r0, [sp, #21]	@ zero_extendqisi2
 684              	.LVL74:
 685 005e 0095     		str	r5, [sp]
 686 0060 0194     		str	r4, [sp, #4]
 687 0062 0290     		str	r0, [sp, #8]
 688 0064 0248     		ldr	r0, .L49
 689 0066 FFF7FEFF 		bl	printf
 690              	.LVL75:
 248:.\main.c      ****    
 249:.\main.c      **** }    
 691              		.loc 1 249 0
 692 006a 07B0     		add	sp, sp, #28
 693              		.cfi_def_cfa_offset 12
 694              		@ sp needed
 695 006c 30BD     		pop	{r4, r5, pc}
 696              	.L50:
 697 006e 00BF     		.align	2
 698              	.L49:
 699 0070 10000000 		.word	.LC2
 700              		.cfi_endproc
 701              	.LFE72:
 702              		.size	gyro_read, .-gyro_read
 703              		.section	.text.main,"ax",%progbits
 704              		.align	2
 705              		.global	main
 706              		.thumb
ARM GAS  C:\Users\suminh\AppData\Local\Temp\ccVooiEL.s 			page 18


 707              		.thumb_func
 708              		.type	main, %function
 709              	main:
 710              	.LFB66:
  75:.\main.c      ****     sensor_isr_StartEx(sensor_isr_handler);
 711              		.loc 1 75 0
 712              		.cfi_startproc
 713              		@ Volatile: function does not return.
 714              		@ args = 0, pretend = 0, frame = 0
 715              		@ frame_needed = 0, uses_anonymous_args = 0
 716 0000 08B5     		push	{r3, lr}
 717              		.cfi_def_cfa_offset 8
 718              		.cfi_offset 3, -8
 719              		.cfi_offset 14, -4
  76:.\main.c      ****     
 720              		.loc 1 76 0
 721 0002 0E48     		ldr	r0, .L54
 722 0004 FFF7FEFF 		bl	sensor_isr_StartEx
 723              	.LVL76:
  78:.\main.c      **** 
 724              		.loc 1 78 0
 725              	@ 78 ".\main.c" 1
 726 0008 62B6     		CPSIE   i
 727              	@ 0 "" 2
  81:.\main.c      ****     Timer_RL_Start();
 728              		.loc 1 81 0
 729              		.thumb
 730 000a FFF7FEFF 		bl	UART_Start
 731              	.LVL77:
  82:.\main.c      ****     Timer_RR_Start();
 732              		.loc 1 82 0
 733 000e FFF7FEFF 		bl	Timer_RL_Start
 734              	.LVL78:
  83:.\main.c      ****     Timer_LL_Start();
 735              		.loc 1 83 0
 736 0012 FFF7FEFF 		bl	Timer_RR_Start
 737              	.LVL79:
  84:.\main.c      ****     Timer_LR_Start();
 738              		.loc 1 84 0
 739 0016 FFF7FEFF 		bl	Timer_LL_Start
 740              	.LVL80:
  85:.\main.c      ****     PWM_Start();
 741              		.loc 1 85 0
 742 001a FFF7FEFF 		bl	Timer_LR_Start
 743              	.LVL81:
  86:.\main.c      ****     
 744              		.loc 1 86 0
 745 001e FFF7FEFF 		bl	PWM_Start
 746              	.LVL82:
  88:.\main.c      ****     
 747              		.loc 1 88 0
 748 0022 FFF7FEFF 		bl	I2C_Start
 749              	.LVL83:
  91:.\main.c      ****     
 750              		.loc 1 91 0
 751 0026 0648     		ldr	r0, .L54+4
 752 0028 FFF7FEFF 		bl	puts
ARM GAS  C:\Users\suminh\AppData\Local\Temp\ccVooiEL.s 			page 19


 753              	.LVL84:
  95:.\main.c      ****     
 754              		.loc 1 95 0
 755 002c FFF7FEFF 		bl	I2C_Start
 756              	.LVL85:
  97:.\main.c      ****     for(;;)
 757              		.loc 1 97 0
 758 0030 0120     		movs	r0, #1
 759 0032 FFF7FEFF 		bl	IR_led_Write
 760              	.LVL86:
 761              	.L52:
 101:.\main.c      ****         /* 
 762              		.loc 1 101 0 discriminator 1
 763 0036 FFF7FEFF 		bl	gyro_read
 764              	.LVL87:
 112:.\main.c      **** }
 765              		.loc 1 112 0 discriminator 1
 766 003a FCE7     		b	.L52
 767              	.L55:
 768              		.align	2
 769              	.L54:
 770 003c 00000000 		.word	sensor_isr_handler
 771 0040 24000000 		.word	.LC3
 772              		.cfi_endproc
 773              	.LFE66:
 774              		.size	main, .-main
 775              		.section	.text.nunchuk_init,"ax",%progbits
 776              		.align	2
 777              		.global	nunchuk_init
 778              		.thumb
 779              		.thumb_func
 780              		.type	nunchuk_init, %function
 781              	nunchuk_init:
 782              	.LFB73:
 250:.\main.c      **** 
 251:.\main.c      **** 
 252:.\main.c      **** void nunchuk_init(void)
 253:.\main.c      **** {
 783              		.loc 1 253 0
 784              		.cfi_startproc
 785              		@ args = 0, pretend = 0, frame = 8
 786              		@ frame_needed = 0, uses_anonymous_args = 0
 787 0000 10B5     		push	{r4, lr}
 788              		.cfi_def_cfa_offset 8
 789              		.cfi_offset 4, -8
 790              		.cfi_offset 14, -4
 791 0002 82B0     		sub	sp, sp, #8
 792              		.cfi_def_cfa_offset 16
 254:.\main.c      ****     uint8_t buf[2] = { 0x40, 0x00 };
 793              		.loc 1 254 0
 794 0004 4023     		movs	r3, #64
 795 0006 8DF80430 		strb	r3, [sp, #4]
 796 000a 0024     		movs	r4, #0
 797 000c 8DF80540 		strb	r4, [sp, #5]
 255:.\main.c      ****     uint8_t status;
 256:.\main.c      ****     I2C_2_MasterClearStatus();
 798              		.loc 1 256 0
ARM GAS  C:\Users\suminh\AppData\Local\Temp\ccVooiEL.s 			page 20


 799 0010 FFF7FEFF 		bl	I2C_2_MasterClearStatus
 800              	.LVL88:
 257:.\main.c      ****     CyDelay(100);
 801              		.loc 1 257 0
 802 0014 6420     		movs	r0, #100
 803 0016 FFF7FEFF 		bl	CyDelay
 804              	.LVL89:
 258:.\main.c      ****     status = I2C_2_MasterWriteBuf(0x52, buf, 2, I2C_2_MODE_COMPLETE_XFER);
 805              		.loc 1 258 0
 806 001a 5220     		movs	r0, #82
 807 001c 01A9     		add	r1, sp, #4
 808 001e 0222     		movs	r2, #2
 809 0020 2346     		mov	r3, r4
 810 0022 FFF7FEFF 		bl	I2C_2_MasterWriteBuf
 811              	.LVL90:
 812              	.L57:
 259:.\main.c      ****     while(((status = I2C_2_MasterStatus()) & I2C_2_MSTAT_WR_CMPLT) == 0);
 813              		.loc 1 259 0 discriminator 1
 814 0026 FFF7FEFF 		bl	I2C_2_MasterStatus
 815              	.LVL91:
 816 002a 10F0020F 		tst	r0, #2
 817 002e FAD0     		beq	.L57
 260:.\main.c      ****     CyDelay(100);
 818              		.loc 1 260 0
 819 0030 6420     		movs	r0, #100
 820              	.LVL92:
 821 0032 FFF7FEFF 		bl	CyDelay
 822              	.LVL93:
 261:.\main.c      **** }    
 823              		.loc 1 261 0
 824 0036 02B0     		add	sp, sp, #8
 825              		.cfi_def_cfa_offset 8
 826              		@ sp needed
 827 0038 10BD     		pop	{r4, pc}
 828              		.cfi_endproc
 829              	.LFE73:
 830              		.size	nunchuk_init, .-nunchuk_init
 831 003a 00BF     		.section	.text.nunchuk_read,"ax",%progbits
 832              		.align	2
 833              		.global	nunchuk_read
 834              		.thumb
 835              		.thumb_func
 836              		.type	nunchuk_read, %function
 837              	nunchuk_read:
 838              	.LFB74:
 262:.\main.c      **** 
 263:.\main.c      **** void nunchuk_read(void)
 264:.\main.c      **** {
 839              		.loc 1 264 0
 840              		.cfi_startproc
 841              		@ args = 0, pretend = 0, frame = 8
 842              		@ frame_needed = 0, uses_anonymous_args = 0
 843 0000 30B5     		push	{r4, r5, lr}
 844              		.cfi_def_cfa_offset 12
 845              		.cfi_offset 4, -12
 846              		.cfi_offset 5, -8
 847              		.cfi_offset 14, -4
ARM GAS  C:\Users\suminh\AppData\Local\Temp\ccVooiEL.s 			page 21


 848 0002 83B0     		sub	sp, sp, #12
 849              		.cfi_def_cfa_offset 24
 265:.\main.c      ****     uint8_t status;
 266:.\main.c      ****     uint8_t buf[6];
 267:.\main.c      ****     // send conversion command
 268:.\main.c      ****     buf[0] = 0x00;
 850              		.loc 1 268 0
 851 0004 0025     		movs	r5, #0
 852 0006 02AC     		add	r4, sp, #8
 853 0008 04F8085D 		strb	r5, [r4, #-8]!
 269:.\main.c      ****     I2C_2_MasterClearStatus();
 854              		.loc 1 269 0
 855 000c FFF7FEFF 		bl	I2C_2_MasterClearStatus
 856              	.LVL94:
 270:.\main.c      ****     status = I2C_2_MasterWriteBuf(0x52, buf, 1, I2C_2_MODE_COMPLETE_XFER);
 857              		.loc 1 270 0
 858 0010 5220     		movs	r0, #82
 859 0012 2146     		mov	r1, r4
 860 0014 0122     		movs	r2, #1
 861 0016 2B46     		mov	r3, r5
 862 0018 FFF7FEFF 		bl	I2C_2_MasterWriteBuf
 863              	.LVL95:
 864              	.L60:
 271:.\main.c      ****     while(((status = I2C_2_MasterStatus()) & I2C_2_MSTAT_WR_CMPLT) == 0);
 865              		.loc 1 271 0 discriminator 1
 866 001c FFF7FEFF 		bl	I2C_2_MasterStatus
 867              	.LVL96:
 868 0020 10F0020F 		tst	r0, #2
 869 0024 FAD0     		beq	.L60
 272:.\main.c      ****     // wait for conversion to complete
 273:.\main.c      ****     CyDelay(50); // todo: check if shorter wait would work
 870              		.loc 1 273 0
 871 0026 3220     		movs	r0, #50
 872              	.LVL97:
 873 0028 FFF7FEFF 		bl	CyDelay
 874              	.LVL98:
 274:.\main.c      ****     // read values
 275:.\main.c      ****     I2C_2_MasterClearStatus();
 875              		.loc 1 275 0
 876 002c FFF7FEFF 		bl	I2C_2_MasterClearStatus
 877              	.LVL99:
 276:.\main.c      ****     status = I2C_2_MasterReadBuf(0x52, buf, 6, I2C_2_MODE_COMPLETE_XFER);
 878              		.loc 1 276 0
 879 0030 5220     		movs	r0, #82
 880 0032 6946     		mov	r1, sp
 881 0034 0622     		movs	r2, #6
 882 0036 0023     		movs	r3, #0
 883 0038 FFF7FEFF 		bl	I2C_2_MasterReadBuf
 884              	.LVL100:
 885              	.L61:
 277:.\main.c      ****     while(((status = I2C_2_MasterStatus()) & I2C_2_MSTAT_RD_CMPLT) == 0);
 886              		.loc 1 277 0 discriminator 1
 887 003c FFF7FEFF 		bl	I2C_2_MasterStatus
 888              	.LVL101:
 889 0040 10F0010F 		tst	r0, #1
 890 0044 FAD0     		beq	.L61
 891 0046 0023     		movs	r3, #0
ARM GAS  C:\Users\suminh\AppData\Local\Temp\ccVooiEL.s 			page 22


 892 0048 00E0     		b	.L62
 893              	.LVL102:
 894              	.L63:
 278:.\main.c      ****     
 279:.\main.c      ****     int i;
 280:.\main.c      ****     // decrypt data
 281:.\main.c      ****     for(i = 0; i < 6; i++) buf[i] = (buf[i] ^ 0x17) + 0x17;
 895              		.loc 1 281 0 discriminator 3
 896 004a 0133     		adds	r3, r3, #1
 897              	.LVL103:
 898              	.L62:
 899              		.loc 1 281 0 is_stmt 0 discriminator 1
 900 004c 052B     		cmp	r3, #5
 901 004e FCDD     		ble	.L63
 282:.\main.c      ****     // accelerometer values
 283:.\main.c      ****     /*
 284:.\main.c      ****     int x,y,z;
 285:.\main.c      ****     x = (buf[2] << 2) | ((buf[5] >> 2) & 0x03);
 286:.\main.c      ****     y = (buf[3] << 2) | ((buf[5] >> 4) & 0x03);
 287:.\main.c      ****     z = (buf[4] << 2) | ((buf[5] >> 6) & 0x03);
 288:.\main.c      ****     // buf[0] = JoyX, buf[1] = JoyY
 289:.\main.c      ****     //printf("%3d %3d, %d, %d, %4d %4d %4d\r\n", buf[0], buf[1], (buf[5] >> 1) & 1, buf[5] & 1, x, 
 290:.\main.c      ****     */
 291:.\main.c      **** }    
 902              		.loc 1 291 0 is_stmt 1
 903 0050 03B0     		add	sp, sp, #12
 904              		.cfi_def_cfa_offset 12
 905              		@ sp needed
 906 0052 30BD     		pop	{r4, r5, pc}
 907              		.cfi_endproc
 908              	.LFE74:
 909              		.size	nunchuk_read, .-nunchuk_read
 910              		.section	.text._write,"ax",%progbits
 911              		.align	2
 912              		.global	_write
 913              		.thumb
 914              		.thumb_func
 915              		.type	_write, %function
 916              	_write:
 917              	.LFB75:
 292:.\main.c      **** 
 293:.\main.c      **** #if 0
 294:.\main.c      **** int rread(void)
 295:.\main.c      **** {
 296:.\main.c      ****     SC0_SetDriveMode(PIN_DM_STRONG);
 297:.\main.c      ****     SC0_Write(1);
 298:.\main.c      ****     CyDelayUs(10);
 299:.\main.c      ****     SC0_SetDriveMode(PIN_DM_DIG_HIZ);
 300:.\main.c      ****     Timer_1_Start();
 301:.\main.c      ****     uint16_t start = Timer_1_ReadCounter();
 302:.\main.c      ****     uint16_t end = 0;
 303:.\main.c      ****     while(!(Timer_1_ReadStatusRegister() & Timer_1_STATUS_TC)) {
 304:.\main.c      ****         if(SC0_Read() == 0 && end == 0) {
 305:.\main.c      ****             end = Timer_1_ReadCounter();
 306:.\main.c      ****         }
 307:.\main.c      ****     }
 308:.\main.c      ****     Timer_1_Stop();
ARM GAS  C:\Users\suminh\AppData\Local\Temp\ccVooiEL.s 			page 23


 309:.\main.c      ****     
 310:.\main.c      ****     return (start - end);
 311:.\main.c      **** }
 312:.\main.c      **** #endif
 313:.\main.c      **** 
 314:.\main.c      **** int _write(int file, char *ptr, int len)
 315:.\main.c      **** {
 918              		.loc 1 315 0
 919              		.cfi_startproc
 920              		@ args = 0, pretend = 0, frame = 0
 921              		@ frame_needed = 0, uses_anonymous_args = 0
 922              	.LVL104:
 923 0000 70B5     		push	{r4, r5, r6, lr}
 924              		.cfi_def_cfa_offset 16
 925              		.cfi_offset 4, -16
 926              		.cfi_offset 5, -12
 927              		.cfi_offset 6, -8
 928              		.cfi_offset 14, -4
 929 0002 1646     		mov	r6, r2
 930              	.LVL105:
 316:.\main.c      ****     (void) file;
 317:.\main.c      **** 	int n;
 318:.\main.c      **** 	for(n = 0; n < len; n++) {
 931              		.loc 1 318 0
 932 0004 0024     		movs	r4, #0
 933 0006 05E0     		b	.L66
 934              	.LVL106:
 935              	.L67:
 319:.\main.c      **** 		UART_PutChar(*ptr++);
 936              		.loc 1 319 0 discriminator 3
 937 0008 4D1C     		adds	r5, r1, #1
 938              	.LVL107:
 939 000a 0878     		ldrb	r0, [r1]	@ zero_extendqisi2
 940 000c FFF7FEFF 		bl	UART_PutChar
 941              	.LVL108:
 318:.\main.c      **** 		UART_PutChar(*ptr++);
 942              		.loc 1 318 0 discriminator 3
 943 0010 0134     		adds	r4, r4, #1
 944              	.LVL109:
 945              		.loc 1 319 0 discriminator 3
 946 0012 2946     		mov	r1, r5
 947              	.LVL110:
 948              	.L66:
 318:.\main.c      **** 		UART_PutChar(*ptr++);
 949              		.loc 1 318 0 discriminator 1
 950 0014 B442     		cmp	r4, r6
 951 0016 F7DB     		blt	.L67
 320:.\main.c      **** 	}
 321:.\main.c      **** 	return len;
 322:.\main.c      **** }
 952              		.loc 1 322 0
 953 0018 3046     		mov	r0, r6
 954 001a 70BD     		pop	{r4, r5, r6, pc}
 955              		.cfi_endproc
 956              	.LFE75:
 957              		.size	_write, .-_write
 958              		.comm	digital_sensor_value,8,4
ARM GAS  C:\Users\suminh\AppData\Local\Temp\ccVooiEL.s 			page 24


 959              		.comm	sensors,8,4
 960              		.section	.rodata
 961              		.align	2
 962              		.set	.LANCHOR0,. + 0
 963              	.LC0:
 964 0000 00       		.byte	0
 965 0001 01       		.byte	1
 966 0002 02       		.byte	2
 967 0003 03       		.byte	3
 968 0004 04       		.byte	4
 969 0005 05       		.byte	5
 970 0006 0000     		.section	.rodata.str1.4,"aMS",%progbits,1
 971              		.align	2
 972              	.LC1:
 973 0000 25642025 		.ascii	"%d %d %d %d \011\000"
 973      64202564 
 973      20256420 
 973      0900
 974 000e 0000     		.space	2
 975              	.LC2:
 976 0010 25642025 		.ascii	"%d %d %d %d %d %d\015\012\000"
 976      64202564 
 976      20256420 
 976      25642025 
 976      640D0A00 
 977              	.LC3:
 978 0024 53746172 		.ascii	"Start\015\000"
 978      740D00
 979 002b 00       		.text
 980              	.Letext0:
 981              		.file 2 "c:\\program files (x86)\\cypress\\psoc creator\\3.3\\psoc creator\\import\\gnu\\arm\\4.9.
 982              		.file 3 "c:\\program files (x86)\\cypress\\psoc creator\\3.3\\psoc creator\\import\\gnu\\arm\\4.9.
 983              		.file 4 "Generated_Source\\PSoC5/cytypes.h"
 984              		.file 5 "Generated_Source\\PSoC5/core_cm3.h"
 985              		.file 6 "Generated_Source\\PSoC5/Timer_RL.h"
 986              		.file 7 "Generated_Source\\PSoC5/Timer_RR.h"
 987              		.file 8 "Generated_Source\\PSoC5/Timer_LL.h"
 988              		.file 9 "Generated_Source\\PSoC5/Timer_LR.h"
 989              		.file 10 "Generated_Source\\PSoC5/RL.h"
 990              		.file 11 "Generated_Source\\PSoC5/RR.h"
 991              		.file 12 "Generated_Source\\PSoC5/LL.h"
 992              		.file 13 "Generated_Source\\PSoC5/LR.h"
 993              		.file 14 "Generated_Source\\PSoC5/CyLib.h"
 994              		.file 15 "Generated_Source\\PSoC5/PWM.h"
 995              		.file 16 "Generated_Source\\PSoC5/MotorDirLeft.h"
 996              		.file 17 "Generated_Source\\PSoC5/MotorDirRight.h"
 997              		.file 18 "Generated_Source\\PSoC5/I2C.h"
 998              		.file 19 "c:\\program files (x86)\\cypress\\psoc creator\\3.3\\psoc creator\\import\\gnu\\arm\\4.9
 999              		.file 20 "Generated_Source\\PSoC5/sensor_isr.h"
 1000              		.file 21 "Generated_Source\\PSoC5/UART.h"
 1001              		.file 22 "<built-in>"
 1002              		.file 23 "Generated_Source\\PSoC5/IR_led.h"
 1003              		.file 24 "Generated_Source\\PSoC5/I2C_2.h"