ARM GAS  C:\Users\suminh\AppData\Local\Temp\cciOVltW.s 			page 1


   1              		.syntax unified
   2              		.cpu cortex-m3
   3              		.fpu softvfp
   4              		.eabi_attribute 20, 1
   5              		.eabi_attribute 21, 1
   6              		.eabi_attribute 23, 3
   7              		.eabi_attribute 24, 1
   8              		.eabi_attribute 25, 1
   9              		.eabi_attribute 26, 1
  10              		.eabi_attribute 30, 1
  11              		.eabi_attribute 34, 1
  12              		.eabi_attribute 18, 4
  13              		.thumb
  14              		.file	"main.c"
  15              		.text
  16              	.Ltext0:
  17              		.cfi_sections	.debug_frame
  18              		.section	.text.I2C_write,"ax",%progbits
  19              		.align	2
  20              		.global	I2C_write
  21              		.thumb
  22              		.thumb_func
  23              		.type	I2C_write, %function
  24              	I2C_write:
  25              	.LFB64:
  26              		.file 1 ".\\main.c"
   1:.\main.c      **** /* ========================================
   2:.\main.c      ****  *
   3:.\main.c      ****  * Copyright YOUR COMPANY, THE YEAR
   4:.\main.c      ****  * All Rights Reserved
   5:.\main.c      ****  * UNPUBLISHED, LICENSED SOFTWARE.
   6:.\main.c      ****  *
   7:.\main.c      ****  * CONFIDENTIAL AND PROPRIETARY INFORMATION
   8:.\main.c      ****  * WHICH IS THE PROPERTY OF your company.
   9:.\main.c      ****  *
  10:.\main.c      ****  * ========================================
  11:.\main.c      **** */
  12:.\main.c      **** #include <project.h>
  13:.\main.c      **** #include <stdio.h>
  14:.\main.c      **** 
  15:.\main.c      **** int rread(void);
  16:.\main.c      **** void reflectance_period();
  17:.\main.c      **** void reflectance_digital();
  18:.\main.c      **** uint8 I2C_read(uint8 device_addr, uint8 Reg);
  19:.\main.c      **** void I2C_write(uint8 device_addr, uint8 value);
  20:.\main.c      **** 
  21:.\main.c      **** //CY_ISR_PROTO(sensor_isr_handler);
  22:.\main.c      **** CY_ISR_PROTO(ultra_isr_handler);
  23:.\main.c      **** 
  24:.\main.c      **** uint16_t i = 0;
  25:.\main.c      **** uint16 distance = 0;
  26:.\main.c      **** 
  27:.\main.c      **** 
  28:.\main.c      **** #define WHO_AM_I            0x0F   
  29:.\main.c      **** #define GYRO_ADDR           0x6B
  30:.\main.c      **** #define CTRL1_REG           0x20
  31:.\main.c      **** #define OUT_X_AXIS_L        0x28
ARM GAS  C:\Users\suminh\AppData\Local\Temp\cciOVltW.s 			page 2


  32:.\main.c      **** #define OUT_X_AXIS_H        0x29
  33:.\main.c      **** #define OUT_Y_AXIS_L        0x2A
  34:.\main.c      **** #define OUT_Y_AXIS_H        0x2B
  35:.\main.c      **** #define OUT_Z_AXIS_L        0x2C
  36:.\main.c      **** #define OUT_Z_AXIS_H        0x2D
  37:.\main.c      **** #define ACCEL_ADDR      
  38:.\main.c      **** 
  39:.\main.c      **** 
  40:.\main.c      **** int main()
  41:.\main.c      **** {   
  42:.\main.c      ****     
  43:.\main.c      ****     I2C_Start();
  44:.\main.c      ****     
  45:.\main.c      ****     CyGlobalIntEnable; /* Enable global interrupts. */
  46:.\main.c      **** 
  47:.\main.c      ****     /* Place your initialization/startup code here (e.g. MyInst_Start()) */
  48:.\main.c      ****     UART_Start();
  49:.\main.c      ****   
  50:.\main.c      ****     //PWM_Start();
  51:.\main.c      ****     //Timer_Start();
  52:.\main.c      **** 
  53:.\main.c      ****     
  54:.\main.c      ****     printf("Start\r\n");
  55:.\main.c      ****     
  56:.\main.c      ****    
  57:.\main.c      ****     int16 X_AXIS_L, X_AXIS_H;
  58:.\main.c      ****     int16 Y_AXIS_L, Y_AXIS_H;
  59:.\main.c      ****     int16 Z_AXIS_L, Z_AXIS_H;
  60:.\main.c      ****     
  61:.\main.c      ****     I2C_write(GYRO_ADDR, 0x1F);             //set gyroscope into active mode
  62:.\main.c      ****     
  63:.\main.c      ****     
  64:.\main.c      ****     
  65:.\main.c      ****     for(;;)
  66:.\main.c      ****     {
  67:.\main.c      ****         
  68:.\main.c      ****         //deviceID = gyro_read(WHO_AM_I);
  69:.\main.c      ****         //printf("deviceID : %d \n", deviceID);
  70:.\main.c      ****         X_AXIS_L = I2C_read(GYRO_ADDR, OUT_X_AXIS_L);
  71:.\main.c      ****         X_AXIS_H = I2C_read(GYRO_ADDR, OUT_X_AXIS_H);
  72:.\main.c      ****         Y_AXIS_L = I2C_read(GYRO_ADDR, OUT_Y_AXIS_L);
  73:.\main.c      ****         Y_AXIS_H = I2C_read(GYRO_ADDR, OUT_Y_AXIS_H);
  74:.\main.c      ****         Z_AXIS_L = I2C_read(GYRO_ADDR, OUT_Z_AXIS_L);
  75:.\main.c      ****         Z_AXIS_H = I2C_read(GYRO_ADDR, OUT_Z_AXIS_H);
  76:.\main.c      ****         //printf("X_AXIS_L: %d, X_AXIS_H: %d, average: %d \r\n", X_AXIS_L, X_AXIS_H, (X_AXIS_H+X_AX
  77:.\main.c      ****         //printf("Y_AXIS_L: %d, Y_AXIS_H: %d, average: %d \r\n", Y_AXIS_L, Y_AXIS_H, (Y_AXIS_H+Y_AX
  78:.\main.c      ****         //printf("Z_AXIS_L: %d, Z_AXIS_H: %d, average: %d \r\n", Z_AXIS_L, Z_AXIS_H, (Z_AXIS_H+Z_AX
  79:.\main.c      ****         printf("%d %d %d %d %d %d \r\n", X_AXIS_L, X_AXIS_H, Y_AXIS_L, Y_AXIS_H, Z_AXIS_L, Z_AXIS_H
  80:.\main.c      ****         CyDelay(500);
  81:.\main.c      ****     }
  82:.\main.c      ****     
  83:.\main.c      **** }
  84:.\main.c      **** 
  85:.\main.c      **** void I2C_write(uint8 device_addr, uint8 value)             // Gyroscope: you need to change the val
  86:.\main.c      **** {
  27              		.loc 1 86 0
  28              		.cfi_startproc
ARM GAS  C:\Users\suminh\AppData\Local\Temp\cciOVltW.s 			page 3


  29              		@ args = 0, pretend = 0, frame = 8
  30              		@ frame_needed = 0, uses_anonymous_args = 0
  31              	.LVL0:
  32 0000 10B5     		push	{r4, lr}
  33              		.cfi_def_cfa_offset 8
  34              		.cfi_offset 4, -8
  35              		.cfi_offset 14, -4
  36 0002 82B0     		sub	sp, sp, #8
  37              		.cfi_def_cfa_offset 16
  38 0004 0446     		mov	r4, r0
  87:.\main.c      ****     uint8 write_buf[2] = {};
  88:.\main.c      ****     write_buf[0] = CTRL1_REG;                //register address that you want to write
  39              		.loc 1 88 0
  40 0006 2023     		movs	r3, #32
  41 0008 8DF80430 		strb	r3, [sp, #4]
  89:.\main.c      ****     write_buf[1] = value;                //value that you want to write to register
  42              		.loc 1 89 0
  43 000c 8DF80510 		strb	r1, [sp, #5]
  90:.\main.c      ****     
  91:.\main.c      ****     I2C_MasterClearStatus();
  44              		.loc 1 91 0
  45 0010 FFF7FEFF 		bl	I2C_MasterClearStatus
  46              	.LVL1:
  92:.\main.c      ****     I2C_MasterWriteBuf(device_addr, write_buf, 2, I2C_MODE_COMPLETE_XFER);
  47              		.loc 1 92 0
  48 0014 2046     		mov	r0, r4
  49 0016 01A9     		add	r1, sp, #4
  50 0018 0222     		movs	r2, #2
  51 001a 0023     		movs	r3, #0
  52 001c FFF7FEFF 		bl	I2C_MasterWriteBuf
  53              	.LVL2:
  54              	.L2:
  93:.\main.c      ****     while(((I2C_MasterStatus()) & I2C_MSTAT_WR_CMPLT) == 0);
  55              		.loc 1 93 0 discriminator 1
  56 0020 FFF7FEFF 		bl	I2C_MasterStatus
  57              	.LVL3:
  58 0024 10F0020F 		tst	r0, #2
  59 0028 FAD0     		beq	.L2
  94:.\main.c      ****     
  95:.\main.c      ****     return;
  96:.\main.c      **** }
  60              		.loc 1 96 0
  61 002a 02B0     		add	sp, sp, #8
  62              		.cfi_def_cfa_offset 8
  63              		@ sp needed
  64 002c 10BD     		pop	{r4, pc}
  65              		.cfi_endproc
  66              	.LFE64:
  67              		.size	I2C_write, .-I2C_write
  68 002e 00BF     		.section	.text.I2C_read,"ax",%progbits
  69              		.align	2
  70              		.global	I2C_read
  71              		.thumb
  72              		.thumb_func
  73              		.type	I2C_read, %function
  74              	I2C_read:
  75              	.LFB65:
ARM GAS  C:\Users\suminh\AppData\Local\Temp\cciOVltW.s 			page 4


  97:.\main.c      **** 
  98:.\main.c      **** uint8 I2C_read(uint8 device_addr, uint8 Reg) 
  99:.\main.c      **** {
  76              		.loc 1 99 0
  77              		.cfi_startproc
  78              		@ args = 0, pretend = 0, frame = 8
  79              		@ frame_needed = 0, uses_anonymous_args = 0
  80              	.LVL4:
  81 0000 30B5     		push	{r4, r5, lr}
  82              		.cfi_def_cfa_offset 12
  83              		.cfi_offset 4, -12
  84              		.cfi_offset 5, -8
  85              		.cfi_offset 14, -4
  86 0002 83B0     		sub	sp, sp, #12
  87              		.cfi_def_cfa_offset 24
  88 0004 0446     		mov	r4, r0
 100:.\main.c      ****    
 101:.\main.c      ****     uint8 write_buf[1] = {};
  89              		.loc 1 101 0
  90 0006 0025     		movs	r5, #0
 102:.\main.c      ****     write_buf[0] = Reg;
  91              		.loc 1 102 0
  92 0008 8DF80410 		strb	r1, [sp, #4]
 103:.\main.c      ****     
 104:.\main.c      ****     uint8 read_buf[1] = {};
  93              		.loc 1 104 0
  94 000c 8DF80050 		strb	r5, [sp]
 105:.\main.c      ****     
 106:.\main.c      ****     I2C_MasterClearStatus();
  95              		.loc 1 106 0
  96 0010 FFF7FEFF 		bl	I2C_MasterClearStatus
  97              	.LVL5:
 107:.\main.c      ****     CyDelay(100);
  98              		.loc 1 107 0
  99 0014 6420     		movs	r0, #100
 100 0016 FFF7FEFF 		bl	CyDelay
 101              	.LVL6:
 108:.\main.c      ****     I2C_MasterWriteBuf(device_addr, write_buf, 2, I2C_MODE_COMPLETE_XFER);
 102              		.loc 1 108 0
 103 001a 2046     		mov	r0, r4
 104 001c 01A9     		add	r1, sp, #4
 105 001e 0222     		movs	r2, #2
 106 0020 2B46     		mov	r3, r5
 107 0022 FFF7FEFF 		bl	I2C_MasterWriteBuf
 108              	.LVL7:
 109              	.L5:
 109:.\main.c      ****     while((I2C_MasterStatus() & I2C_MSTAT_WR_CMPLT) == 0);
 110              		.loc 1 109 0 discriminator 1
 111 0026 FFF7FEFF 		bl	I2C_MasterStatus
 112              	.LVL8:
 113 002a 10F0020F 		tst	r0, #2
 114 002e FAD0     		beq	.L5
 110:.\main.c      ****     CyDelay(50);
 115              		.loc 1 110 0
 116 0030 3220     		movs	r0, #50
 117 0032 FFF7FEFF 		bl	CyDelay
 118              	.LVL9:
ARM GAS  C:\Users\suminh\AppData\Local\Temp\cciOVltW.s 			page 5


 111:.\main.c      ****     I2C_MasterClearStatus();
 119              		.loc 1 111 0
 120 0036 FFF7FEFF 		bl	I2C_MasterClearStatus
 121              	.LVL10:
 112:.\main.c      ****     I2C_MasterReadBuf(device_addr, read_buf, 1, I2C_MODE_COMPLETE_XFER);
 122              		.loc 1 112 0
 123 003a 2046     		mov	r0, r4
 124 003c 6946     		mov	r1, sp
 125 003e 0122     		movs	r2, #1
 126 0040 0023     		movs	r3, #0
 127 0042 FFF7FEFF 		bl	I2C_MasterReadBuf
 128              	.LVL11:
 129              	.L6:
 113:.\main.c      ****     while((I2C_MasterStatus() & I2C_MSTAT_RD_CMPLT) == 0);
 130              		.loc 1 113 0 discriminator 1
 131 0046 FFF7FEFF 		bl	I2C_MasterStatus
 132              	.LVL12:
 133 004a 10F0010F 		tst	r0, #1
 134 004e FAD0     		beq	.L6
 114:.\main.c      ****    
 115:.\main.c      ****     return read_buf[0];
 116:.\main.c      **** }
 135              		.loc 1 116 0
 136 0050 9DF80000 		ldrb	r0, [sp]	@ zero_extendqisi2
 137 0054 03B0     		add	sp, sp, #12
 138              		.cfi_def_cfa_offset 12
 139              		@ sp needed
 140 0056 30BD     		pop	{r4, r5, pc}
 141              		.cfi_endproc
 142              	.LFE65:
 143              		.size	I2C_read, .-I2C_read
 144              		.section	.text.main,"ax",%progbits
 145              		.align	2
 146              		.global	main
 147              		.thumb
 148              		.thumb_func
 149              		.type	main, %function
 150              	main:
 151              	.LFB63:
  41:.\main.c      ****     
 152              		.loc 1 41 0
 153              		.cfi_startproc
 154              		@ args = 0, pretend = 0, frame = 0
 155              		@ frame_needed = 0, uses_anonymous_args = 0
 156 0000 2DE9F041 		push	{r4, r5, r6, r7, r8, lr}
 157              		.cfi_def_cfa_offset 24
 158              		.cfi_offset 4, -24
 159              		.cfi_offset 5, -20
 160              		.cfi_offset 6, -16
 161              		.cfi_offset 7, -12
 162              		.cfi_offset 8, -8
 163              		.cfi_offset 14, -4
 164 0004 84B0     		sub	sp, sp, #16
 165              		.cfi_def_cfa_offset 40
  43:.\main.c      ****     
 166              		.loc 1 43 0
 167 0006 FFF7FEFF 		bl	I2C_Start
ARM GAS  C:\Users\suminh\AppData\Local\Temp\cciOVltW.s 			page 6


 168              	.LVL13:
  45:.\main.c      **** 
 169              		.loc 1 45 0
 170              	@ 45 ".\main.c" 1
 171 000a 62B6     		CPSIE   i
 172              	@ 0 "" 2
  48:.\main.c      ****   
 173              		.loc 1 48 0
 174              		.thumb
 175 000c FFF7FEFF 		bl	UART_Start
 176              	.LVL14:
  54:.\main.c      ****     
 177              		.loc 1 54 0
 178 0010 1948     		ldr	r0, .L11
 179 0012 FFF7FEFF 		bl	puts
 180              	.LVL15:
  61:.\main.c      ****     
 181              		.loc 1 61 0
 182 0016 6B20     		movs	r0, #107
 183 0018 1F21     		movs	r1, #31
 184 001a FFF7FEFF 		bl	I2C_write
 185              	.LVL16:
 186              	.L9:
  70:.\main.c      ****         X_AXIS_H = I2C_read(GYRO_ADDR, OUT_X_AXIS_H);
 187              		.loc 1 70 0 discriminator 1
 188 001e 6B20     		movs	r0, #107
 189 0020 2821     		movs	r1, #40
 190 0022 FFF7FEFF 		bl	I2C_read
 191              	.LVL17:
 192 0026 0646     		mov	r6, r0
 193              	.LVL18:
  71:.\main.c      ****         Y_AXIS_L = I2C_read(GYRO_ADDR, OUT_Y_AXIS_L);
 194              		.loc 1 71 0 discriminator 1
 195 0028 6B20     		movs	r0, #107
 196 002a 2921     		movs	r1, #41
 197 002c FFF7FEFF 		bl	I2C_read
 198              	.LVL19:
 199 0030 0546     		mov	r5, r0
 200              	.LVL20:
  72:.\main.c      ****         Y_AXIS_H = I2C_read(GYRO_ADDR, OUT_Y_AXIS_H);
 201              		.loc 1 72 0 discriminator 1
 202 0032 6B20     		movs	r0, #107
 203 0034 2A21     		movs	r1, #42
 204 0036 FFF7FEFF 		bl	I2C_read
 205              	.LVL21:
 206 003a 0446     		mov	r4, r0
 207              	.LVL22:
  73:.\main.c      ****         Z_AXIS_L = I2C_read(GYRO_ADDR, OUT_Z_AXIS_L);
 208              		.loc 1 73 0 discriminator 1
 209 003c 6B20     		movs	r0, #107
 210 003e 2B21     		movs	r1, #43
 211 0040 FFF7FEFF 		bl	I2C_read
 212              	.LVL23:
 213 0044 8046     		mov	r8, r0
 214              	.LVL24:
  74:.\main.c      ****         Z_AXIS_H = I2C_read(GYRO_ADDR, OUT_Z_AXIS_H);
 215              		.loc 1 74 0 discriminator 1
ARM GAS  C:\Users\suminh\AppData\Local\Temp\cciOVltW.s 			page 7


 216 0046 6B20     		movs	r0, #107
 217 0048 2C21     		movs	r1, #44
 218 004a FFF7FEFF 		bl	I2C_read
 219              	.LVL25:
 220 004e 0746     		mov	r7, r0
 221              	.LVL26:
  75:.\main.c      ****         //printf("X_AXIS_L: %d, X_AXIS_H: %d, average: %d \r\n", X_AXIS_L, X_AXIS_H, (X_AXIS_H+X_AX
 222              		.loc 1 75 0 discriminator 1
 223 0050 6B20     		movs	r0, #107
 224 0052 2D21     		movs	r1, #45
 225 0054 FFF7FEFF 		bl	I2C_read
 226              	.LVL27:
  79:.\main.c      ****         CyDelay(500);
 227              		.loc 1 79 0 discriminator 1
 228 0058 CDF80080 		str	r8, [sp]
 229 005c 0197     		str	r7, [sp, #4]
 230 005e 0290     		str	r0, [sp, #8]
 231 0060 0648     		ldr	r0, .L11+4
 232              	.LVL28:
 233 0062 3146     		mov	r1, r6
 234 0064 2A46     		mov	r2, r5
 235 0066 2346     		mov	r3, r4
 236 0068 FFF7FEFF 		bl	printf
 237              	.LVL29:
  80:.\main.c      ****     }
 238              		.loc 1 80 0 discriminator 1
 239 006c 4FF4FA70 		mov	r0, #500
 240 0070 FFF7FEFF 		bl	CyDelay
 241              	.LVL30:
  81:.\main.c      ****     
 242              		.loc 1 81 0 discriminator 1
 243 0074 D3E7     		b	.L9
 244              	.L12:
 245 0076 00BF     		.align	2
 246              	.L11:
 247 0078 00000000 		.word	.LC0
 248 007c 08000000 		.word	.LC1
 249              		.cfi_endproc
 250              	.LFE63:
 251              		.size	main, .-main
 252              		.section	.text.nunchuk_init,"ax",%progbits
 253              		.align	2
 254              		.global	nunchuk_init
 255              		.thumb
 256              		.thumb_func
 257              		.type	nunchuk_init, %function
 258              	nunchuk_init:
 259              	.LFB66:
 117:.\main.c      **** 
 118:.\main.c      **** /*
 119:.\main.c      **** CY_ISR(ultra_isr_handler)
 120:.\main.c      **** {
 121:.\main.c      ****     i = Timer_ReadCounter();
 122:.\main.c      ****     distance = i / 58;
 123:.\main.c      ****     printf("i = %d, distance = %d", i, distance);
 124:.\main.c      **** }
 125:.\main.c      **** 
ARM GAS  C:\Users\suminh\AppData\Local\Temp\cciOVltW.s 			page 8


 126:.\main.c      **** 
 127:.\main.c      **** 
 128:.\main.c      **** void reflectance_period()
 129:.\main.c      **** {
 130:.\main.c      ****      printf("Period: %d %d %d %d \t", sensors.ll, sensors.lr, sensors.rl, sensors.rr); 
 131:.\main.c      **** }
 132:.\main.c      **** 
 133:.\main.c      **** void reflectance_digital()
 134:.\main.c      **** {
 135:.\main.c      ****     //if the results of reflectance_period function is over 10000, set digital_sensor_value to 0, w
 136:.\main.c      ****     if(sensors.ll > 10000)
 137:.\main.c      ****         digital_sensor_value.ll  = 0;
 138:.\main.c      ****     else
 139:.\main.c      ****         digital_sensor_value.ll  = 1;
 140:.\main.c      ****     if(sensors.lr > 10000)
 141:.\main.c      ****         digital_sensor_value.lr  = 0;
 142:.\main.c      ****     else
 143:.\main.c      ****         digital_sensor_value.lr  = 1;
 144:.\main.c      ****     if(sensors.rl > 10000)
 145:.\main.c      ****         digital_sensor_value.rl  = 0;
 146:.\main.c      ****     else
 147:.\main.c      ****         digital_sensor_value.rl  = 1;
 148:.\main.c      ****     if(sensors.rr > 10000)
 149:.\main.c      ****         digital_sensor_value.rr  = 0;
 150:.\main.c      ****     else
 151:.\main.c      ****         digital_sensor_value.rr  = 1;
 152:.\main.c      ****         
 153:.\main.c      ****    //print out the results
 154:.\main.c      ****    printf("LL LR RL RR : %d %d %d %d \t", digital_sensor_value.ll, digital_sensor_value.lr, digital
 155:.\main.c      **** }
 156:.\main.c      **** 
 157:.\main.c      **** */
 158:.\main.c      **** 
 159:.\main.c      **** void nunchuk_init(void)
 160:.\main.c      **** {
 260              		.loc 1 160 0
 261              		.cfi_startproc
 262              		@ args = 0, pretend = 0, frame = 8
 263              		@ frame_needed = 0, uses_anonymous_args = 0
 264 0000 10B5     		push	{r4, lr}
 265              		.cfi_def_cfa_offset 8
 266              		.cfi_offset 4, -8
 267              		.cfi_offset 14, -4
 268 0002 82B0     		sub	sp, sp, #8
 269              		.cfi_def_cfa_offset 16
 161:.\main.c      ****     uint8_t buf[2] = { 0x40, 0x00 };
 270              		.loc 1 161 0
 271 0004 4023     		movs	r3, #64
 272 0006 8DF80430 		strb	r3, [sp, #4]
 273 000a 0024     		movs	r4, #0
 274 000c 8DF80540 		strb	r4, [sp, #5]
 162:.\main.c      ****     uint8_t status;
 163:.\main.c      ****     I2C_2_MasterClearStatus();
 275              		.loc 1 163 0
 276 0010 FFF7FEFF 		bl	I2C_2_MasterClearStatus
 277              	.LVL31:
 164:.\main.c      ****     CyDelay(100);
ARM GAS  C:\Users\suminh\AppData\Local\Temp\cciOVltW.s 			page 9


 278              		.loc 1 164 0
 279 0014 6420     		movs	r0, #100
 280 0016 FFF7FEFF 		bl	CyDelay
 281              	.LVL32:
 165:.\main.c      ****     status = I2C_2_MasterWriteBuf(0x52, buf, 2, I2C_2_MODE_COMPLETE_XFER);
 282              		.loc 1 165 0
 283 001a 5220     		movs	r0, #82
 284 001c 01A9     		add	r1, sp, #4
 285 001e 0222     		movs	r2, #2
 286 0020 2346     		mov	r3, r4
 287 0022 FFF7FEFF 		bl	I2C_2_MasterWriteBuf
 288              	.LVL33:
 289              	.L14:
 166:.\main.c      ****     while(((status = I2C_2_MasterStatus()) & I2C_2_MSTAT_WR_CMPLT) == 0);
 290              		.loc 1 166 0 discriminator 1
 291 0026 FFF7FEFF 		bl	I2C_2_MasterStatus
 292              	.LVL34:
 293 002a 10F0020F 		tst	r0, #2
 294 002e FAD0     		beq	.L14
 167:.\main.c      ****     CyDelay(100);
 295              		.loc 1 167 0
 296 0030 6420     		movs	r0, #100
 297              	.LVL35:
 298 0032 FFF7FEFF 		bl	CyDelay
 299              	.LVL36:
 168:.\main.c      **** }    
 300              		.loc 1 168 0
 301 0036 02B0     		add	sp, sp, #8
 302              		.cfi_def_cfa_offset 8
 303              		@ sp needed
 304 0038 10BD     		pop	{r4, pc}
 305              		.cfi_endproc
 306              	.LFE66:
 307              		.size	nunchuk_init, .-nunchuk_init
 308 003a 00BF     		.section	.text.nunchuk_read,"ax",%progbits
 309              		.align	2
 310              		.global	nunchuk_read
 311              		.thumb
 312              		.thumb_func
 313              		.type	nunchuk_read, %function
 314              	nunchuk_read:
 315              	.LFB67:
 169:.\main.c      **** 
 170:.\main.c      **** void nunchuk_read(void)
 171:.\main.c      **** {
 316              		.loc 1 171 0
 317              		.cfi_startproc
 318              		@ args = 0, pretend = 0, frame = 8
 319              		@ frame_needed = 0, uses_anonymous_args = 0
 320 0000 30B5     		push	{r4, r5, lr}
 321              		.cfi_def_cfa_offset 12
 322              		.cfi_offset 4, -12
 323              		.cfi_offset 5, -8
 324              		.cfi_offset 14, -4
 325 0002 83B0     		sub	sp, sp, #12
 326              		.cfi_def_cfa_offset 24
 172:.\main.c      ****     uint8_t status;
ARM GAS  C:\Users\suminh\AppData\Local\Temp\cciOVltW.s 			page 10


 173:.\main.c      ****     uint8_t buf[6];
 174:.\main.c      ****     // send conversion command
 175:.\main.c      ****     buf[0] = 0x00;
 327              		.loc 1 175 0
 328 0004 0025     		movs	r5, #0
 329 0006 02AC     		add	r4, sp, #8
 330 0008 04F8085D 		strb	r5, [r4, #-8]!
 176:.\main.c      ****     I2C_2_MasterClearStatus();
 331              		.loc 1 176 0
 332 000c FFF7FEFF 		bl	I2C_2_MasterClearStatus
 333              	.LVL37:
 177:.\main.c      ****     status = I2C_2_MasterWriteBuf(0x52, buf, 1, I2C_2_MODE_COMPLETE_XFER);
 334              		.loc 1 177 0
 335 0010 5220     		movs	r0, #82
 336 0012 2146     		mov	r1, r4
 337 0014 0122     		movs	r2, #1
 338 0016 2B46     		mov	r3, r5
 339 0018 FFF7FEFF 		bl	I2C_2_MasterWriteBuf
 340              	.LVL38:
 341              	.L17:
 178:.\main.c      ****     while(((status = I2C_2_MasterStatus()) & I2C_2_MSTAT_WR_CMPLT) == 0);
 342              		.loc 1 178 0 discriminator 1
 343 001c FFF7FEFF 		bl	I2C_2_MasterStatus
 344              	.LVL39:
 345 0020 10F0020F 		tst	r0, #2
 346 0024 FAD0     		beq	.L17
 179:.\main.c      ****     // wait for conversion to complete
 180:.\main.c      ****     CyDelay(50); // todo: check if shorter wait would work
 347              		.loc 1 180 0
 348 0026 3220     		movs	r0, #50
 349              	.LVL40:
 350 0028 FFF7FEFF 		bl	CyDelay
 351              	.LVL41:
 181:.\main.c      ****     // read values
 182:.\main.c      ****     I2C_2_MasterClearStatus();
 352              		.loc 1 182 0
 353 002c FFF7FEFF 		bl	I2C_2_MasterClearStatus
 354              	.LVL42:
 183:.\main.c      ****     status = I2C_2_MasterReadBuf(0x52, buf, 6, I2C_2_MODE_COMPLETE_XFER);
 355              		.loc 1 183 0
 356 0030 5220     		movs	r0, #82
 357 0032 6946     		mov	r1, sp
 358 0034 0622     		movs	r2, #6
 359 0036 0023     		movs	r3, #0
 360 0038 FFF7FEFF 		bl	I2C_2_MasterReadBuf
 361              	.LVL43:
 362              	.L18:
 184:.\main.c      ****     while(((status = I2C_2_MasterStatus()) & I2C_2_MSTAT_RD_CMPLT) == 0);
 363              		.loc 1 184 0 discriminator 1
 364 003c FFF7FEFF 		bl	I2C_2_MasterStatus
 365              	.LVL44:
 366 0040 10F0010F 		tst	r0, #1
 367 0044 FAD0     		beq	.L18
 368 0046 0023     		movs	r3, #0
 369 0048 00E0     		b	.L19
 370              	.LVL45:
 371              	.L20:
ARM GAS  C:\Users\suminh\AppData\Local\Temp\cciOVltW.s 			page 11


 185:.\main.c      ****     
 186:.\main.c      ****     int i;
 187:.\main.c      ****     // decrypt data
 188:.\main.c      ****     for(i = 0; i < 6; i++) buf[i] = (buf[i] ^ 0x17) + 0x17;
 372              		.loc 1 188 0 discriminator 3
 373 004a 0133     		adds	r3, r3, #1
 374              	.LVL46:
 375              	.L19:
 376              		.loc 1 188 0 is_stmt 0 discriminator 1
 377 004c 052B     		cmp	r3, #5
 378 004e FCDD     		ble	.L20
 189:.\main.c      ****     // accelerometer values
 190:.\main.c      ****     /*
 191:.\main.c      ****     int x,y,z;
 192:.\main.c      ****     x = (buf[2] << 2) | ((buf[5] >> 2) & 0x03);
 193:.\main.c      ****     y = (buf[3] << 2) | ((buf[5] >> 4) & 0x03);
 194:.\main.c      ****     z = (buf[4] << 2) | ((buf[5] >> 6) & 0x03);
 195:.\main.c      ****     // buf[0] = JoyX, buf[1] = JoyY
 196:.\main.c      ****     //printf("%3d %3d, %d, %d, %4d %4d %4d\r\n", buf[0], buf[1], (buf[5] >> 1) & 1, buf[5] & 1, x, 
 197:.\main.c      ****     */
 198:.\main.c      **** }    
 379              		.loc 1 198 0 is_stmt 1
 380 0050 03B0     		add	sp, sp, #12
 381              		.cfi_def_cfa_offset 12
 382              		@ sp needed
 383 0052 30BD     		pop	{r4, r5, pc}
 384              		.cfi_endproc
 385              	.LFE67:
 386              		.size	nunchuk_read, .-nunchuk_read
 387              		.section	.text._write,"ax",%progbits
 388              		.align	2
 389              		.global	_write
 390              		.thumb
 391              		.thumb_func
 392              		.type	_write, %function
 393              	_write:
 394              	.LFB68:
 199:.\main.c      **** 
 200:.\main.c      **** 
 201:.\main.c      **** #if 0
 202:.\main.c      **** int rread(void)
 203:.\main.c      **** {
 204:.\main.c      ****     SC0_SetDriveMode(PIN_DM_STRONG);
 205:.\main.c      ****     SC0_Write(1);
 206:.\main.c      ****     CyDelayUs(10);
 207:.\main.c      ****     SC0_SetDriveMode(PIN_DM_DIG_HIZ);
 208:.\main.c      ****     Timer_1_Start();
 209:.\main.c      ****     uint16_t start = Timer_1_ReadCounter();
 210:.\main.c      ****     uint16_t end = 0;
 211:.\main.c      ****     while(!(Timer_1_ReadStatusRegister() & Timer_1_STATUS_TC)) {
 212:.\main.c      ****         if(SC0_Read() == 0 && end == 0) {
 213:.\main.c      ****             end = Timer_1_ReadCounter();
 214:.\main.c      ****         }
 215:.\main.c      ****     }
 216:.\main.c      ****     Timer_1_Stop();
 217:.\main.c      ****     
 218:.\main.c      ****     return (start - end);
ARM GAS  C:\Users\suminh\AppData\Local\Temp\cciOVltW.s 			page 12


 219:.\main.c      **** }
 220:.\main.c      **** #endif
 221:.\main.c      **** 
 222:.\main.c      **** int _write(int file, char *ptr, int len)
 223:.\main.c      **** {
 395              		.loc 1 223 0
 396              		.cfi_startproc
 397              		@ args = 0, pretend = 0, frame = 0
 398              		@ frame_needed = 0, uses_anonymous_args = 0
 399              	.LVL47:
 400 0000 70B5     		push	{r4, r5, r6, lr}
 401              		.cfi_def_cfa_offset 16
 402              		.cfi_offset 4, -16
 403              		.cfi_offset 5, -12
 404              		.cfi_offset 6, -8
 405              		.cfi_offset 14, -4
 406 0002 1646     		mov	r6, r2
 407              	.LVL48:
 224:.\main.c      ****     (void) file;
 225:.\main.c      **** 	int n;
 226:.\main.c      **** 	for(n = 0; n < len; n++) {
 408              		.loc 1 226 0
 409 0004 0024     		movs	r4, #0
 410 0006 05E0     		b	.L23
 411              	.LVL49:
 412              	.L24:
 227:.\main.c      **** 		UART_PutChar(*ptr++);
 413              		.loc 1 227 0 discriminator 3
 414 0008 4D1C     		adds	r5, r1, #1
 415              	.LVL50:
 416 000a 0878     		ldrb	r0, [r1]	@ zero_extendqisi2
 417 000c FFF7FEFF 		bl	UART_PutChar
 418              	.LVL51:
 226:.\main.c      **** 		UART_PutChar(*ptr++);
 419              		.loc 1 226 0 discriminator 3
 420 0010 0134     		adds	r4, r4, #1
 421              	.LVL52:
 422              		.loc 1 227 0 discriminator 3
 423 0012 2946     		mov	r1, r5
 424              	.LVL53:
 425              	.L23:
 226:.\main.c      **** 		UART_PutChar(*ptr++);
 426              		.loc 1 226 0 discriminator 1
 427 0014 B442     		cmp	r4, r6
 428 0016 F7DB     		blt	.L24
 228:.\main.c      **** 	}
 229:.\main.c      **** 	return len;
 230:.\main.c      **** }
 429              		.loc 1 230 0
 430 0018 3046     		mov	r0, r6
 431 001a 70BD     		pop	{r4, r5, r6, pc}
 432              		.cfi_endproc
 433              	.LFE68:
 434              		.size	_write, .-_write
 435              		.global	distance
 436              		.global	i
 437              		.section	.rodata.str1.4,"aMS",%progbits,1
ARM GAS  C:\Users\suminh\AppData\Local\Temp\cciOVltW.s 			page 13


 438              		.align	2
 439              	.LC0:
 440 0000 53746172 		.ascii	"Start\015\000"
 440      740D00
 441 0007 00       		.space	1
 442              	.LC1:
 443 0008 25642025 		.ascii	"%d %d %d %d %d %d \015\012\000"
 443      64202564 
 443      20256420 
 443      25642025 
 443      64200D0A 
 444 001d 000000   		.bss
 445              		.align	1
 446              		.type	distance, %object
 447              		.size	distance, 2
 448              	distance:
 449 0000 0000     		.space	2
 450              		.type	i, %object
 451              		.size	i, 2
 452              	i:
 453 0002 0000     		.space	2
 454              		.text
 455              	.Letext0:
 456              		.file 2 "c:\\program files (x86)\\cypress\\psoc creator\\3.3\\psoc creator\\import\\gnu\\arm\\4.9.
 457              		.file 3 "c:\\program files (x86)\\cypress\\psoc creator\\3.3\\psoc creator\\import\\gnu\\arm\\4.9.
 458              		.file 4 "Generated_Source\\PSoC5/cytypes.h"
 459              		.file 5 "Generated_Source\\PSoC5/core_cm3.h"
 460              		.file 6 "Generated_Source\\PSoC5/I2C.h"
 461              		.file 7 "Generated_Source\\PSoC5/UART.h"
 462              		.file 8 "c:\\program files (x86)\\cypress\\psoc creator\\3.3\\psoc creator\\import\\gnu\\arm\\4.9.
 463              		.file 9 "Generated_Source\\PSoC5/I2C_2.h"
 464              		.file 10 "Generated_Source\\PSoC5/CyLib.h"
 465              		.file 11 "<built-in>"