ARM GAS  C:\Users\dufma\AppData\Local\Temp\cc9YsNXc.s 			page 1


   1              		.syntax unified
   2              		.cpu cortex-m3
   3              		.fpu softvfp
   4              		.eabi_attribute 20, 1
   5              		.eabi_attribute 21, 1
   6              		.eabi_attribute 23, 3
   7              		.eabi_attribute 24, 1
   8              		.eabi_attribute 25, 1
   9              		.eabi_attribute 26, 1
  10              		.eabi_attribute 30, 1
  11              		.eabi_attribute 34, 1
  12              		.eabi_attribute 18, 4
  13              		.thumb
  14              		.file	"accel.c"
  15              		.text
  16              	.Ltext0:
  17              		.cfi_sections	.debug_frame
  18              		.global	__aeabi_ui2d
  19              		.global	__aeabi_dadd
  20              		.global	__aeabi_d2f
  21              		.global	__aeabi_fmul
  22              		.global	__aeabi_f2d
  23              		.global	__aeabi_ddiv
  24              		.section	.text.value_convert_accel,"ax",%progbits
  25              		.align	2
  26              		.global	value_convert_accel
  27              		.thumb
  28              		.thumb_func
  29              		.type	value_convert_accel, %function
  30              	value_convert_accel:
  31              	.LFB63:
  32              		.file 1 ".\\accel.c"
   1:.\accel.c     **** /* ========================================
   2:.\accel.c     ****  *
   3:.\accel.c     ****  * Copyright YOUR COMPANY, THE YEAR
   4:.\accel.c     ****  * All Rights Reserved
   5:.\accel.c     ****  * UNPUBLISHED, LICENSED SOFTWARE.
   6:.\accel.c     ****  *
   7:.\accel.c     ****  * CONFIDENTIAL AND PROPRIETARY INFORMATION
   8:.\accel.c     ****  * WHICH IS THE PROPERTY OF your company.
   9:.\accel.c     ****  *
  10:.\accel.c     ****  * ========================================
  11:.\accel.c     **** */
  12:.\accel.c     **** 
  13:.\accel.c     **** /* [] END OF FILE */
  14:.\accel.c     **** 
  15:.\accel.c     **** #include <project.h>
  16:.\accel.c     **** #include <math.h>
  17:.\accel.c     **** #include <accel_magnet.h>
  18:.\accel.c     **** #include <stdio.h>
  19:.\accel.c     **** 
  20:.\accel.c     **** 
  21:.\accel.c     **** void value_convert_accel(uint16 X_AXIS, uint16 Y_AXIS, uint16 Z_AXIS)
  22:.\accel.c     **** {
  33              		.loc 1 22 0
  34              		.cfi_startproc
  35              		@ args = 0, pretend = 0, frame = 0
ARM GAS  C:\Users\dufma\AppData\Local\Temp\cc9YsNXc.s 			page 2


  36              		@ frame_needed = 0, uses_anonymous_args = 0
  37              	.LVL0:
  38 0000 2DE9F041 		push	{r4, r5, r6, r7, r8, lr}
  39              		.cfi_def_cfa_offset 24
  40              		.cfi_offset 4, -24
  41              		.cfi_offset 5, -20
  42              		.cfi_offset 6, -16
  43              		.cfi_offset 7, -12
  44              		.cfi_offset 8, -8
  45              		.cfi_offset 14, -4
  46 0004 82B0     		sub	sp, sp, #8
  47              		.cfi_def_cfa_offset 32
  48 0006 8046     		mov	r8, r0
  49 0008 0E46     		mov	r6, r1
  23:.\accel.c     ****     double AccXangle, AccYangle;
  24:.\accel.c     ****    
  25:.\accel.c     ****     AccXangle = (float) (atan2(Y_AXIS, Z_AXIS)+M_PI) *180 / M_PI;
  50              		.loc 1 25 0
  51 000a 1046     		mov	r0, r2
  52              	.LVL1:
  53 000c FFF7FEFF 		bl	__aeabi_ui2d
  54              	.LVL2:
  55 0010 0446     		mov	r4, r0
  56 0012 0D46     		mov	r5, r1
  57 0014 3046     		mov	r0, r6
  58 0016 FFF7FEFF 		bl	__aeabi_ui2d
  59              	.LVL3:
  60 001a 2246     		mov	r2, r4
  61 001c 2B46     		mov	r3, r5
  62 001e FFF7FEFF 		bl	atan2
  63              	.LVL4:
  64 0022 1BA3     		adr	r3, .L3
  65 0024 D3E90023 		ldrd	r2, [r3]
  66 0028 FFF7FEFF 		bl	__aeabi_dadd
  67              	.LVL5:
  68 002c FFF7FEFF 		bl	__aeabi_d2f
  69              	.LVL6:
  70 0030 1949     		ldr	r1, .L3+8
  71 0032 FFF7FEFF 		bl	__aeabi_fmul
  72              	.LVL7:
  73 0036 FFF7FEFF 		bl	__aeabi_f2d
  74              	.LVL8:
  75 003a 15A3     		adr	r3, .L3
  76 003c D3E90023 		ldrd	r2, [r3]
  77 0040 FFF7FEFF 		bl	__aeabi_ddiv
  78              	.LVL9:
  79 0044 0646     		mov	r6, r0
  80 0046 0F46     		mov	r7, r1
  81              	.LVL10:
  26:.\accel.c     ****     AccYangle = (float) (atan2(Z_AXIS, X_AXIS)+M_PI) *180 / M_PI;
  82              		.loc 1 26 0
  83 0048 4046     		mov	r0, r8
  84 004a FFF7FEFF 		bl	__aeabi_ui2d
  85              	.LVL11:
  86 004e 0246     		mov	r2, r0
  87 0050 0B46     		mov	r3, r1
  88 0052 2046     		mov	r0, r4
ARM GAS  C:\Users\dufma\AppData\Local\Temp\cc9YsNXc.s 			page 3


  89 0054 2946     		mov	r1, r5
  90 0056 FFF7FEFF 		bl	atan2
  91              	.LVL12:
  92 005a 0DA3     		adr	r3, .L3
  93 005c D3E90023 		ldrd	r2, [r3]
  94 0060 FFF7FEFF 		bl	__aeabi_dadd
  95              	.LVL13:
  96 0064 FFF7FEFF 		bl	__aeabi_d2f
  97              	.LVL14:
  98 0068 0B49     		ldr	r1, .L3+8
  99 006a FFF7FEFF 		bl	__aeabi_fmul
 100              	.LVL15:
 101 006e FFF7FEFF 		bl	__aeabi_f2d
 102              	.LVL16:
 103 0072 07A3     		adr	r3, .L3
 104 0074 D3E90023 		ldrd	r2, [r3]
 105 0078 FFF7FEFF 		bl	__aeabi_ddiv
 106              	.LVL17:
  27:.\accel.c     ****     
  28:.\accel.c     ****     printf("%7.3f %7.3f \r\n", AccXangle, AccYangle);
 107              		.loc 1 28 0
 108 007c CDE90001 		strd	r0, [sp]
 109 0080 0648     		ldr	r0, .L3+12
 110              	.LVL18:
 111 0082 3246     		mov	r2, r6
 112 0084 3B46     		mov	r3, r7
 113 0086 FFF7FEFF 		bl	printf
 114              	.LVL19:
  29:.\accel.c     **** }
 115              		.loc 1 29 0
 116 008a 02B0     		add	sp, sp, #8
 117              		.cfi_def_cfa_offset 24
 118              		@ sp needed
 119 008c BDE8F081 		pop	{r4, r5, r6, r7, r8, pc}
 120              	.LVL20:
 121              	.L4:
 122              		.align	3
 123              	.L3:
 124 0090 182D4454 		.word	1413754136
 125 0094 FB210940 		.word	1074340347
 126 0098 00003443 		.word	1127481344
 127 009c 00000000 		.word	.LC0
 128              		.cfi_endproc
 129              	.LFE63:
 130              		.size	value_convert_accel, .-value_convert_accel
 131              		.section	.text.value_convert_accelX,"ax",%progbits
 132              		.align	2
 133              		.global	value_convert_accelX
 134              		.thumb
 135              		.thumb_func
 136              		.type	value_convert_accelX, %function
 137              	value_convert_accelX:
 138              	.LFB64:
  30:.\accel.c     **** 
  31:.\accel.c     **** double value_convert_accelX( uint16 Y_AXIS, uint16 Z_AXIS)
  32:.\accel.c     **** {
 139              		.loc 1 32 0
ARM GAS  C:\Users\dufma\AppData\Local\Temp\cc9YsNXc.s 			page 4


 140              		.cfi_startproc
 141              		@ args = 0, pretend = 0, frame = 0
 142              		@ frame_needed = 0, uses_anonymous_args = 0
 143              	.LVL21:
 144 0000 70B5     		push	{r4, r5, r6, lr}
 145              		.cfi_def_cfa_offset 16
 146              		.cfi_offset 4, -16
 147              		.cfi_offset 5, -12
 148              		.cfi_offset 6, -8
 149              		.cfi_offset 14, -4
 150 0002 0E46     		mov	r6, r1
  33:.\accel.c     ****     double AccXangle, AccYangle;
  34:.\accel.c     ****    
  35:.\accel.c     ****     AccXangle = (float) (atan2(Y_AXIS, Z_AXIS)+M_PI) *180 / M_PI;
 151              		.loc 1 35 0
 152 0004 FFF7FEFF 		bl	__aeabi_ui2d
 153              	.LVL22:
 154 0008 0446     		mov	r4, r0
 155 000a 0D46     		mov	r5, r1
 156 000c 3046     		mov	r0, r6
 157 000e FFF7FEFF 		bl	__aeabi_ui2d
 158              	.LVL23:
 159 0012 0246     		mov	r2, r0
 160 0014 0B46     		mov	r3, r1
 161 0016 2046     		mov	r0, r4
 162 0018 2946     		mov	r1, r5
 163 001a FFF7FEFF 		bl	atan2
 164              	.LVL24:
 165 001e 0AA3     		adr	r3, .L7
 166 0020 D3E90023 		ldrd	r2, [r3]
 167 0024 FFF7FEFF 		bl	__aeabi_dadd
 168              	.LVL25:
 169 0028 FFF7FEFF 		bl	__aeabi_d2f
 170              	.LVL26:
 171 002c 0849     		ldr	r1, .L7+8
 172 002e FFF7FEFF 		bl	__aeabi_fmul
 173              	.LVL27:
 174 0032 FFF7FEFF 		bl	__aeabi_f2d
 175              	.LVL28:
 176 0036 04A3     		adr	r3, .L7
 177 0038 D3E90023 		ldrd	r2, [r3]
 178 003c FFF7FEFF 		bl	__aeabi_ddiv
 179              	.LVL29:
  36:.\accel.c     ****     return AccXangle;
  37:.\accel.c     **** }
 180              		.loc 1 37 0
 181 0040 70BD     		pop	{r4, r5, r6, pc}
 182              	.L8:
 183 0042 00BFAFF3 		.align	3
 183      0080
 184              	.L7:
 185 0048 182D4454 		.word	1413754136
 186 004c FB210940 		.word	1074340347
 187 0050 00003443 		.word	1127481344
 188              		.cfi_endproc
 189              	.LFE64:
 190              		.size	value_convert_accelX, .-value_convert_accelX
ARM GAS  C:\Users\dufma\AppData\Local\Temp\cc9YsNXc.s 			page 5


 191 0054 AFF30080 		.section	.text.value_convert_accelY,"ax",%progbits
 192              		.align	2
 193              		.global	value_convert_accelY
 194              		.thumb
 195              		.thumb_func
 196              		.type	value_convert_accelY, %function
 197              	value_convert_accelY:
 198              	.LFB65:
  38:.\accel.c     **** 
  39:.\accel.c     **** double value_convert_accelY( uint16 X_AXIS, uint16 Z_AXIS)
  40:.\accel.c     **** {
 199              		.loc 1 40 0
 200              		.cfi_startproc
 201              		@ args = 0, pretend = 0, frame = 0
 202              		@ frame_needed = 0, uses_anonymous_args = 0
 203              	.LVL30:
 204 0000 70B5     		push	{r4, r5, r6, lr}
 205              		.cfi_def_cfa_offset 16
 206              		.cfi_offset 4, -16
 207              		.cfi_offset 5, -12
 208              		.cfi_offset 6, -8
 209              		.cfi_offset 14, -4
 210 0002 0646     		mov	r6, r0
  41:.\accel.c     ****     double AccXangle, AccYangle;
  42:.\accel.c     ****    
  43:.\accel.c     ****     AccYangle = (float) (atan2(Z_AXIS, X_AXIS)+M_PI) *180 / M_PI;
 211              		.loc 1 43 0
 212 0004 0846     		mov	r0, r1
 213              	.LVL31:
 214 0006 FFF7FEFF 		bl	__aeabi_ui2d
 215              	.LVL32:
 216 000a 0446     		mov	r4, r0
 217 000c 0D46     		mov	r5, r1
 218 000e 3046     		mov	r0, r6
 219 0010 FFF7FEFF 		bl	__aeabi_ui2d
 220              	.LVL33:
 221 0014 0246     		mov	r2, r0
 222 0016 0B46     		mov	r3, r1
 223 0018 2046     		mov	r0, r4
 224 001a 2946     		mov	r1, r5
 225 001c FFF7FEFF 		bl	atan2
 226              	.LVL34:
 227 0020 09A3     		adr	r3, .L11
 228 0022 D3E90023 		ldrd	r2, [r3]
 229 0026 FFF7FEFF 		bl	__aeabi_dadd
 230              	.LVL35:
 231 002a FFF7FEFF 		bl	__aeabi_d2f
 232              	.LVL36:
 233 002e 0849     		ldr	r1, .L11+8
 234 0030 FFF7FEFF 		bl	__aeabi_fmul
 235              	.LVL37:
 236 0034 FFF7FEFF 		bl	__aeabi_f2d
 237              	.LVL38:
 238 0038 03A3     		adr	r3, .L11
 239 003a D3E90023 		ldrd	r2, [r3]
 240 003e FFF7FEFF 		bl	__aeabi_ddiv
 241              	.LVL39:
ARM GAS  C:\Users\dufma\AppData\Local\Temp\cc9YsNXc.s 			page 6


  44:.\accel.c     ****     return AccYangle;
  45:.\accel.c     **** }...
 242              		.loc 1 45 0
 243 0042 70BD     		pop	{r4, r5, r6, pc}
 244              	.L12:
 245 0044 AFF30080 		.align	3
 246              	.L11:
 247 0048 182D4454 		.word	1413754136
 248 004c FB210940 		.word	1074340347
 249 0050 00003443 		.word	1127481344
 250              		.cfi_endproc
 251              	.LFE65:
 252              		.size	value_convert_accelY, .-value_convert_accelY
 253 0054 AFF30080 		.section	.rodata.str1.4,"aMS",%progbits,1
 254              		.align	2
 255              	.LC0:
 256 0000 25372E33 		.ascii	"%7.3f %7.3f \015\012\000"
 256      66202537 
 256      2E336620 
 256      0D0A00
 257 000f 00       		.text
 258              	.Letext0:
 259              		.file 2 "c:\\program files (x86)\\cypress\\psoc creator\\3.3\\psoc creator\\import\\gnu\\arm\\4.9.
 260              		.file 3 "c:\\program files (x86)\\cypress\\psoc creator\\3.3\\psoc creator\\import\\gnu\\arm\\4.9.
 261              		.file 4 "Generated_Source\\PSoC5/cytypes.h"
 262              		.file 5 "Generated_Source\\PSoC5/core_cm3.h"
 263              		.file 6 "c:\\program files (x86)\\cypress\\psoc creator\\3.3\\psoc creator\\import\\gnu\\arm\\4.9.
 264              		.file 7 "c:\\program files (x86)\\cypress\\psoc creator\\3.3\\psoc creator\\import\\gnu\\arm\\4.9.