ARM GAS  C:\Users\dufma\AppData\Local\Temp\ccmq0pjt.s 			page 1


   1              		.syntax unified
   2              		.cpu cortex-m3
   3              		.fpu softvfp
   4              		.eabi_attribute 20, 1
   5              		.eabi_attribute 21, 1
   6              		.eabi_attribute 23, 3
   7              		.eabi_attribute 24, 1
   8              		.eabi_attribute 25, 1
   9              		.eabi_attribute 26, 1
  10              		.eabi_attribute 30, 1
  11              		.eabi_attribute 34, 1
  12              		.eabi_attribute 18, 4
  13              		.thumb
  14              		.file	"main.c"
  15              		.text
  16              	.Ltext0:
  17              		.cfi_sections	.debug_frame
  18              		.global	__aeabi_ddiv
  19              		.global	__aeabi_dcmpgt
  20              		.global	__aeabi_dcmple
  21              		.global	__aeabi_dmul
  22              		.global	__aeabi_dsub
  23              		.section	.text.getLux,"ax",%progbits
  24              		.align	2
  25              		.global	getLux
  26              		.thumb
  27              		.thumb_func
  28              		.type	getLux, %function
  29              	getLux:
  30              	.LFB63:
  31              		.file 1 ".\\main.c"
   1:.\main.c      **** /* ======== ================================
   2:.\main.c      ****  *
   3:.\main.c      ****  * Copyright YOUR COMPANY, THE YEAR
   4:.\main.c      ****  * All Rights Reserved
   5:.\main.c      ****  * UNPUBLISHED, LICENSED SOFTWARE.
   6:.\main.c      ****  *
   7:.\main.c      ****  * CONFIDENTIAL AND PROPRIETARY INFORMATION
   8:.\main.c      ****  * WHICH IS THE PROPERTY OF your company.
   9:.\main.c      ****  *
  10:.\main.c      ****  * ========================================
  11:.\main.c      **** */
  12:.\main.c      **** #include <project.h>
  13:.\main.c      **** #include <stdio.h>
  14:.\main.c      **** #include "Motor.h"
  15:.\main.c      **** #include "Ultra.h"
  16:.\main.c      **** #include "nunchuk.h"
  17:.\main.c      **** #include "Reflectance.h"
  18:.\main.c      **** #include "I2C_made.h"
  19:.\main.c      **** #include "gyro.h"
  20:.\main.c      **** #include "accel_magnet.h"
  21:.\main.c      **** #include <math.h>
  22:.\main.c      **** 
  23:.\main.c      **** int rread(void);
  24:.\main.c      **** 
  25:.\main.c      **** #define CH0_L           0x8C
  26:.\main.c      **** #define CH0_H           0x8D
ARM GAS  C:\Users\dufma\AppData\Local\Temp\ccmq0pjt.s 			page 2


  27:.\main.c      **** #define CH1_L           0x8E
  28:.\main.c      **** #define CH1_H           0x8F
  29:.\main.c      **** 
  30:.\main.c      **** double getLux(double CH0, double CH1)
  31:.\main.c      **** {
  32              		.loc 1 31 0
  33              		.cfi_startproc
  34              		@ args = 0, pretend = 0, frame = 0
  35              		@ frame_needed = 0, uses_anonymous_args = 0
  36              	.LVL0:
  37 0000 2DE9F843 		push	{r3, r4, r5, r6, r7, r8, r9, lr}
  38              		.cfi_def_cfa_offset 32
  39              		.cfi_offset 3, -32
  40              		.cfi_offset 4, -28
  41              		.cfi_offset 5, -24
  42              		.cfi_offset 6, -20
  43              		.cfi_offset 7, -16
  44              		.cfi_offset 8, -12
  45              		.cfi_offset 9, -8
  46              		.cfi_offset 14, -4
  47 0004 0646     		mov	r6, r0
  48 0006 0F46     		mov	r7, r1
  49 0008 9046     		mov	r8, r2
  50 000a 9946     		mov	r9, r3
  51              	.LVL1:
  32:.\main.c      **** 	double result = 0;
  33:.\main.c      ****     double ChannelRatio = (double)CH1/CH0;
  52              		.loc 1 33 0
  53 000c 1046     		mov	r0, r2
  54              	.LVL2:
  55 000e 1946     		mov	r1, r3
  56 0010 3246     		mov	r2, r6
  57              	.LVL3:
  58 0012 3B46     		mov	r3, r7
  59 0014 FFF7FEFF 		bl	__aeabi_ddiv
  60              	.LVL4:
  61 0018 0446     		mov	r4, r0
  62 001a 0D46     		mov	r5, r1
  63              	.LVL5:
  34:.\main.c      ****     
  35:.\main.c      ****     if((0<ChannelRatio) && (ChannelRatio <= 0.5))
  64              		.loc 1 35 0
  65 001c 0022     		movs	r2, #0
  66 001e 0023     		movs	r3, #0
  67 0020 FFF7FEFF 		bl	__aeabi_dcmpgt
  68              	.LVL6:
  69 0024 68B3     		cbz	r0, .L2
  70              		.loc 1 35 0 is_stmt 0 discriminator 1
  71 0026 2046     		mov	r0, r4
  72 0028 2946     		mov	r1, r5
  73 002a 0022     		movs	r2, #0
  74 002c 6C4B     		ldr	r3, .L27+96
  75 002e FFF7FEFF 		bl	__aeabi_dcmple
  76              	.LVL7:
  77 0032 30B3     		cbz	r0, .L2
  36:.\main.c      ****         result = (0.0304 * CH0) - (0.062 * CH0 * pow(ChannelRatio, 1.4));
  78              		.loc 1 36 0 is_stmt 1
ARM GAS  C:\Users\dufma\AppData\Local\Temp\ccmq0pjt.s 			page 3


  79 0034 3046     		mov	r0, r6
  80 0036 3946     		mov	r1, r7
  81 0038 51A3     		adr	r3, .L27
  82 003a D3E90023 		ldrd	r2, [r3]
  83 003e FFF7FEFF 		bl	__aeabi_dmul
  84              	.LVL8:
  85 0042 8046     		mov	r8, r0
  86 0044 8946     		mov	r9, r1
  87 0046 3046     		mov	r0, r6
  88 0048 3946     		mov	r1, r7
  89 004a 4FA3     		adr	r3, .L27+8
  90 004c D3E90023 		ldrd	r2, [r3]
  91 0050 FFF7FEFF 		bl	__aeabi_dmul
  92              	.LVL9:
  93 0054 0646     		mov	r6, r0
  94 0056 0F46     		mov	r7, r1
  95 0058 2046     		mov	r0, r4
  96 005a 2946     		mov	r1, r5
  97 005c 4CA3     		adr	r3, .L27+16
  98 005e D3E90023 		ldrd	r2, [r3]
  99 0062 FFF7FEFF 		bl	pow
 100              	.LVL10:
 101 0066 0246     		mov	r2, r0
 102 0068 0B46     		mov	r3, r1
 103 006a 3046     		mov	r0, r6
 104 006c 3946     		mov	r1, r7
 105 006e FFF7FEFF 		bl	__aeabi_dmul
 106              	.LVL11:
 107 0072 0246     		mov	r2, r0
 108 0074 0B46     		mov	r3, r1
 109 0076 4046     		mov	r0, r8
 110 0078 4946     		mov	r1, r9
 111 007a FFF7FEFF 		bl	__aeabi_dsub
 112              	.LVL12:
 113 007e BDE8F883 		pop	{r3, r4, r5, r6, r7, r8, r9, pc}
 114              	.LVL13:
 115              	.L2:
  37:.\main.c      ****     else if((0.5<ChannelRatio)&&(ChannelRatio <= 0.61))
 116              		.loc 1 37 0
 117 0082 2046     		mov	r0, r4
 118 0084 2946     		mov	r1, r5
 119 0086 0022     		movs	r2, #0
 120 0088 554B     		ldr	r3, .L27+96
 121 008a FFF7FEFF 		bl	__aeabi_dcmpgt
 122              	.LVL14:
 123 008e F8B1     		cbz	r0, .L6
 124              		.loc 1 37 0 is_stmt 0 discriminator 1
 125 0090 2046     		mov	r0, r4
 126 0092 2946     		mov	r1, r5
 127 0094 40A3     		adr	r3, .L27+24
 128 0096 D3E90023 		ldrd	r2, [r3]
 129 009a FFF7FEFF 		bl	__aeabi_dcmple
 130              	.LVL15:
 131 009e B8B1     		cbz	r0, .L6
  38:.\main.c      ****         result = (0.0224 * CH0) - (0.031 * CH1);
 132              		.loc 1 38 0 is_stmt 1
 133 00a0 3046     		mov	r0, r6
ARM GAS  C:\Users\dufma\AppData\Local\Temp\ccmq0pjt.s 			page 4


 134 00a2 3946     		mov	r1, r7
 135 00a4 3EA3     		adr	r3, .L27+32
 136 00a6 D3E90023 		ldrd	r2, [r3]
 137 00aa FFF7FEFF 		bl	__aeabi_dmul
 138              	.LVL16:
 139 00ae 0446     		mov	r4, r0
 140              	.LVL17:
 141 00b0 0D46     		mov	r5, r1
 142 00b2 4046     		mov	r0, r8
 143 00b4 4946     		mov	r1, r9
 144 00b6 3CA3     		adr	r3, .L27+40
 145 00b8 D3E90023 		ldrd	r2, [r3]
 146 00bc FFF7FEFF 		bl	__aeabi_dmul
 147              	.LVL18:
 148 00c0 0246     		mov	r2, r0
 149 00c2 0B46     		mov	r3, r1
 150 00c4 2046     		mov	r0, r4
 151 00c6 2946     		mov	r1, r5
 152 00c8 FFF7FEFF 		bl	__aeabi_dsub
 153              	.LVL19:
 154 00cc BDE8F883 		pop	{r3, r4, r5, r6, r7, r8, r9, pc}
 155              	.LVL20:
 156              	.L6:
  39:.\main.c      ****     else if((0.61<ChannelRatio)&&(ChannelRatio <= 0.80))
 157              		.loc 1 39 0
 158 00d0 2046     		mov	r0, r4
 159 00d2 2946     		mov	r1, r5
 160 00d4 30A3     		adr	r3, .L27+24
 161 00d6 D3E90023 		ldrd	r2, [r3]
 162 00da FFF7FEFF 		bl	__aeabi_dcmpgt
 163              	.LVL21:
 164 00de F8B1     		cbz	r0, .L9
 165              		.loc 1 39 0 is_stmt 0 discriminator 1
 166 00e0 2046     		mov	r0, r4
 167 00e2 2946     		mov	r1, r5
 168 00e4 32A3     		adr	r3, .L27+48
 169 00e6 D3E90023 		ldrd	r2, [r3]
 170 00ea FFF7FEFF 		bl	__aeabi_dcmple
 171              	.LVL22:
 172 00ee B8B1     		cbz	r0, .L9
  40:.\main.c      ****         result = (0.0128 * CH0) - (0.0153 * CH1);
 173              		.loc 1 40 0 is_stmt 1
 174 00f0 3046     		mov	r0, r6
 175 00f2 3946     		mov	r1, r7
 176 00f4 30A3     		adr	r3, .L27+56
 177 00f6 D3E90023 		ldrd	r2, [r3]
 178 00fa FFF7FEFF 		bl	__aeabi_dmul
 179              	.LVL23:
 180 00fe 0446     		mov	r4, r0
 181              	.LVL24:
 182 0100 0D46     		mov	r5, r1
 183 0102 4046     		mov	r0, r8
 184 0104 4946     		mov	r1, r9
 185 0106 2EA3     		adr	r3, .L27+64
 186 0108 D3E90023 		ldrd	r2, [r3]
 187 010c FFF7FEFF 		bl	__aeabi_dmul
 188              	.LVL25:
ARM GAS  C:\Users\dufma\AppData\Local\Temp\ccmq0pjt.s 			page 5


 189 0110 0246     		mov	r2, r0
 190 0112 0B46     		mov	r3, r1
 191 0114 2046     		mov	r0, r4
 192 0116 2946     		mov	r1, r5
 193 0118 FFF7FEFF 		bl	__aeabi_dsub
 194              	.LVL26:
 195 011c BDE8F883 		pop	{r3, r4, r5, r6, r7, r8, r9, pc}
 196              	.LVL27:
 197              	.L9:
  41:.\main.c      ****     else if((0.80<ChannelRatio)&&(ChannelRatio <= 1.30))
 198              		.loc 1 41 0
 199 0120 2046     		mov	r0, r4
 200 0122 2946     		mov	r1, r5
 201 0124 22A3     		adr	r3, .L27+48
 202 0126 D3E90023 		ldrd	r2, [r3]
 203 012a FFF7FEFF 		bl	__aeabi_dcmpgt
 204              	.LVL28:
 205 012e F8B1     		cbz	r0, .L24
 206              		.loc 1 41 0 is_stmt 0 discriminator 1
 207 0130 2046     		mov	r0, r4
 208 0132 2946     		mov	r1, r5
 209 0134 24A3     		adr	r3, .L27+72
 210 0136 D3E90023 		ldrd	r2, [r3]
 211 013a FFF7FEFF 		bl	__aeabi_dcmple
 212              	.LVL29:
 213 013e D8B1     		cbz	r0, .L25
  42:.\main.c      ****         result = (0.00146 * CH0) - (0.00112 * CH1);
 214              		.loc 1 42 0 is_stmt 1
 215 0140 3046     		mov	r0, r6
 216 0142 3946     		mov	r1, r7
 217 0144 22A3     		adr	r3, .L27+80
 218 0146 D3E90023 		ldrd	r2, [r3]
 219 014a FFF7FEFF 		bl	__aeabi_dmul
 220              	.LVL30:
 221 014e 0446     		mov	r4, r0
 222              	.LVL31:
 223 0150 0D46     		mov	r5, r1
 224 0152 4046     		mov	r0, r8
 225 0154 4946     		mov	r1, r9
 226 0156 20A3     		adr	r3, .L27+88
 227 0158 D3E90023 		ldrd	r2, [r3]
 228 015c FFF7FEFF 		bl	__aeabi_dmul
 229              	.LVL32:
 230 0160 0246     		mov	r2, r0
 231 0162 0B46     		mov	r3, r1
 232 0164 2046     		mov	r0, r4
 233 0166 2946     		mov	r1, r5
 234 0168 FFF7FEFF 		bl	__aeabi_dsub
 235              	.LVL33:
 236 016c BDE8F883 		pop	{r3, r4, r5, r6, r7, r8, r9, pc}
 237              	.LVL34:
 238              	.L24:
  43:.\main.c      ****     else 
  44:.\main.c      ****         result = 0;
 239              		.loc 1 44 0
 240 0170 0020     		movs	r0, #0
 241 0172 0021     		movs	r1, #0
ARM GAS  C:\Users\dufma\AppData\Local\Temp\ccmq0pjt.s 			page 6


 242 0174 BDE8F883 		pop	{r3, r4, r5, r6, r7, r8, r9, pc}
 243              	.LVL35:
 244              	.L25:
 245 0178 0020     		movs	r0, #0
 246 017a 0021     		movs	r1, #0
 247              	.LVL36:
  45:.\main.c      **** /*
  46:.\main.c      ****     
  47:.\main.c      ****       if(ChannelRatio <= 0.5)
  48:.\main.c      ****         result = (0.0224 * CH0) - (0.031 * CH1);
  49:.\main.c      ****     else if(ChannelRatio <= 0.61)
  50:.\main.c      ****         result = (0.0128 * CH0) - (0.0153 * CH1);
  51:.\main.c      ****     else if(ChannelRatio <= 0.80)
  52:.\main.c      ****         result = (0.0128 * CH0) - (0.0153 * CH1);
  53:.\main.c      ****     else if(ChannelRatio <= 1.30)
  54:.\main.c      ****          result = (0.00146 * CH0) - (0.00112 * CH1);*/
  55:.\main.c      ****     return result;
  56:.\main.c      **** }
 248              		.loc 1 56 0
 249 017c BDE8F883 		pop	{r3, r4, r5, r6, r7, r8, r9, pc}
 250              	.LVL37:
 251              	.L28:
 252              		.align	3
 253              	.L27:
 254 0180 C58F3177 		.word	1999736773
 255 0184 2D219F3F 		.word	1067393325
 256 0188 5839B4C8 		.word	-927712936
 257 018c 76BEAF3F 		.word	1068482166
 258 0190 66666666 		.word	1717986918
 259 0194 6666F63F 		.word	1073112678
 260 0198 85EB51B8 		.word	-1202590843
 261 019c 1E85E33F 		.word	1071875358
 262 01a0 C7BAB88D 		.word	-1917273401
 263 01a4 06F0963F 		.word	1066856454
 264 01a8 5839B4C8 		.word	-927712936
 265 01ac 76BE9F3F 		.word	1067433590
 266 01b0 9A999999 		.word	-1717986918
 267 01b4 9999E93F 		.word	1072273817
 268 01b8 2D431CEB 		.word	-350469331
 269 01bc E2368A3F 		.word	1066022626
 270 01c0 4BC8073D 		.word	1023920203
 271 01c4 9B558F3F 		.word	1066358171
 272 01c8 CDCCCCCC 		.word	-858993459
 273 01cc CCCCF43F 		.word	1073007820
 274 01d0 B2632310 		.word	270754738
 275 01d4 AFEB573F 		.word	1062726575
 276 01d8 D2FBC6D7 		.word	-674825262
 277 01dc 9E59523F 		.word	1062361502
 278 01e0 0000E03F 		.word	1071644672
 279              		.cfi_endproc
 280              	.LFE63:
 281              		.size	getLux, .-getLux
 282 01e4 AFF30080 		.section	.text.convert_raw,"ax",%progbits
 283              		.align	2
 284              		.global	convert_raw
 285              		.thumb
 286              		.thumb_func
ARM GAS  C:\Users\dufma\AppData\Local\Temp\ccmq0pjt.s 			page 7


 287              		.type	convert_raw, %function
 288              	convert_raw:
 289              	.LFB65:
  57:.\main.c      **** 
  58:.\main.c      **** 
  59:.\main.c      **** int main()
  60:.\main.c      **** {
  61:.\main.c      ****     CyGlobalIntEnable; 
  62:.\main.c      ****     UART_Start();
  63:.\main.c      ****     printf("Start\r\n");
  64:.\main.c      ****    
  65:.\main.c      ****     I2C_Start();
  66:.\main.c      ****     
  67:.\main.c      ****     uint16 value =0;
  68:.\main.c      ****     
  69:.\main.c      ****     I2C_write(0x29,0x80,0x00);
  70:.\main.c      ****     
  71:.\main.c      ****     value = I2C_read(0x29,0x80);
  72:.\main.c      ****     printf("%x ",value);
  73:.\main.c      ****     
  74:.\main.c      ****     I2C_write(0x29,0x80,0x03);
  75:.\main.c      ****     value = I2C_read(0x29,0x80);
  76:.\main.c      ****     printf("%x\r\n",value);
  77:.\main.c      ****         
  78:.\main.c      ****     value = I2C_read(0x29,0x81);
  79:.\main.c      ****     printf("%x\r\n",value);
  80:.\main.c      ****     for(;;)
  81:.\main.c      ****     {
  82:.\main.c      ****         
  83:.\main.c      ****         uint8 Data0Low,Data0High,Data1Low,Data1High;
  84:.\main.c      ****         Data0Low = I2C_read(0x29,CH0_L);
  85:.\main.c      ****         Data0High = I2C_read(0x29,CH0_H);
  86:.\main.c      ****         Data1Low = I2C_read(0x29,CH1_L);
  87:.\main.c      ****         Data1High = I2C_read(0x29,CH1_H);
  88:.\main.c      ****         
  89:.\main.c      ****         uint8 CH0, CH1;
  90:.\main.c      ****         CH0 = convert_raw(Data0Low,Data0High);
  91:.\main.c      ****         CH1 = convert_raw(Data1Low,Data1High);
  92:.\main.c      **** 
  93:.\main.c      ****    //     printf("%d %d %d %d\r\n",Data0Low,Data0High, Data1Low,Data1High);
  94:.\main.c      ****         printf("%d %d\r\n",CH0,CH1);
  95:.\main.c      ****            printf("%f\r\n",(float)CH1/CH0);
  96:.\main.c      ****         
  97:.\main.c      ****    
  98:.\main.c      ****         
  99:.\main.c      ****   /*
 100:.\main.c      ****         double Ch0 = CH0;
 101:.\main.c      ****         double Ch1 = CH1;
 102:.\main.c      ****         
 103:.\main.c      ****         double data = 0;
 104:.\main.c      ****         data = getLux(Ch0,Ch1);
 105:.\main.c      ****         printf("%lf\r\n",data);
 106:.\main.c      ****        //*/
 107:.\main.c      ****         
 108:.\main.c      ****         
 109:.\main.c      ****     }
 110:.\main.c      ****  
ARM GAS  C:\Users\dufma\AppData\Local\Temp\ccmq0pjt.s 			page 8


 111:.\main.c      ****     
 112:.\main.c      ****     /* //accelerometer//
 113:.\main.c      ****     //--------------------------------------------------------------
 114:.\main.c      ****     I2C_Start();
 115:.\main.c      ****   
 116:.\main.c      ****     uint8 X_L_A, X_H_A, Y_L_A, Y_H_A, Z_L_A, Z_H_A;
 117:.\main.c      ****     int16 X_AXIS, Y_AXIS, Z_AXIS;
 118:.\main.c      ****     
 119:.\main.c      ****     I2C_write(ACCEL_MAG_ADDR, ACCEL_CTRL1_REG, 0x37);           // set accelerometer & magnetometer
 120:.\main.c      ****     I2C_write(ACCEL_MAG_ADDR, ACCEL_CTRL7_REG, 0x22);
 121:.\main.c      ****     
 122:.\main.c      ****     
 123:.\main.c      ****     for(;;)
 124:.\main.c      ****     {
 125:.\main.c      ****         //print out accelerometer output
 126:.\main.c      ****         X_L_A = I2C_read(ACCEL_MAG_ADDR, OUT_X_L_A);
 127:.\main.c      ****         X_H_A = I2C_read(ACCEL_MAG_ADDR, OUT_X_H_A);
 128:.\main.c      ****         X_AXIS = convert_raw(X_L_A, X_H_A);
 129:.\main.c      ****         
 130:.\main.c      ****         Y_L_A = I2C_read(ACCEL_MAG_ADDR, OUT_Y_L_A);
 131:.\main.c      ****         Y_H_A = I2C_read(ACCEL_MAG_ADDR, OUT_Y_H_A);
 132:.\main.c      ****         Y_AXIS = convert_raw(Y_L_A, Y_H_A);
 133:.\main.c      ****         
 134:.\main.c      ****         Z_L_A = I2C_read(ACCEL_MAG_ADDR, OUT_Z_L_A);
 135:.\main.c      ****         Z_H_A = I2C_read(ACCEL_MAG_ADDR, OUT_Z_H_A);
 136:.\main.c      ****         Z_AXIS = convert_raw(Z_L_A, Z_H_A);
 137:.\main.c      ****         
 138:.\main.c      ****         printf("ACCEL: %d %d %d %d %d %d \r\n", X_L_A, X_H_A, Y_L_A, Y_H_A, Z_L_A, Z_H_A);
 139:.\main.c      ****         value_convert_accel(X_AXIS, Y_AXIS, Z_AXIS);
 140:.\main.c      ****         printf("\n");
 141:.\main.c      ****         
 142:.\main.c      ****         CyDelay(50);
 143:.\main.c      ****     }
 144:.\main.c      ****     ///---------------------------------------------------------- */
 145:.\main.c      ****     
 146:.\main.c      ****     /*  //nunchuk//
 147:.\main.c      ****     ----------------------------------------------------
 148:.\main.c      ****     nunchuk_start();
 149:.\main.c      ****     nunchuk_init();
 150:.\main.c      ****     
 151:.\main.c      ****     for(;;)
 152:.\main.c      ****     {    
 153:.\main.c      ****         nunchuk_read();
 154:.\main.c      ****     }
 155:.\main.c      ****     //----------------------------------------------------*/
 156:.\main.c      ****     
 157:.\main.c      ****     
 158:.\main.c      ****      /* //ultra//
 159:.\main.c      ****     ----------------------------------------------------
 160:.\main.c      ****     ultra_isr_StartEx(ultra_isr_handler);   // Ultra Sonic Interrupt
 161:.\main.c      ****     Ultra_Start();                          // Ultra Sonic Start function
 162:.\main.c      ****    
 163:.\main.c      ****     for(;;)
 164:.\main.c      ****     {       
 165:.\main.c      ****         CyDelay(100); 
 166:.\main.c      ****         Trig_Write(1);           // Trigger High
 167:.\main.c      ****         CyDelayUs(10);              // 10 micro seconds for trigger input signals
ARM GAS  C:\Users\dufma\AppData\Local\Temp\ccmq0pjt.s 			page 9


 168:.\main.c      ****         Trig_Write(0);           // Trigger Low
 169:.\main.c      ****     }
 170:.\main.c      ****     //----------------------------------------------------*/
 171:.\main.c      ****     
 172:.\main.c      ****     
 173:.\main.c      ****     
 174:.\main.c      ****     /* //reflectance//
 175:.\main.c      ****     ----------------------------------------------------
 176:.\main.c      ****     sensor_isr_StartEx(sensor_isr_handler);
 177:.\main.c      ****     
 178:.\main.c      ****     Refelctance_Start();
 179:.\main.c      **** 
 180:.\main.c      ****     IR_led_Write(1);
 181:.\main.c      ****     for(;;)
 182:.\main.c      ****     {
 183:.\main.c      ****         reflectance_period();      //print out each period of reflectance sensors
 184:.\main.c      ****         reflectance_digital();      //print out 0 or 1 according to results of reflectance period
 185:.\main.c      ****         
 186:.\main.c      ****         CyDelay(500);
 187:.\main.c      ****     }
 188:.\main.c      ****     ///----------------------------------------------------*/
 189:.\main.c      ****    
 190:.\main.c      ****     
 191:.\main.c      ****      /* //motor//
 192:.\main.c      ****     ----------------------------------------------------
 193:.\main.c      ****     motor_Start();              // motor start
 194:.\main.c      **** 
 195:.\main.c      ****     motor_forward(50,2000);     // moving forward
 196:.\main.c      ****     motor_turn(10,50,2000);     // turn
 197:.\main.c      ****     motor_turn(50,10,2000);     // turn
 198:.\main.c      ****     motor_backward(50,2000);    // movinb backward
 199:.\main.c      ****        
 200:.\main.c      ****     motor_Stop();               // motor stop
 201:.\main.c      ****     
 202:.\main.c      ****     for(;;)
 203:.\main.c      ****     {
 204:.\main.c      **** 
 205:.\main.c      ****     }
 206:.\main.c      ****     ///----------------------------------------------------*/
 207:.\main.c      ****     
 208:.\main.c      ****     
 209:.\main.c      ****    /* //gyroscope//
 210:.\main.c      ****      //-----------------------------------------------------
 211:.\main.c      ****     I2C_Start();
 212:.\main.c      ****   
 213:.\main.c      ****     uint8 X_AXIS_L, X_AXIS_H, Y_AXIS_L, Y_AXIS_H, Z_AXIS_L, Z_AXIS_H;
 214:.\main.c      ****     //uint8 X_L_M, X_H_M, Y_L_M, Y_H_M, Z_L_M, Z_H_M;
 215:.\main.c      ****     //uint8 X_L_A, X_H_A, Y_L_A, Y_H_A, Z_L_A, Z_H_A;
 216:.\main.c      ****     int16 X_AXIS, Y_AXIS, Z_AXIS;
 217:.\main.c      ****     
 218:.\main.c      ****     I2C_write(GYRO_ADDR, GYRO_CTRL1_REG, 0x0F);             // set gyroscope into active mode
 219:.\main.c      ****     I2C_write(GYRO_ADDR, GYRO_CTRL4_REG, 0x30);             // set full scale selection to 2000dps 
 220:.\main.c      ****     
 221:.\main.c      ****     for(;;)
 222:.\main.c      ****     {
 223:.\main.c      ****         //print out gyroscope output
 224:.\main.c      ****         X_AXIS_L = I2C_read(GYRO_ADDR, OUT_X_AXIS_L);
ARM GAS  C:\Users\dufma\AppData\Local\Temp\ccmq0pjt.s 			page 10


 225:.\main.c      ****         X_AXIS_H = I2C_read(GYRO_ADDR, OUT_X_AXIS_H);
 226:.\main.c      ****         X_AXIS = convert_raw(X_AXIS_H, X_AXIS_L);
 227:.\main.c      ****         
 228:.\main.c      ****         
 229:.\main.c      ****         Y_AXIS_L = I2C_read(GYRO_ADDR, OUT_Y_AXIS_L);
 230:.\main.c      ****         Y_AXIS_H = I2C_read(GYRO_ADDR, OUT_Y_AXIS_H);
 231:.\main.c      ****         Y_AXIS = convert_raw(Y_AXIS_H, Y_AXIS_L);
 232:.\main.c      ****         
 233:.\main.c      ****         
 234:.\main.c      ****         Z_AXIS_L = I2C_read(GYRO_ADDR, OUT_Z_AXIS_L);
 235:.\main.c      ****         Z_AXIS_H = I2C_read(GYRO_ADDR, OUT_Z_AXIS_H);
 236:.\main.c      ****         Z_AXIS = convert_raw(Z_AXIS_H, Z_AXIS_L);
 237:.\main.c      ****         
 238:.\main.c      ****         
 239:.\main.c      ****         //printf("X_AXIS_L: %d, X_AXIS_H: %d, average: %d \r\n", X_AXIS_L, X_AXIS_H, (X_AXIS_H+X_AX
 240:.\main.c      ****         //printf("Y_AXIS_L: %d, Y_AXIS_H: %d, average: %d \r\n", Y_AXIS_L, Y_AXIS_H, (Y_AXIS_H+Y_AX
 241:.\main.c      ****         //printf("Z_AXIS_L: %d, Z_AXIS_H: %d, average: %d \r\n", Z_AXIS_L, Z_AXIS_H, (Z_AXIS_H+Z_AX
 242:.\main.c      ****         
 243:.\main.c      ****         printf("H L : %d %d %d %d %d %d \r\n", X_AXIS_L, X_AXIS_H, Y_AXIS_L, Y_AXIS_H, Z_AXIS_L, Z_
 244:.\main.c      ****         printf("%d %d %d \r\n", X_AXIS, Y_AXIS, Z_AXIS);
 245:.\main.c      ****         //printf("%d %d %d \r\n", value_convert_gyro(X_AXIS), value_convert_gyro(Y_AXIS), value_con
 246:.\main.c      ****         
 247:.\main.c      ****        CyDelay(50);
 248:.\main.c      ****     }
 249:.\main.c      ****     ///-----------------------------------------------------------------*/ 
 250:.\main.c      ****    
 251:.\main.c      ****   
 252:.\main.c      ****     
 253:.\main.c      ****     /* //magnetometer//
 254:.\main.c      ****      //--------------------------------------------------------------
 255:.\main.c      ****     I2C_Start();
 256:.\main.c      ****    
 257:.\main.c      ****     uint8 X_L_M, X_H_M, Y_L_M, Y_H_M, Z_L_M, Z_H_M;
 258:.\main.c      ****     int16 X_AXIS, Y_AXIS, Z_AXIS;
 259:.\main.c      ****     
 260:.\main.c      ****     I2C_write(GYRO_ADDR, GYRO_CTRL1_REG, 0x0F);             // set gyroscope into active mode
 261:.\main.c      ****     I2C_write(GYRO_ADDR, GYRO_CTRL4_REG, 0x30);             // set full scale selection to 2000dps
 262:.\main.c      ****     I2C_write(ACCEL_MAG_ADDR, ACCEL_CTRL1_REG, 0x37);           // set accelerometer & magnetometer
 263:.\main.c      ****     I2C_write(ACCEL_MAG_ADDR, ACCEL_CTRL7_REG, 0x22);
 264:.\main.c      ****     
 265:.\main.c      ****     
 266:.\main.c      ****     for(;;)
 267:.\main.c      ****     {
 268:.\main.c      ****         X_L_M = I2C_read(ACCEL_MAG_ADDR, OUT_X_L_M);
 269:.\main.c      ****         X_H_M = I2C_read(ACCEL_MAG_ADDR, OUT_X_H_M);
 270:.\main.c      ****         X_AXIS = convert_raw(X_L_M, X_H_M);
 271:.\main.c      ****         
 272:.\main.c      ****         Y_L_M = I2C_read(ACCEL_MAG_ADDR, OUT_Y_L_M);
 273:.\main.c      ****         Y_H_M = I2C_read(ACCEL_MAG_ADDR, OUT_Y_H_M);
 274:.\main.c      ****         Y_AXIS = convert_raw(Y_L_M, Y_H_M);
 275:.\main.c      ****         
 276:.\main.c      ****         Z_L_M = I2C_read(ACCEL_MAG_ADDR, OUT_Z_L_M);
 277:.\main.c      ****         Z_H_M = I2C_read(ACCEL_MAG_ADDR, OUT_Z_H_M);
 278:.\main.c      ****         Z_AXIS = convert_raw(Z_L_M, Z_H_M);
 279:.\main.c      ****         
 280:.\main.c      ****         heading(X_AXIS, Y_AXIS);
 281:.\main.c      ****         printf("MAGNET: %d %d %d %d %d %d \r\n", X_L_M, X_H_M, Y_L_M, Y_H_M, Z_L_M, Z_H_M);
ARM GAS  C:\Users\dufma\AppData\Local\Temp\ccmq0pjt.s 			page 11


 282:.\main.c      ****         printf("%d %d %d \r\n", X_AXIS,Y_AXIS, Z_AXIS);
 283:.\main.c      ****         CyDelay(50);
 284:.\main.c      ****           
 285:.\main.c      ****     }
 286:.\main.c      ****     ///----------------------------------------------------------*/
 287:.\main.c      **** }
 288:.\main.c      **** 
 289:.\main.c      **** uint16 convert_raw(uint8 L, uint8 H)            // concatenation
 290:.\main.c      **** {
 290              		.loc 1 290 0
 291              		.cfi_startproc
 292              		@ args = 0, pretend = 0, frame = 0
 293              		@ frame_needed = 0, uses_anonymous_args = 0
 294              		@ link register save eliminated.
 295              	.LVL38:
 291:.\main.c      ****     uint16 raw;
 292:.\main.c      ****     raw = (int16)(L | H << 8);
 293:.\main.c      ****     
 294:.\main.c      ****     return raw;
 295:.\main.c      **** }
 296              		.loc 1 295 0
 297 0000 40EA0120 		orr	r0, r0, r1, lsl #8
 298              	.LVL39:
 299 0004 7047     		bx	lr
 300              		.cfi_endproc
 301              	.LFE65:
 302              		.size	convert_raw, .-convert_raw
 303              		.global	__aeabi_ui2f
 304              		.global	__aeabi_i2f
 305              		.global	__aeabi_fdiv
 306              		.global	__aeabi_f2d
 307 0006 00BF     		.section	.text.main,"ax",%progbits
 308              		.align	2
 309              		.global	main
 310              		.thumb
 311              		.thumb_func
 312              		.type	main, %function
 313              	main:
 314              	.LFB64:
  60:.\main.c      ****     CyGlobalIntEnable; 
 315              		.loc 1 60 0
 316              		.cfi_startproc
 317              		@ args = 0, pretend = 0, frame = 0
 318              		@ frame_needed = 0, uses_anonymous_args = 0
 319 0000 F8B5     		push	{r3, r4, r5, r6, r7, lr}
 320              		.cfi_def_cfa_offset 24
 321              		.cfi_offset 3, -24
 322              		.cfi_offset 4, -20
 323              		.cfi_offset 5, -16
 324              		.cfi_offset 6, -12
 325              		.cfi_offset 7, -8
 326              		.cfi_offset 14, -4
  61:.\main.c      ****     UART_Start();
 327              		.loc 1 61 0
 328              	@ 61 ".\main.c" 1
 329 0002 62B6     		CPSIE   i
 330              	@ 0 "" 2
ARM GAS  C:\Users\dufma\AppData\Local\Temp\ccmq0pjt.s 			page 12


  62:.\main.c      ****     printf("Start\r\n");
 331              		.loc 1 62 0
 332              		.thumb
 333 0004 FFF7FEFF 		bl	UART_Start
 334              	.LVL40:
  63:.\main.c      ****    
 335              		.loc 1 63 0
 336 0008 2E48     		ldr	r0, .L33
 337 000a FFF7FEFF 		bl	puts
 338              	.LVL41:
  65:.\main.c      ****     
 339              		.loc 1 65 0
 340 000e FFF7FEFF 		bl	I2C_Start
 341              	.LVL42:
  69:.\main.c      ****     
 342              		.loc 1 69 0
 343 0012 2920     		movs	r0, #41
 344 0014 8021     		movs	r1, #128
 345 0016 0022     		movs	r2, #0
 346 0018 FFF7FEFF 		bl	I2C_write
 347              	.LVL43:
  71:.\main.c      ****     printf("%x ",value);
 348              		.loc 1 71 0
 349 001c 2920     		movs	r0, #41
 350 001e 8021     		movs	r1, #128
 351 0020 FFF7FEFF 		bl	I2C_read
 352              	.LVL44:
 353 0024 0146     		mov	r1, r0
 354              	.LVL45:
  72:.\main.c      ****     
 355              		.loc 1 72 0
 356 0026 2848     		ldr	r0, .L33+4
 357 0028 FFF7FEFF 		bl	printf
 358              	.LVL46:
  74:.\main.c      ****     value = I2C_read(0x29,0x80);
 359              		.loc 1 74 0
 360 002c 2920     		movs	r0, #41
 361 002e 8021     		movs	r1, #128
 362 0030 0322     		movs	r2, #3
 363 0032 FFF7FEFF 		bl	I2C_write
 364              	.LVL47:
  75:.\main.c      ****     printf("%x\r\n",value);
 365              		.loc 1 75 0
 366 0036 2920     		movs	r0, #41
 367 0038 8021     		movs	r1, #128
 368 003a FFF7FEFF 		bl	I2C_read
 369              	.LVL48:
 370 003e 0146     		mov	r1, r0
 371              	.LVL49:
  76:.\main.c      ****         
 372              		.loc 1 76 0
 373 0040 224C     		ldr	r4, .L33+8
 374 0042 2046     		mov	r0, r4
 375 0044 FFF7FEFF 		bl	printf
 376              	.LVL50:
  78:.\main.c      ****     printf("%x\r\n",value);
 377              		.loc 1 78 0
ARM GAS  C:\Users\dufma\AppData\Local\Temp\ccmq0pjt.s 			page 13


 378 0048 2920     		movs	r0, #41
 379 004a 8121     		movs	r1, #129
 380 004c FFF7FEFF 		bl	I2C_read
 381              	.LVL51:
 382 0050 0146     		mov	r1, r0
 383              	.LVL52:
  79:.\main.c      ****     for(;;)
 384              		.loc 1 79 0
 385 0052 2046     		mov	r0, r4
 386 0054 FFF7FEFF 		bl	printf
 387              	.LVL53:
 388              	.L31:
 389              	.LBB2:
  84:.\main.c      ****         Data0High = I2C_read(0x29,CH0_H);
 390              		.loc 1 84 0 discriminator 1
 391 0058 2920     		movs	r0, #41
 392 005a 8C21     		movs	r1, #140
 393 005c FFF7FEFF 		bl	I2C_read
 394              	.LVL54:
 395 0060 0746     		mov	r7, r0
 396              	.LVL55:
  85:.\main.c      ****         Data1Low = I2C_read(0x29,CH1_L);
 397              		.loc 1 85 0 discriminator 1
 398 0062 2920     		movs	r0, #41
 399 0064 8D21     		movs	r1, #141
 400 0066 FFF7FEFF 		bl	I2C_read
 401              	.LVL56:
 402 006a 0446     		mov	r4, r0
 403              	.LVL57:
  86:.\main.c      ****         Data1High = I2C_read(0x29,CH1_H);
 404              		.loc 1 86 0 discriminator 1
 405 006c 2920     		movs	r0, #41
 406 006e 8E21     		movs	r1, #142
 407 0070 FFF7FEFF 		bl	I2C_read
 408              	.LVL58:
 409 0074 0646     		mov	r6, r0
 410              	.LVL59:
  87:.\main.c      ****         
 411              		.loc 1 87 0 discriminator 1
 412 0076 2920     		movs	r0, #41
 413 0078 8F21     		movs	r1, #143
 414 007a FFF7FEFF 		bl	I2C_read
 415              	.LVL60:
 416 007e 0546     		mov	r5, r0
 417              	.LVL61:
  90:.\main.c      ****         CH1 = convert_raw(Data1Low,Data1High);
 418              		.loc 1 90 0 discriminator 1
 419 0080 3846     		mov	r0, r7
 420 0082 2146     		mov	r1, r4
 421 0084 FFF7FEFF 		bl	convert_raw
 422              	.LVL62:
 423 0088 C4B2     		uxtb	r4, r0
 424              	.LVL63:
  91:.\main.c      **** 
 425              		.loc 1 91 0 discriminator 1
 426 008a 3046     		mov	r0, r6
 427 008c 2946     		mov	r1, r5
ARM GAS  C:\Users\dufma\AppData\Local\Temp\ccmq0pjt.s 			page 14


 428 008e FFF7FEFF 		bl	convert_raw
 429              	.LVL64:
 430 0092 C5B2     		uxtb	r5, r0
 431              	.LVL65:
  94:.\main.c      ****            printf("%f\r\n",(float)CH1/CH0);
 432              		.loc 1 94 0 discriminator 1
 433 0094 0E48     		ldr	r0, .L33+12
 434 0096 2146     		mov	r1, r4
 435 0098 2A46     		mov	r2, r5
 436 009a FFF7FEFF 		bl	printf
 437              	.LVL66:
  95:.\main.c      ****         
 438              		.loc 1 95 0 discriminator 1
 439 009e 2846     		mov	r0, r5
 440 00a0 FFF7FEFF 		bl	__aeabi_ui2f
 441              	.LVL67:
 442 00a4 0546     		mov	r5, r0
 443              	.LVL68:
 444 00a6 2046     		mov	r0, r4
 445 00a8 FFF7FEFF 		bl	__aeabi_i2f
 446              	.LVL69:
 447 00ac 0146     		mov	r1, r0
 448 00ae 2846     		mov	r0, r5
 449 00b0 FFF7FEFF 		bl	__aeabi_fdiv
 450              	.LVL70:
 451 00b4 FFF7FEFF 		bl	__aeabi_f2d
 452              	.LVL71:
 453 00b8 0246     		mov	r2, r0
 454 00ba 0B46     		mov	r3, r1
 455 00bc 0548     		ldr	r0, .L33+16
 456 00be FFF7FEFF 		bl	printf
 457              	.LVL72:
 458              	.LBE2:
 109:.\main.c      ****  
 459              		.loc 1 109 0 discriminator 1
 460 00c2 C9E7     		b	.L31
 461              	.L34:
 462              		.align	2
 463              	.L33:
 464 00c4 00000000 		.word	.LC0
 465 00c8 08000000 		.word	.LC1
 466 00cc 0C000000 		.word	.LC2
 467 00d0 14000000 		.word	.LC3
 468 00d4 1C000000 		.word	.LC4
 469              		.cfi_endproc
 470              	.LFE64:
 471              		.size	main, .-main
 472              		.section	.text._write,"ax",%progbits
 473              		.align	2
 474              		.global	_write
 475              		.thumb
 476              		.thumb_func
 477              		.type	_write, %function
 478              	_write:
 479              	.LFB66:
 296:.\main.c      **** 
 297:.\main.c      **** 
ARM GAS  C:\Users\dufma\AppData\Local\Temp\ccmq0pjt.s 			page 15


 298:.\main.c      **** #if 0
 299:.\main.c      **** int rread(void)
 300:.\main.c      **** {
 301:.\main.c      ****     SC0_SetDriveMode(PIN_DM_STRONG);
 302:.\main.c      ****     SC0_Write(1);
 303:.\main.c      ****     CyDelayUs(10);
 304:.\main.c      ****     SC0_SetDriveMode(PIN_DM_DIG_HIZ);
 305:.\main.c      ****     Timer_1_Start();
 306:.\main.c      ****     uint16_t start = Timer_1_ReadCounter();
 307:.\main.c      ****     uint16_t end = 0;
 308:.\main.c      ****     while(!(Timer_1_ReadStatusRegister() & Timer_1_STATUS_TC)) {
 309:.\main.c      ****         if(SC0_Read() == 0 && end == 0) {
 310:.\main.c      ****             end = Timer_1_ReadCounter();
 311:.\main.c      ****         }
 312:.\main.c      ****     }
 313:.\main.c      ****     Timer_1_Stop();
 314:.\main.c      ****     
 315:.\main.c      ****     return (start - end);
 316:.\main.c      **** }
 317:.\main.c      **** #endif
 318:.\main.c      **** 
 319:.\main.c      **** int _write(int file, char *ptr, int len)
 320:.\main.c      **** {
 480              		.loc 1 320 0
 481              		.cfi_startproc
 482              		@ args = 0, pretend = 0, frame = 0
 483              		@ frame_needed = 0, uses_anonymous_args = 0
 484              	.LVL73:
 485 0000 70B5     		push	{r4, r5, r6, lr}
 486              		.cfi_def_cfa_offset 16
 487              		.cfi_offset 4, -16
 488              		.cfi_offset 5, -12
 489              		.cfi_offset 6, -8
 490              		.cfi_offset 14, -4
 491 0002 1646     		mov	r6, r2
 492              	.LVL74:
 321:.\main.c      ****     (void) file;
 322:.\main.c      **** 	int n;
 323:.\main.c      **** 	for(n = 0; n < len; n++) {
 493              		.loc 1 323 0
 494 0004 0024     		movs	r4, #0
 495 0006 05E0     		b	.L36
 496              	.LVL75:
 497              	.L37:
 324:.\main.c      **** 		UART_PutChar(*ptr++);
 498              		.loc 1 324 0 discriminator 3
 499 0008 4D1C     		adds	r5, r1, #1
 500              	.LVL76:
 501 000a 0878     		ldrb	r0, [r1]	@ zero_extendqisi2
 502 000c FFF7FEFF 		bl	UART_PutChar
 503              	.LVL77:
 323:.\main.c      **** 		UART_PutChar(*ptr++);
 504              		.loc 1 323 0 discriminator 3
 505 0010 0134     		adds	r4, r4, #1
 506              	.LVL78:
 507              		.loc 1 324 0 discriminator 3
 508 0012 2946     		mov	r1, r5
ARM GAS  C:\Users\dufma\AppData\Local\Temp\ccmq0pjt.s 			page 16


 509              	.LVL79:
 510              	.L36:
 323:.\main.c      **** 		UART_PutChar(*ptr++);
 511              		.loc 1 323 0 discriminator 1
 512 0014 B442     		cmp	r4, r6
 513 0016 F7DB     		blt	.L37
 325:.\main.c      **** 	}
 326:.\main.c      **** 	return len;
 327:.\main.c      **** }
 514              		.loc 1 327 0
 515 0018 3046     		mov	r0, r6
 516 001a 70BD     		pop	{r4, r5, r6, pc}
 517              		.cfi_endproc
 518              	.LFE66:
 519              		.size	_write, .-_write
 520              		.comm	digital_sensor_value,8,4
 521              		.comm	sensors,8,4
 522              		.section	.rodata.str1.4,"aMS",%progbits,1
 523              		.align	2
 524              	.LC0:
 525 0000 53746172 		.ascii	"Start\015\000"
 525      740D00
 526 0007 00       		.space	1
 527              	.LC1:
 528 0008 25782000 		.ascii	"%x \000"
 529              	.LC2:
 530 000c 25780D0A 		.ascii	"%x\015\012\000"
 530      00
 531 0011 000000   		.space	3
 532              	.LC3:
 533 0014 25642025 		.ascii	"%d %d\015\012\000"
 533      640D0A00 
 534              	.LC4:
 535 001c 25660D0A 		.ascii	"%f\015\012\000"
 535      00
 536 0021 000000   		.text
 537              	.Letext0:
 538              		.file 2 "c:\\program files (x86)\\cypress\\psoc creator\\3.3\\psoc creator\\import\\gnu\\arm\\4.9.
 539              		.file 3 "c:\\program files (x86)\\cypress\\psoc creator\\3.3\\psoc creator\\import\\gnu\\arm\\4.9.
 540              		.file 4 "Generated_Source\\PSoC5/cytypes.h"
 541              		.file 5 ".\\Reflectance.h"
 542              		.file 6 "Generated_Source\\PSoC5/core_cm3.h"
 543              		.file 7 ".\\I2C_made.h"
 544              		.file 8 "c:\\program files (x86)\\cypress\\psoc creator\\3.3\\psoc creator\\import\\gnu\\arm\\4.9.
 545              		.file 9 "Generated_Source\\PSoC5/UART.h"
 546              		.file 10 "Generated_Source\\PSoC5/I2C.h"
 547              		.file 11 "c:\\program files (x86)\\cypress\\psoc creator\\3.3\\psoc creator\\import\\gnu\\arm\\4.9
 548              		.file 12 "<built-in>"