ARM GAS  C:\Users\dufma\AppData\Local\Temp\ccapBcpf.s 			page 1


   1              		.syntax unified
   2              		.cpu cortex-m3
   3              		.fpu softvfp
   4              		.eabi_attribute 20, 1
   5              		.eabi_attribute 21, 1
   6              		.eabi_attribute 23, 3
   7              		.eabi_attribute 24, 1
   8              		.eabi_attribute 25, 1
   9              		.eabi_attribute 26, 1
  10              		.eabi_attribute 30, 1
  11              		.eabi_attribute 34, 1
  12              		.eabi_attribute 18, 4
  13              		.thumb
  14              		.file	"main.c"
  15              		.text
  16              	.Ltext0:
  17              		.cfi_sections	.debug_frame
  18              		.global	__aeabi_ui2f
  19              		.global	__aeabi_fmul
  20              		.global	__aeabi_f2d
  21              		.global	__aeabi_dmul
  22              		.global	__aeabi_dadd
  23              		.global	__aeabi_d2f
  24              		.global	__aeabi_f2uiz
  25              		.section	.text.value_convert_gyro,"ax",%progbits
  26              		.align	2
  27              		.global	value_convert_gyro
  28              		.thumb
  29              		.thumb_func
  30              		.type	value_convert_gyro, %function
  31              	value_convert_gyro:
  32              	.LFB64:
  33              		.file 1 ".\\main.c"
   1:.\main.c      **** /* ========================================
   2:.\main.c      ****  *
   3:.\main.c      ****  * Copyright YOUR COMPANY, THE YEAR
   4:.\main.c      ****  * All Rights Reserved
   5:.\main.c      ****  * UNPUBLISHED, LICENSED SOFTWARE.
   6:.\main.c      ****  *
   7:.\main.c      ****  * CONFIDENTIAL AND PROPRIETARY INFORMATION
   8:.\main.c      ****  * WHICH IS THE PROPERTY OF your company.
   9:.\main.c      ****  *
  10:.\main.c      ****  * ========================================
  11:.\main.c      **** */
  12:.\main.c      **** #include <project.h>
  13:.\main.c      **** #include <stdio.h>
  14:.\main.c      **** #include "Motor.h"
  15:.\main.c      **** #include "Ultra.h"
  16:.\main.c      **** #include "nunchuk.h"
  17:.\main.c      **** #include "Reflectance.h"
  18:.\main.c      **** #include "I2C_made.h"
  19:.\main.c      **** #include "gyro.h"
  20:.\main.c      **** #include "accel_magnet.h"
  21:.\main.c      **** 
  22:.\main.c      **** int rread(void);
  23:.\main.c      **** 
  24:.\main.c      **** int main()
ARM GAS  C:\Users\dufma\AppData\Local\Temp\ccapBcpf.s 			page 2


  25:.\main.c      **** {
  26:.\main.c      ****     CyGlobalIntEnable; 
  27:.\main.c      ****     UART_Start();
  28:.\main.c      ****     printf("Start\r\n");
  29:.\main.c      ****     
  30:.\main.c      ****     
  31:.\main.c      ****     /* //gyroscope//
  32:.\main.c      ****      //-----------------------------------------------------*/
  33:.\main.c      ****     I2C_Start();
  34:.\main.c      ****   
  35:.\main.c      ****     uint8 X_AXIS_L, X_AXIS_H, Y_AXIS_L, Y_AXIS_H, Z_AXIS_L, Z_AXIS_H;
  36:.\main.c      ****     int16 X_AXIS, Y_AXIS, Z_AXIS;
  37:.\main.c      ****     
  38:.\main.c      ****     I2C_write(GYRO_ADDR, GYRO_CTRL1_REG, 0x0F);             // set gyroscope into active mode
  39:.\main.c      ****     I2C_write(GYRO_ADDR, GYRO_CTRL4_REG, 0x30);             // set full scale selection to 2000dps 
  40:.\main.c      ****     
  41:.\main.c      ****     for(;;)
  42:.\main.c      ****     {
  43:.\main.c      ****         GyroTimer_Start();
  44:.\main.c      ****         //print out gyroscope output
  45:.\main.c      ****         X_AXIS_L = I2C_read(GYRO_ADDR, OUT_X_AXIS_L);
  46:.\main.c      ****         X_AXIS_H = I2C_read(GYRO_ADDR, OUT_X_AXIS_H);
  47:.\main.c      ****         Y_AXIS_L = I2C_read(GYRO_ADDR, OUT_Y_AXIS_L);
  48:.\main.c      ****         Y_AXIS_H = I2C_read(GYRO_ADDR, OUT_Y_AXIS_H);
  49:.\main.c      ****         Z_AXIS_L = I2C_read(GYRO_ADDR, OUT_Z_AXIS_L);
  50:.\main.c      ****         Z_AXIS_H = I2C_read(GYRO_ADDR, OUT_Z_AXIS_H);
  51:.\main.c      ****      
  52:.\main.c      ****         printf("%d\r\n",GyroTimer_ReadCounter());
  53:.\main.c      ****         
  54:.\main.c      ****         X_AXIS = convert_raw(X_AXIS_H, X_AXIS_L);
  55:.\main.c      ****         Y_AXIS = convert_raw(Y_AXIS_H, Y_AXIS_L);
  56:.\main.c      ****         Z_AXIS = convert_raw(Z_AXIS_H, Z_AXIS_L);
  57:.\main.c      ****         
  58:.\main.c      ****         
  59:.\main.c      ****         //printf("X_AXIS_L: %d, X_AXIS_H: %d, average: %d \r\n", X_AXIS_L, X_AXIS_H, (X_AXIS_H+X_AX
  60:.\main.c      ****         //printf("Y_AXIS_L: %d, Y_AXIS_H: %d, average: %d \r\n", Y_AXIS_L, Y_AXIS_H, (Y_AXIS_H+Y_AX
  61:.\main.c      ****         //printf("Z_AXIS_L: %d, Z_AXIS_H: %d, average: %d \r\n", Z_AXIS_L, Z_AXIS_H, (Z_AXIS_H+Z_AX
  62:.\main.c      ****         
  63:.\main.c      ****         //printf("H L : %d %d %d %d %d %d \r\n", X_AXIS_L, X_AXIS_H, Y_AXIS_L, Y_AXIS_H, Z_AXIS_L, 
  64:.\main.c      ****         //printf("%d %d %d \r\n", X_AXIS, Y_AXIS, Z_AXIS);
  65:.\main.c      ****         printf("%d %d %d \r\n", value_convert_gyro(X_AXIS), value_convert_gyro(Y_AXIS), value_conve
  66:.\main.c      ****         
  67:.\main.c      ****         printf("%d\r\n\n",GyroTimer_ReadCounter());
  68:.\main.c      ****         CyDelay(20);
  69:.\main.c      ****          GyroTimer_Stop();
  70:.\main.c      ****         GyroTimer_WriteCounter(0xFFFF);
  71:.\main.c      ****     }
  72:.\main.c      ****     ///-----------------------------------------------------------------*/ 
  73:.\main.c      ****    
  74:.\main.c      ****     
  75:.\main.c      ****     /* //accelerometer//
  76:.\main.c      ****     //--------------------------------------------------------------
  77:.\main.c      ****     I2C_Start();
  78:.\main.c      ****   
  79:.\main.c      ****     uint8 X_L_A, X_H_A, Y_L_A, Y_H_A, Z_L_A, Z_H_A;
  80:.\main.c      ****     int16 X_AXIS, Y_AXIS, Z_AXIS;
  81:.\main.c      ****     
ARM GAS  C:\Users\dufma\AppData\Local\Temp\ccapBcpf.s 			page 3


  82:.\main.c      ****     I2C_write(ACCEL_MAG_ADDR, ACCEL_CTRL1_REG, 0x37);           // set accelerometer & magnetometer
  83:.\main.c      ****     I2C_write(ACCEL_MAG_ADDR, ACCEL_CTRL7_REG, 0x22);
  84:.\main.c      ****     
  85:.\main.c      ****     
  86:.\main.c      ****     for(;;)
  87:.\main.c      ****     {
  88:.\main.c      ****         //print out accelerometer output
  89:.\main.c      ****         X_L_A = I2C_read(ACCEL_MAG_ADDR, OUT_X_L_A);
  90:.\main.c      ****         X_H_A = I2C_read(ACCEL_MAG_ADDR, OUT_X_H_A);
  91:.\main.c      ****         X_AXIS = convert_raw(X_L_A, X_H_A);
  92:.\main.c      ****         
  93:.\main.c      ****         Y_L_A = I2C_read(ACCEL_MAG_ADDR, OUT_Y_L_A);
  94:.\main.c      ****         Y_H_A = I2C_read(ACCEL_MAG_ADDR, OUT_Y_H_A);
  95:.\main.c      ****         Y_AXIS = convert_raw(Y_L_A, Y_H_A);
  96:.\main.c      ****         
  97:.\main.c      ****         Z_L_A = I2C_read(ACCEL_MAG_ADDR, OUT_Z_L_A);
  98:.\main.c      ****         Z_H_A = I2C_read(ACCEL_MAG_ADDR, OUT_Z_H_A);
  99:.\main.c      ****         Z_AXIS = convert_raw(Z_L_A, Z_H_A);
 100:.\main.c      ****         
 101:.\main.c      ****         printf("ACCEL: %d %d %d %d %d %d \r\n", X_L_A, X_H_A, Y_L_A, Y_H_A, Z_L_A, Z_H_A);
 102:.\main.c      ****         value_convert_accel(X_AXIS, Y_AXIS, Z_AXIS);
 103:.\main.c      ****         printf("\n");
 104:.\main.c      ****         
 105:.\main.c      ****         CyDelay(50);
 106:.\main.c      ****     }
 107:.\main.c      ****     ///---------------------------------------------------------- */
 108:.\main.c      ****     
 109:.\main.c      ****     /* //reflectance//
 110:.\main.c      ****     ----------------------------------------------------
 111:.\main.c      ****     sensor_isr_StartEx(sensor_isr_handler);
 112:.\main.c      ****     
 113:.\main.c      ****     Refelctance_Start();
 114:.\main.c      **** 
 115:.\main.c      ****     IR_led_Write(1);
 116:.\main.c      ****     for(;;)
 117:.\main.c      ****     {
 118:.\main.c      ****         reflectance_period();      //print out each period of reflectance sensors
 119:.\main.c      ****         reflectance_digital();      //print out 0 or 1 according to results of reflectance period
 120:.\main.c      ****         
 121:.\main.c      ****         CyDelay(500);
 122:.\main.c      ****     }
 123:.\main.c      ****     ----------------------------------------------------*/
 124:.\main.c      ****     
 125:.\main.c      ****      /* //ultra//
 126:.\main.c      ****     ----------------------------------------------------
 127:.\main.c      ****     ultra_isr_StartEx(ultra_isr_handler);   // Ultra Sonic Interrupt
 128:.\main.c      ****     Ultra_Start();                          // Ultra Sonic Start function
 129:.\main.c      ****    
 130:.\main.c      ****     for(;;)
 131:.\main.c      ****     {       
 132:.\main.c      ****         CyDelay(100); 
 133:.\main.c      ****         Trig_Write(1);           // Trigger High
 134:.\main.c      ****         CyDelayUs(10);              // 10 micro seconds for trigger input signals
 135:.\main.c      ****         Trig_Write(0);           // Trigger Low
 136:.\main.c      ****     }
 137:.\main.c      ****     ----------------------------------------------------*/
 138:.\main.c      ****     
ARM GAS  C:\Users\dufma\AppData\Local\Temp\ccapBcpf.s 			page 4


 139:.\main.c      ****      /* //motor//
 140:.\main.c      ****     ----------------------------------------------------
 141:.\main.c      ****     motor_Start();              // motor start
 142:.\main.c      **** 
 143:.\main.c      ****     motor_forward(50,2000);     // moving forward
 144:.\main.c      ****     motor_turn(20,50,2000);     // turn
 145:.\main.c      ****     motor_turn(50,20,2000);     // turn
 146:.\main.c      ****     motor_backward(50,2000);    // movinb backward
 147:.\main.c      ****        
 148:.\main.c      ****     motor_Stop();               // motor stop
 149:.\main.c      ****     
 150:.\main.c      ****     for(;;)
 151:.\main.c      ****     {
 152:.\main.c      **** 
 153:.\main.c      ****     }
 154:.\main.c      ****     ----------------------------------------------------*/
 155:.\main.c      ****      
 156:.\main.c      ****     /*  //nunchuk//
 157:.\main.c      ****     ----------------------------------------------------
 158:.\main.c      ****     nunchuk_start();
 159:.\main.c      ****     nunchuk_init();
 160:.\main.c      ****     
 161:.\main.c      ****     for(;;)
 162:.\main.c      ****     {    
 163:.\main.c      ****         nunchuk_read();
 164:.\main.c      ****     }
 165:.\main.c      ****     ----------------------------------------------------*/
 166:.\main.c      ****     
 167:.\main.c      ****     /* //magnetometer//
 168:.\main.c      ****      //--------------------------------------------------------------
 169:.\main.c      ****     I2C_Start();
 170:.\main.c      ****    
 171:.\main.c      ****     uint8 X_L_M, X_H_M, Y_L_M, Y_H_M, Z_L_M, Z_H_M;
 172:.\main.c      ****     int16 X_AXIS, Y_AXIS, Z_AXIS;
 173:.\main.c      ****     
 174:.\main.c      ****     I2C_write(GYRO_ADDR, GYRO_CTRL1_REG, 0x0F);             // set gyroscope into active mode
 175:.\main.c      ****     I2C_write(GYRO_ADDR, GYRO_CTRL4_REG, 0x30);             // set full scale selection to 2000dps
 176:.\main.c      ****     I2C_write(ACCEL_MAG_ADDR, ACCEL_CTRL1_REG, 0x37);           // set accelerometer & magnetometer
 177:.\main.c      ****     I2C_write(ACCEL_MAG_ADDR, ACCEL_CTRL7_REG, 0x22);
 178:.\main.c      ****     
 179:.\main.c      ****     
 180:.\main.c      ****     for(;;)
 181:.\main.c      ****     {
 182:.\main.c      ****         X_L_M = I2C_read(ACCEL_MAG_ADDR, OUT_X_L_M);
 183:.\main.c      ****         X_H_M = I2C_read(ACCEL_MAG_ADDR, OUT_X_H_M);
 184:.\main.c      ****         X_AXIS = convert_raw(X_L_M, X_H_M);
 185:.\main.c      ****         
 186:.\main.c      ****         Y_L_M = I2C_read(ACCEL_MAG_ADDR, OUT_Y_L_M);
 187:.\main.c      ****         Y_H_M = I2C_read(ACCEL_MAG_ADDR, OUT_Y_H_M);
 188:.\main.c      ****         Y_AXIS = convert_raw(Y_L_M, Y_H_M);
 189:.\main.c      ****         
 190:.\main.c      ****         Z_L_M = I2C_read(ACCEL_MAG_ADDR, OUT_Z_L_M);
 191:.\main.c      ****         Z_H_M = I2C_read(ACCEL_MAG_ADDR, OUT_Z_H_M);
 192:.\main.c      ****         Z_AXIS = convert_raw(Z_L_M, Z_H_M);
 193:.\main.c      ****         
 194:.\main.c      ****         heading(X_AXIS, Y_AXIS);
 195:.\main.c      ****         printf("MAGNET: %d %d %d %d %d %d \r\n", X_L_M, X_H_M, Y_L_M, Y_H_M, Z_L_M, Z_H_M);
ARM GAS  C:\Users\dufma\AppData\Local\Temp\ccapBcpf.s 			page 5


 196:.\main.c      ****         printf("%d %d %d \r\n", X_AXIS,Y_AXIS, Z_AXIS);
 197:.\main.c      ****         CyDelay(50);
 198:.\main.c      ****           
 199:.\main.c      ****     }
 200:.\main.c      ****     ----------------------------------------------------------*/
 201:.\main.c      **** }
 202:.\main.c      **** 
 203:.\main.c      **** uint16 value_convert_gyro(uint16 raw)            // ****THING TO DO : converting to angle!!!****
 204:.\main.c      **** {
  34              		.loc 1 204 0
  35              		.cfi_startproc
  36              		@ args = 0, pretend = 0, frame = 0
  37              		@ frame_needed = 0, uses_anonymous_args = 0
  38              	.LVL0:
  39 0000 38B5     		push	{r3, r4, r5, lr}
  40              		.cfi_def_cfa_offset 16
  41              		.cfi_offset 3, -16
  42              		.cfi_offset 4, -12
  43              		.cfi_offset 5, -8
  44              		.cfi_offset 14, -4
  45              	.LVL1:
 205:.\main.c      ****     float rate_result;
 206:.\main.c      ****     float angle_result;
 207:.\main.c      ****     float G_GAIN = 0.07;             //FS = 245 dps
 208:.\main.c      ****     
 209:.\main.c      ****   
 210:.\main.c      ****     rate_result = (float)raw * G_GAIN;          // degrees per second for Gyroscope
  46              		.loc 1 210 0
  47 0002 FFF7FEFF 		bl	__aeabi_ui2f
  48              	.LVL2:
  49 0006 0E49     		ldr	r1, .L3+8
  50 0008 FFF7FEFF 		bl	__aeabi_fmul
  51              	.LVL3:
 211:.\main.c      ****     angle_result += (float)rate_result * 0.02;
  52              		.loc 1 211 0
  53 000c FFF7FEFF 		bl	__aeabi_f2d
  54              	.LVL4:
  55 0010 09A3     		adr	r3, .L3
  56 0012 D3E90023 		ldrd	r2, [r3]
  57 0016 FFF7FEFF 		bl	__aeabi_dmul
  58              	.LVL5:
  59 001a 0446     		mov	r4, r0
  60 001c 0D46     		mov	r5, r1
  61 001e 0020     		movs	r0, #0
  62 0020 FFF7FEFF 		bl	__aeabi_f2d
  63              	.LVL6:
  64 0024 2246     		mov	r2, r4
  65 0026 2B46     		mov	r3, r5
  66 0028 FFF7FEFF 		bl	__aeabi_dadd
  67              	.LVL7:
  68 002c FFF7FEFF 		bl	__aeabi_d2f
  69              	.LVL8:
 212:.\main.c      ****     //angle_result = (float)rate_result*(0.017453293F);
 213:.\main.c      ****     //return rate_result;
 214:.\main.c      ****     return angle_result;
  70              		.loc 1 214 0
  71 0030 FFF7FEFF 		bl	__aeabi_f2uiz
ARM GAS  C:\Users\dufma\AppData\Local\Temp\ccapBcpf.s 			page 6


  72              	.LVL9:
 215:.\main.c      **** }
  73              		.loc 1 215 0
  74 0034 80B2     		uxth	r0, r0
  75 0036 38BD     		pop	{r3, r4, r5, pc}
  76              	.L4:
  77              		.align	3
  78              	.L3:
  79 0038 7B14AE47 		.word	1202590843
  80 003c E17A943F 		.word	1066695393
  81 0040 295C8F3D 		.word	1032805417
  82              		.cfi_endproc
  83              	.LFE64:
  84              		.size	value_convert_gyro, .-value_convert_gyro
  85 0044 AFF30080 		.section	.text.convert_raw,"ax",%progbits
  86              		.align	2
  87              		.global	convert_raw
  88              		.thumb
  89              		.thumb_func
  90              		.type	convert_raw, %function
  91              	convert_raw:
  92              	.LFB65:
 216:.\main.c      **** 
 217:.\main.c      **** uint16 convert_raw(uint8 L, uint8 H)            // concatenation
 218:.\main.c      **** {
  93              		.loc 1 218 0
  94              		.cfi_startproc
  95              		@ args = 0, pretend = 0, frame = 0
  96              		@ frame_needed = 0, uses_anonymous_args = 0
  97              		@ link register save eliminated.
  98              	.LVL10:
 219:.\main.c      ****     uint16 raw;
 220:.\main.c      ****     raw = (int16)(L | H << 8);
 221:.\main.c      ****     
 222:.\main.c      ****     return raw;
 223:.\main.c      **** }
  99              		.loc 1 223 0
 100 0000 40EA0120 		orr	r0, r0, r1, lsl #8
 101              	.LVL11:
 102 0004 7047     		bx	lr
 103              		.cfi_endproc
 104              	.LFE65:
 105              		.size	convert_raw, .-convert_raw
 106 0006 00BF     		.section	.text.main,"ax",%progbits
 107              		.align	2
 108              		.global	main
 109              		.thumb
 110              		.thumb_func
 111              		.type	main, %function
 112              	main:
 113              	.LFB63:
  25:.\main.c      ****     CyGlobalIntEnable; 
 114              		.loc 1 25 0
 115              		.cfi_startproc
 116              		@ args = 0, pretend = 0, frame = 0
 117              		@ frame_needed = 0, uses_anonymous_args = 0
 118 0000 2DE9F843 		push	{r3, r4, r5, r6, r7, r8, r9, lr}
ARM GAS  C:\Users\dufma\AppData\Local\Temp\ccapBcpf.s 			page 7


 119              		.cfi_def_cfa_offset 32
 120              		.cfi_offset 3, -32
 121              		.cfi_offset 4, -28
 122              		.cfi_offset 5, -24
 123              		.cfi_offset 6, -20
 124              		.cfi_offset 7, -16
 125              		.cfi_offset 8, -12
 126              		.cfi_offset 9, -8
 127              		.cfi_offset 14, -4
  26:.\main.c      ****     UART_Start();
 128              		.loc 1 26 0
 129              	@ 26 ".\main.c" 1
 130 0004 62B6     		CPSIE   i
 131              	@ 0 "" 2
  27:.\main.c      ****     printf("Start\r\n");
 132              		.loc 1 27 0
 133              		.thumb
 134 0006 FFF7FEFF 		bl	UART_Start
 135              	.LVL12:
  28:.\main.c      ****     
 136              		.loc 1 28 0
 137 000a 3248     		ldr	r0, .L9
 138 000c FFF7FEFF 		bl	puts
 139              	.LVL13:
  33:.\main.c      ****   
 140              		.loc 1 33 0
 141 0010 FFF7FEFF 		bl	I2C_Start
 142              	.LVL14:
  38:.\main.c      ****     I2C_write(GYRO_ADDR, GYRO_CTRL4_REG, 0x30);             // set full scale selection to 2000dps 
 143              		.loc 1 38 0
 144 0014 6B20     		movs	r0, #107
 145 0016 2021     		movs	r1, #32
 146 0018 0F22     		movs	r2, #15
 147 001a FFF7FEFF 		bl	I2C_write
 148              	.LVL15:
  39:.\main.c      ****     
 149              		.loc 1 39 0
 150 001e 6B20     		movs	r0, #107
 151 0020 2321     		movs	r1, #35
 152 0022 3022     		movs	r2, #48
 153 0024 FFF7FEFF 		bl	I2C_write
 154              	.LVL16:
 155              	.L7:
  43:.\main.c      ****         //print out gyroscope output
 156              		.loc 1 43 0 discriminator 1
 157 0028 FFF7FEFF 		bl	GyroTimer_Start
 158              	.LVL17:
  45:.\main.c      ****         X_AXIS_H = I2C_read(GYRO_ADDR, OUT_X_AXIS_H);
 159              		.loc 1 45 0 discriminator 1
 160 002c 6B20     		movs	r0, #107
 161 002e 2821     		movs	r1, #40
 162 0030 FFF7FEFF 		bl	I2C_read
 163              	.LVL18:
 164 0034 0546     		mov	r5, r0
 165              	.LVL19:
  46:.\main.c      ****         Y_AXIS_L = I2C_read(GYRO_ADDR, OUT_Y_AXIS_L);
 166              		.loc 1 46 0 discriminator 1
ARM GAS  C:\Users\dufma\AppData\Local\Temp\ccapBcpf.s 			page 8


 167 0036 6B20     		movs	r0, #107
 168 0038 2921     		movs	r1, #41
 169 003a FFF7FEFF 		bl	I2C_read
 170              	.LVL20:
 171 003e 8146     		mov	r9, r0
 172              	.LVL21:
  47:.\main.c      ****         Y_AXIS_H = I2C_read(GYRO_ADDR, OUT_Y_AXIS_H);
 173              		.loc 1 47 0 discriminator 1
 174 0040 6B20     		movs	r0, #107
 175 0042 2A21     		movs	r1, #42
 176 0044 FFF7FEFF 		bl	I2C_read
 177              	.LVL22:
 178 0048 0446     		mov	r4, r0
 179              	.LVL23:
  48:.\main.c      ****         Z_AXIS_L = I2C_read(GYRO_ADDR, OUT_Z_AXIS_L);
 180              		.loc 1 48 0 discriminator 1
 181 004a 6B20     		movs	r0, #107
 182 004c 2B21     		movs	r1, #43
 183 004e FFF7FEFF 		bl	I2C_read
 184              	.LVL24:
 185 0052 8046     		mov	r8, r0
 186              	.LVL25:
  49:.\main.c      ****         Z_AXIS_H = I2C_read(GYRO_ADDR, OUT_Z_AXIS_H);
 187              		.loc 1 49 0 discriminator 1
 188 0054 6B20     		movs	r0, #107
 189 0056 2C21     		movs	r1, #44
 190 0058 FFF7FEFF 		bl	I2C_read
 191              	.LVL26:
 192 005c 0646     		mov	r6, r0
 193              	.LVL27:
  50:.\main.c      ****      
 194              		.loc 1 50 0 discriminator 1
 195 005e 6B20     		movs	r0, #107
 196 0060 2D21     		movs	r1, #45
 197 0062 FFF7FEFF 		bl	I2C_read
 198              	.LVL28:
 199 0066 0746     		mov	r7, r0
 200              	.LVL29:
  52:.\main.c      ****         
 201              		.loc 1 52 0 discriminator 1
 202 0068 FFF7FEFF 		bl	GyroTimer_ReadCounter
 203              	.LVL30:
 204 006c 0146     		mov	r1, r0
 205 006e 1A48     		ldr	r0, .L9+4
 206 0070 FFF7FEFF 		bl	printf
 207              	.LVL31:
  54:.\main.c      ****         Y_AXIS = convert_raw(Y_AXIS_H, Y_AXIS_L);
 208              		.loc 1 54 0 discriminator 1
 209 0074 4846     		mov	r0, r9
 210 0076 2946     		mov	r1, r5
 211 0078 FFF7FEFF 		bl	convert_raw
 212              	.LVL32:
 213 007c 0546     		mov	r5, r0
 214              	.LVL33:
  55:.\main.c      ****         Z_AXIS = convert_raw(Z_AXIS_H, Z_AXIS_L);
 215              		.loc 1 55 0 discriminator 1
 216 007e 4046     		mov	r0, r8
ARM GAS  C:\Users\dufma\AppData\Local\Temp\ccapBcpf.s 			page 9


 217 0080 2146     		mov	r1, r4
 218 0082 FFF7FEFF 		bl	convert_raw
 219              	.LVL34:
 220 0086 0446     		mov	r4, r0
 221              	.LVL35:
  56:.\main.c      ****         
 222              		.loc 1 56 0 discriminator 1
 223 0088 3846     		mov	r0, r7
 224 008a 3146     		mov	r1, r6
 225 008c FFF7FEFF 		bl	convert_raw
 226              	.LVL36:
 227 0090 0646     		mov	r6, r0
 228              	.LVL37:
  65:.\main.c      ****         
 229              		.loc 1 65 0 discriminator 1
 230 0092 2846     		mov	r0, r5
 231 0094 FFF7FEFF 		bl	value_convert_gyro
 232              	.LVL38:
 233 0098 0546     		mov	r5, r0
 234              	.LVL39:
 235 009a 2046     		mov	r0, r4
 236 009c FFF7FEFF 		bl	value_convert_gyro
 237              	.LVL40:
 238 00a0 0446     		mov	r4, r0
 239              	.LVL41:
 240 00a2 3046     		mov	r0, r6
 241 00a4 FFF7FEFF 		bl	value_convert_gyro
 242              	.LVL42:
 243 00a8 0346     		mov	r3, r0
 244 00aa 0C48     		ldr	r0, .L9+8
 245 00ac 2946     		mov	r1, r5
 246 00ae 2246     		mov	r2, r4
 247 00b0 FFF7FEFF 		bl	printf
 248              	.LVL43:
  67:.\main.c      ****         CyDelay(20);
 249              		.loc 1 67 0 discriminator 1
 250 00b4 FFF7FEFF 		bl	GyroTimer_ReadCounter
 251              	.LVL44:
 252 00b8 0146     		mov	r1, r0
 253 00ba 0948     		ldr	r0, .L9+12
 254 00bc FFF7FEFF 		bl	printf
 255              	.LVL45:
  68:.\main.c      ****          GyroTimer_Stop();
 256              		.loc 1 68 0 discriminator 1
 257 00c0 1420     		movs	r0, #20
 258 00c2 FFF7FEFF 		bl	CyDelay
 259              	.LVL46:
  69:.\main.c      ****         GyroTimer_WriteCounter(0xFFFF);
 260              		.loc 1 69 0 discriminator 1
 261 00c6 FFF7FEFF 		bl	GyroTimer_Stop
 262              	.LVL47:
  70:.\main.c      ****     }
 263              		.loc 1 70 0 discriminator 1
 264 00ca 4FF6FF70 		movw	r0, #65535
 265 00ce FFF7FEFF 		bl	GyroTimer_WriteCounter
 266              	.LVL48:
  71:.\main.c      ****     ///-----------------------------------------------------------------*/ 
ARM GAS  C:\Users\dufma\AppData\Local\Temp\ccapBcpf.s 			page 10


 267              		.loc 1 71 0 discriminator 1
 268 00d2 A9E7     		b	.L7
 269              	.L10:
 270              		.align	2
 271              	.L9:
 272 00d4 00000000 		.word	.LC0
 273 00d8 08000000 		.word	.LC1
 274 00dc 10000000 		.word	.LC2
 275 00e0 1C000000 		.word	.LC3
 276              		.cfi_endproc
 277              	.LFE63:
 278              		.size	main, .-main
 279              		.section	.text._write,"ax",%progbits
 280              		.align	2
 281              		.global	_write
 282              		.thumb
 283              		.thumb_func
 284              		.type	_write, %function
 285              	_write:
 286              	.LFB66:
 224:.\main.c      **** 
 225:.\main.c      **** 
 226:.\main.c      **** #if 0
 227:.\main.c      **** int rread(void)
 228:.\main.c      **** {
 229:.\main.c      ****     SC0_SetDriveMode(PIN_DM_STRONG);
 230:.\main.c      ****     SC0_Write(1);
 231:.\main.c      ****     CyDelayUs(10);
 232:.\main.c      ****     SC0_SetDriveMode(PIN_DM_DIG_HIZ);
 233:.\main.c      ****     Timer_1_Start();
 234:.\main.c      ****     uint16_t start = Timer_1_ReadCounter();
 235:.\main.c      ****     uint16_t end = 0;
 236:.\main.c      ****     while(!(Timer_1_ReadStatusRegister() & Timer_1_STATUS_TC)) {
 237:.\main.c      ****         if(SC0_Read() == 0 && end == 0) {
 238:.\main.c      ****             end = Timer_1_ReadCounter();
 239:.\main.c      ****         }
 240:.\main.c      ****     }
 241:.\main.c      ****     Timer_1_Stop();
 242:.\main.c      ****     
 243:.\main.c      ****     return (start - end);
 244:.\main.c      **** }
 245:.\main.c      **** #endif
 246:.\main.c      **** 
 247:.\main.c      **** int _write(int file, char *ptr, int len)
 248:.\main.c      **** {
 287              		.loc 1 248 0
 288              		.cfi_startproc
 289              		@ args = 0, pretend = 0, frame = 0
 290              		@ frame_needed = 0, uses_anonymous_args = 0
 291              	.LVL49:
 292 0000 70B5     		push	{r4, r5, r6, lr}
 293              		.cfi_def_cfa_offset 16
 294              		.cfi_offset 4, -16
 295              		.cfi_offset 5, -12
 296              		.cfi_offset 6, -8
 297              		.cfi_offset 14, -4
 298 0002 1646     		mov	r6, r2
ARM GAS  C:\Users\dufma\AppData\Local\Temp\ccapBcpf.s 			page 11


 299              	.LVL50:
 249:.\main.c      ****     (void) file;
 250:.\main.c      **** 	int n;
 251:.\main.c      **** 	for(n = 0; n < len; n++) {
 300              		.loc 1 251 0
 301 0004 0024     		movs	r4, #0
 302 0006 05E0     		b	.L12
 303              	.LVL51:
 304              	.L13:
 252:.\main.c      **** 		UART_PutChar(*ptr++);
 305              		.loc 1 252 0 discriminator 3
 306 0008 4D1C     		adds	r5, r1, #1
 307              	.LVL52:
 308 000a 0878     		ldrb	r0, [r1]	@ zero_extendqisi2
 309 000c FFF7FEFF 		bl	UART_PutChar
 310              	.LVL53:
 251:.\main.c      **** 		UART_PutChar(*ptr++);
 311              		.loc 1 251 0 discriminator 3
 312 0010 0134     		adds	r4, r4, #1
 313              	.LVL54:
 314              		.loc 1 252 0 discriminator 3
 315 0012 2946     		mov	r1, r5
 316              	.LVL55:
 317              	.L12:
 251:.\main.c      **** 		UART_PutChar(*ptr++);
 318              		.loc 1 251 0 discriminator 1
 319 0014 B442     		cmp	r4, r6
 320 0016 F7DB     		blt	.L13
 253:.\main.c      **** 	}
 254:.\main.c      **** 	return len;
 255:.\main.c      **** }
 321              		.loc 1 255 0
 322 0018 3046     		mov	r0, r6
 323 001a 70BD     		pop	{r4, r5, r6, pc}
 324              		.cfi_endproc
 325              	.LFE66:
 326              		.size	_write, .-_write
 327              		.comm	digital_sensor_value,8,4
 328              		.comm	sensors,8,4
 329              		.section	.rodata.str1.4,"aMS",%progbits,1
 330              		.align	2
 331              	.LC0:
 332 0000 53746172 		.ascii	"Start\015\000"
 332      740D00
 333 0007 00       		.space	1
 334              	.LC1:
 335 0008 25640D0A 		.ascii	"%d\015\012\000"
 335      00
 336 000d 000000   		.space	3
 337              	.LC2:
 338 0010 25642025 		.ascii	"%d %d %d \015\012\000"
 338      64202564 
 338      200D0A00 
 339              	.LC3:
 340 001c 25640D0A 		.ascii	"%d\015\012\012\000"
 340      0A00
 341 0022 0000     		.text
ARM GAS  C:\Users\dufma\AppData\Local\Temp\ccapBcpf.s 			page 12


 342              	.Letext0:
 343              		.file 2 "c:\\program files (x86)\\cypress\\psoc creator\\3.3\\psoc creator\\import\\gnu\\arm\\4.9.
 344              		.file 3 "c:\\program files (x86)\\cypress\\psoc creator\\3.3\\psoc creator\\import\\gnu\\arm\\4.9.
 345              		.file 4 "Generated_Source\\PSoC5/cytypes.h"
 346              		.file 5 ".\\Reflectance.h"
 347              		.file 6 "Generated_Source\\PSoC5/core_cm3.h"
 348              		.file 7 "Generated_Source\\PSoC5/UART.h"
 349              		.file 8 "Generated_Source\\PSoC5/I2C.h"
 350              		.file 9 "Generated_Source\\PSoC5/GyroTimer.h"
 351              		.file 10 ".\\I2C_made.h"
 352              		.file 11 "c:\\program files (x86)\\cypress\\psoc creator\\3.3\\psoc creator\\import\\gnu\\arm\\4.9
 353              		.file 12 "Generated_Source\\PSoC5/CyLib.h"
 354              		.file 13 "<built-in>"