ARM GAS  C:\Users\suminh\AppData\Local\Temp\cctdkdX8.s 			page 1


   1              		.syntax unified
   2              		.cpu cortex-m3
   3              		.fpu softvfp
   4              		.eabi_attribute 20, 1
   5              		.eabi_attribute 21, 1
   6              		.eabi_attribute 23, 3
   7              		.eabi_attribute 24, 1
   8              		.eabi_attribute 25, 1
   9              		.eabi_attribute 26, 1
  10              		.eabi_attribute 30, 1
  11              		.eabi_attribute 34, 1
  12              		.eabi_attribute 18, 4
  13              		.thumb
  14              		.file	"main.c"
  15              		.text
  16              	.Ltext0:
  17              		.cfi_sections	.debug_frame
  18              		.section	.text.sensor_isr_handler,"ax",%progbits
  19              		.align	2
  20              		.global	sensor_isr_handler
  21              		.thumb
  22              		.thumb_func
  23              		.type	sensor_isr_handler, %function
  24              	sensor_isr_handler:
  25              	.LFB67:
  26              		.file 1 ".\\main.c"
   1:.\main.c      **** /* ========================================
   2:.\main.c      ****  *
   3:.\main.c      ****  * Copyright YOUR COMPANY, THE YEAR
   4:.\main.c      ****  * All Rights Reserved
   5:.\main.c      ****  * UNPUBLISHED, LICENSED SOFTWARE.
   6:.\main.c      ****  *
   7:.\main.c      ****  * CONFIDENTIAL AND PROPRIETARY INFORMATION
   8:.\main.c      ****  * WHICH IS THE PROPERTY OF your company.
   9:.\main.c      ****  *
  10:.\main.c      ****  * ========================================
  11:.\main.c      **** */
  12:.\main.c      **** #include <project.h>
  13:.\main.c      **** #include <stdio.h>
  14:.\main.c      **** 
  15:.\main.c      **** int rread(void);
  16:.\main.c      **** void reflectance_period();
  17:.\main.c      **** void reflectance_digital();
  18:.\main.c      **** 
  19:.\main.c      **** CY_ISR_PROTO(sensor_isr_handler);
  20:.\main.c      **** 
  21:.\main.c      **** volatile struct sensors_ {
  22:.\main.c      ****     uint16_t ll;
  23:.\main.c      ****     //uint16_t lc; // not used at the moment
  24:.\main.c      ****     uint16_t lr;
  25:.\main.c      ****     uint16_t rl;
  26:.\main.c      ****     //uint16_t rc; // not used at the moment
  27:.\main.c      ****     uint16_t rr;
  28:.\main.c      **** } sensors;
  29:.\main.c      **** 
  30:.\main.c      **** volatile struct digital_sensor_value_ {         //digital value for recognizing black or white
  31:.\main.c      ****     uint16_t ll;
ARM GAS  C:\Users\suminh\AppData\Local\Temp\cctdkdX8.s 			page 2


  32:.\main.c      ****     //uint16_t lc; // not used at the moment
  33:.\main.c      ****     uint16_t lr;
  34:.\main.c      ****     uint16_t rl;
  35:.\main.c      ****     //uint16_t rc; // not used at the moment
  36:.\main.c      ****     uint16_t rr;
  37:.\main.c      **** } digital_sensor_value;
  38:.\main.c      **** 
  39:.\main.c      **** /* moving forward */
  40:.\main.c      **** void motor_forward(uint8 speed,uint32 delay)
  41:.\main.c      **** {
  42:.\main.c      ****     PWM_WriteCompare1(speed); 
  43:.\main.c      ****     PWM_WriteCompare2(speed); 
  44:.\main.c      ****     CyDelay(delay);
  45:.\main.c      **** }
  46:.\main.c      **** 
  47:.\main.c      **** /* moving left when l_speed < r_speed or moving right when l_speed > r_speed */
  48:.\main.c      **** void motor_turn(uint8 l_speed, uint8 r_speed, uint32 delay)
  49:.\main.c      **** {
  50:.\main.c      ****     PWM_WriteCompare1(l_speed); 
  51:.\main.c      ****     PWM_WriteCompare2(r_speed); 
  52:.\main.c      ****     CyDelay(delay);
  53:.\main.c      **** }
  54:.\main.c      **** 
  55:.\main.c      **** /* moving backward */
  56:.\main.c      **** void motor_backward(uint8 speed,uint32 delay)
  57:.\main.c      **** {
  58:.\main.c      ****     MotorDirLeft_Write(1);
  59:.\main.c      ****     MotorDirRight_Write(1);
  60:.\main.c      ****     PWM_WriteCompare1(speed); 
  61:.\main.c      ****     PWM_WriteCompare2(speed); 
  62:.\main.c      ****     CyDelay(delay);
  63:.\main.c      **** }
  64:.\main.c      **** 
  65:.\main.c      **** 
  66:.\main.c      **** int main()
  67:.\main.c      **** {
  68:.\main.c      ****     sensor_isr_StartEx(sensor_isr_handler);
  69:.\main.c      ****     
  70:.\main.c      ****     CyGlobalIntEnable; /* Enable global interrupts. */
  71:.\main.c      **** 
  72:.\main.c      ****     /* Place your initialization/startup code here (e.g. MyInst_Start()) */
  73:.\main.c      ****     UART_Start();
  74:.\main.c      ****     Timer_RL_Start();
  75:.\main.c      ****     Timer_RR_Start();
  76:.\main.c      ****     Timer_LL_Start();
  77:.\main.c      ****     Timer_LR_Start();
  78:.\main.c      ****     PWM_Start();
  79:.\main.c      **** 
  80:.\main.c      ****     printf("Start\r\n");
  81:.\main.c      **** /*    
  82:.\main.c      ****     // forward, low speed
  83:.\main.c      ****     PWM_WriteCompare1(20); 
  84:.\main.c      ****     PWM_WriteCompare2(20); 
  85:.\main.c      ****     CyDelay(2000);
  86:.\main.c      ****     // forward, high speed
  87:.\main.c      ****     PWM_WriteCompare1(50);
  88:.\main.c      ****     PWM_WriteCompare2(50);
ARM GAS  C:\Users\suminh\AppData\Local\Temp\cctdkdX8.s 			page 3


  89:.\main.c      ****      CyDelay(2000);
  90:.\main.c      ****     // turn left
  91:.\main.c      ****     PWM_WriteCompare1(20); 
  92:.\main.c      ****     PWM_WriteCompare2(100);
  93:.\main.c      ****     CyDelay(2000);
  94:.\main.c      ****     // forward
  95:.\main.c      ****     PWM_WriteCompare1(50); 
  96:.\main.c      ****     PWM_WriteCompare2(50); 
  97:.\main.c      ****      CyDelay(2000);
  98:.\main.c      ****     // turn right
  99:.\main.c      ****     PWM_WriteCompare1(100);
 100:.\main.c      ****     PWM_WriteCompare2(50);
 101:.\main.c      ****     CyDelay(2000);
 102:.\main.c      ****  
 103:.\main.c      ****     motor_forward(20,2000);
 104:.\main.c      ****     motor_forward(50,2000);
 105:.\main.c      ****     motor_turn(20,50,2000);
 106:.\main.c      ****     motor_turn(50,20,2000);
 107:.\main.c      ****     motor_forward(50,2000);
 108:.\main.c      ****      */
 109:.\main.c      ****    // MotorDirRight_SetDriveMode(1);
 110:.\main.c      ****     motor_forward(50,2000);    
 111:.\main.c      ****     motor_turn(20,50,2000);
 112:.\main.c      ****     motor_turn(50,20,2000);
 113:.\main.c      ****     motor_backward(50,2000);
 114:.\main.c      ****     
 115:.\main.c      ****     
 116:.\main.c      ****     PWM_Stop();
 117:.\main.c      ****     
 118:.\main.c      ****     IR_led_Write(1);
 119:.\main.c      ****     for(;;)
 120:.\main.c      ****     {
 121:.\main.c      ****         /* Place your application code here. */
 122:.\main.c      **** #if 0        
 123:.\main.c      ****         int iron;
 124:.\main.c      ****         int iroff;
 125:.\main.c      ****         IR_led_Write(1);
 126:.\main.c      ****         iron = rread();
 127:.\main.c      ****         IR_led_Write(0);
 128:.\main.c      ****         iroff = rread();
 129:.\main.c      ****         printf("%d %d\r\n", iron, iroff);
 130:.\main.c      ****         CyDelay(500);
 131:.\main.c      **** #else
 132:.\main.c      ****         reflectance_period();      //print out each period of reflectance sensors
 133:.\main.c      ****         reflectance_digital();      //print out 0 or 1 according to results of reflectance period
 134:.\main.c      ****         
 135:.\main.c      ****         CyDelay(500);
 136:.\main.c      **** #endif
 137:.\main.c      ****     }
 138:.\main.c      **** }
 139:.\main.c      **** 
 140:.\main.c      **** CY_ISR(sensor_isr_handler)
 141:.\main.c      **** {
  27              		.loc 1 141 0
  28              		.cfi_startproc
  29              		@ args = 0, pretend = 0, frame = 0
  30              		@ frame_needed = 0, uses_anonymous_args = 0
ARM GAS  C:\Users\suminh\AppData\Local\Temp\cctdkdX8.s 			page 4


  31 0000 F8B5     		push	{r3, r4, r5, r6, r7, lr}
  32              		.cfi_def_cfa_offset 24
  33              		.cfi_offset 3, -24
  34              		.cfi_offset 4, -20
  35              		.cfi_offset 5, -16
  36              		.cfi_offset 6, -12
  37              		.cfi_offset 7, -8
  38              		.cfi_offset 14, -4
 142:.\main.c      ****     uint32_t statusRL = Timer_RL_ReadStatusRegister();
  39              		.loc 1 142 0
  40 0002 FFF7FEFF 		bl	Timer_RL_ReadStatusRegister
  41              	.LVL0:
  42 0006 0446     		mov	r4, r0
  43              	.LVL1:
 143:.\main.c      ****     uint32_t statusRR = Timer_RR_ReadStatusRegister();
  44              		.loc 1 143 0
  45 0008 FFF7FEFF 		bl	Timer_RR_ReadStatusRegister
  46              	.LVL2:
  47 000c 0746     		mov	r7, r0
  48              	.LVL3:
 144:.\main.c      ****     uint32_t statusLL = Timer_LL_ReadStatusRegister();
  49              		.loc 1 144 0
  50 000e FFF7FEFF 		bl	Timer_LL_ReadStatusRegister
  51              	.LVL4:
  52 0012 0646     		mov	r6, r0
  53              	.LVL5:
 145:.\main.c      ****     uint32_t statusLR = Timer_LR_ReadStatusRegister();
  54              		.loc 1 145 0
  55 0014 FFF7FEFF 		bl	Timer_LR_ReadStatusRegister
  56              	.LVL6:
  57 0018 0546     		mov	r5, r0
  58              	.LVL7:
 146:.\main.c      **** 
 147:.\main.c      ****     if(statusRL & Timer_RL_STATUS_CAPTURE) {
  59              		.loc 1 147 0
  60 001a 14F0400F 		tst	r4, #64
  61 001e 09D0     		beq	.L2
 148:.\main.c      ****         sensors.rl = Timer_RL_ReadPeriod() - Timer_RL_ReadCapture();
  62              		.loc 1 148 0
  63 0020 FFF7FEFF 		bl	Timer_RL_ReadPeriod
  64              	.LVL8:
  65 0024 0446     		mov	r4, r0
  66              	.LVL9:
  67 0026 FFF7FEFF 		bl	Timer_RL_ReadCapture
  68              	.LVL10:
  69 002a 201A     		subs	r0, r4, r0
  70 002c 80B2     		uxth	r0, r0
  71 002e 314B     		ldr	r3, .L11
  72 0030 9880     		strh	r0, [r3, #4]	@ movhi
  73 0032 03E0     		b	.L3
  74              	.LVL11:
  75              	.L2:
 149:.\main.c      ****     }
 150:.\main.c      ****     else {
 151:.\main.c      ****         sensors.rl = Timer_RL_ReadPeriod();
  76              		.loc 1 151 0
  77 0034 FFF7FEFF 		bl	Timer_RL_ReadPeriod
ARM GAS  C:\Users\suminh\AppData\Local\Temp\cctdkdX8.s 			page 5


  78              	.LVL12:
  79 0038 2E4B     		ldr	r3, .L11
  80 003a 9880     		strh	r0, [r3, #4]	@ movhi
  81              	.LVL13:
  82              	.L3:
 152:.\main.c      ****     }
 153:.\main.c      ****     
 154:.\main.c      ****     if(statusRR & Timer_RR_STATUS_CAPTURE) {
  83              		.loc 1 154 0
  84 003c 17F0400F 		tst	r7, #64
  85 0040 09D0     		beq	.L4
 155:.\main.c      ****         sensors.rr = Timer_RR_ReadPeriod() - Timer_RR_ReadCapture();
  86              		.loc 1 155 0
  87 0042 FFF7FEFF 		bl	Timer_RR_ReadPeriod
  88              	.LVL14:
  89 0046 0446     		mov	r4, r0
  90 0048 FFF7FEFF 		bl	Timer_RR_ReadCapture
  91              	.LVL15:
  92 004c 201A     		subs	r0, r4, r0
  93 004e 80B2     		uxth	r0, r0
  94 0050 284B     		ldr	r3, .L11
  95 0052 D880     		strh	r0, [r3, #6]	@ movhi
  96 0054 03E0     		b	.L5
  97              	.L4:
 156:.\main.c      ****     }
 157:.\main.c      ****     else {
 158:.\main.c      ****         sensors.rr = Timer_RR_ReadPeriod();
  98              		.loc 1 158 0
  99 0056 FFF7FEFF 		bl	Timer_RR_ReadPeriod
 100              	.LVL16:
 101 005a 264B     		ldr	r3, .L11
 102 005c D880     		strh	r0, [r3, #6]	@ movhi
 103              	.L5:
 159:.\main.c      ****     }
 160:.\main.c      ****     
 161:.\main.c      ****     if(statusLL & Timer_LL_STATUS_CAPTURE) {
 104              		.loc 1 161 0
 105 005e 16F0400F 		tst	r6, #64
 106 0062 09D0     		beq	.L6
 162:.\main.c      ****         sensors.ll = Timer_LL_ReadPeriod() - Timer_LL_ReadCapture();
 107              		.loc 1 162 0
 108 0064 FFF7FEFF 		bl	Timer_LL_ReadPeriod
 109              	.LVL17:
 110 0068 0446     		mov	r4, r0
 111 006a FFF7FEFF 		bl	Timer_LL_ReadCapture
 112              	.LVL18:
 113 006e 201A     		subs	r0, r4, r0
 114 0070 80B2     		uxth	r0, r0
 115 0072 204B     		ldr	r3, .L11
 116 0074 1880     		strh	r0, [r3]	@ movhi
 117 0076 03E0     		b	.L7
 118              	.L6:
 163:.\main.c      ****     }
 164:.\main.c      ****     else {
 165:.\main.c      ****         sensors.ll = Timer_LL_ReadPeriod();
 119              		.loc 1 165 0
 120 0078 FFF7FEFF 		bl	Timer_LL_ReadPeriod
ARM GAS  C:\Users\suminh\AppData\Local\Temp\cctdkdX8.s 			page 6


 121              	.LVL19:
 122 007c 1D4B     		ldr	r3, .L11
 123 007e 1880     		strh	r0, [r3]	@ movhi
 124              	.L7:
 166:.\main.c      ****     }
 167:.\main.c      ****     
 168:.\main.c      ****     if(statusLR & Timer_LR_STATUS_CAPTURE) {
 125              		.loc 1 168 0
 126 0080 15F0400F 		tst	r5, #64
 127 0084 09D0     		beq	.L8
 169:.\main.c      ****         sensors.lr = Timer_LR_ReadPeriod() - Timer_LR_ReadCapture();
 128              		.loc 1 169 0
 129 0086 FFF7FEFF 		bl	Timer_LR_ReadPeriod
 130              	.LVL20:
 131 008a 0446     		mov	r4, r0
 132 008c FFF7FEFF 		bl	Timer_LR_ReadCapture
 133              	.LVL21:
 134 0090 201A     		subs	r0, r4, r0
 135 0092 80B2     		uxth	r0, r0
 136 0094 174B     		ldr	r3, .L11
 137 0096 5880     		strh	r0, [r3, #2]	@ movhi
 138 0098 03E0     		b	.L9
 139              	.L8:
 170:.\main.c      ****     }
 171:.\main.c      ****     else {
 172:.\main.c      ****         sensors.lr = Timer_LR_ReadPeriod();
 140              		.loc 1 172 0
 141 009a FFF7FEFF 		bl	Timer_LR_ReadPeriod
 142              	.LVL22:
 143 009e 154B     		ldr	r3, .L11
 144 00a0 5880     		strh	r0, [r3, #2]	@ movhi
 145              	.L9:
 173:.\main.c      ****     }
 174:.\main.c      ****     
 175:.\main.c      ****     RL_SetDriveMode(PIN_DM_STRONG);
 146              		.loc 1 175 0
 147 00a2 0C20     		movs	r0, #12
 148 00a4 FFF7FEFF 		bl	RL_SetDriveMode
 149              	.LVL23:
 176:.\main.c      ****     RL_Write(1);
 150              		.loc 1 176 0
 151 00a8 0120     		movs	r0, #1
 152 00aa FFF7FEFF 		bl	RL_Write
 153              	.LVL24:
 177:.\main.c      ****     RR_SetDriveMode(PIN_DM_STRONG);
 154              		.loc 1 177 0
 155 00ae 0C20     		movs	r0, #12
 156 00b0 FFF7FEFF 		bl	RR_SetDriveMode
 157              	.LVL25:
 178:.\main.c      ****     RR_Write(1);
 158              		.loc 1 178 0
 159 00b4 0120     		movs	r0, #1
 160 00b6 FFF7FEFF 		bl	RR_Write
 161              	.LVL26:
 179:.\main.c      ****     LL_SetDriveMode(PIN_DM_STRONG);
 162              		.loc 1 179 0
 163 00ba 0C20     		movs	r0, #12
ARM GAS  C:\Users\suminh\AppData\Local\Temp\cctdkdX8.s 			page 7


 164 00bc FFF7FEFF 		bl	LL_SetDriveMode
 165              	.LVL27:
 180:.\main.c      ****     LL_Write(1);
 166              		.loc 1 180 0
 167 00c0 0120     		movs	r0, #1
 168 00c2 FFF7FEFF 		bl	LL_Write
 169              	.LVL28:
 181:.\main.c      ****     LR_SetDriveMode(PIN_DM_STRONG);
 170              		.loc 1 181 0
 171 00c6 0C20     		movs	r0, #12
 172 00c8 FFF7FEFF 		bl	LR_SetDriveMode
 173              	.LVL29:
 182:.\main.c      ****     LR_Write(1);
 174              		.loc 1 182 0
 175 00cc 0120     		movs	r0, #1
 176 00ce FFF7FEFF 		bl	LR_Write
 177              	.LVL30:
 183:.\main.c      ****     CyDelayUs(10);
 178              		.loc 1 183 0
 179 00d2 0A20     		movs	r0, #10
 180 00d4 FFF7FEFF 		bl	CyDelayUs
 181              	.LVL31:
 184:.\main.c      ****     RL_SetDriveMode(PIN_DM_DIG_HIZ);
 182              		.loc 1 184 0
 183 00d8 0220     		movs	r0, #2
 184 00da FFF7FEFF 		bl	RL_SetDriveMode
 185              	.LVL32:
 185:.\main.c      ****     RR_SetDriveMode(PIN_DM_DIG_HIZ);
 186              		.loc 1 185 0
 187 00de 0220     		movs	r0, #2
 188 00e0 FFF7FEFF 		bl	RR_SetDriveMode
 189              	.LVL33:
 186:.\main.c      ****     LL_SetDriveMode(PIN_DM_DIG_HIZ);
 190              		.loc 1 186 0
 191 00e4 0220     		movs	r0, #2
 192 00e6 FFF7FEFF 		bl	LL_SetDriveMode
 193              	.LVL34:
 187:.\main.c      ****     LR_SetDriveMode(PIN_DM_DIG_HIZ);
 194              		.loc 1 187 0
 195 00ea 0220     		movs	r0, #2
 196 00ec FFF7FEFF 		bl	LR_SetDriveMode
 197              	.LVL35:
 198 00f0 F8BD     		pop	{r3, r4, r5, r6, r7, pc}
 199              	.LVL36:
 200              	.L12:
 201 00f2 00BF     		.align	2
 202              	.L11:
 203 00f4 00000000 		.word	sensors
 204              		.cfi_endproc
 205              	.LFE67:
 206              		.size	sensor_isr_handler, .-sensor_isr_handler
 207              		.section	.text.motor_forward,"ax",%progbits
 208              		.align	2
 209              		.global	motor_forward
 210              		.thumb
 211              		.thumb_func
 212              		.type	motor_forward, %function
ARM GAS  C:\Users\suminh\AppData\Local\Temp\cctdkdX8.s 			page 8


 213              	motor_forward:
 214              	.LFB63:
  41:.\main.c      ****     PWM_WriteCompare1(speed); 
 215              		.loc 1 41 0
 216              		.cfi_startproc
 217              		@ args = 0, pretend = 0, frame = 0
 218              		@ frame_needed = 0, uses_anonymous_args = 0
 219              	.LVL37:
 220 0000 38B5     		push	{r3, r4, r5, lr}
 221              		.cfi_def_cfa_offset 16
 222              		.cfi_offset 3, -16
 223              		.cfi_offset 4, -12
 224              		.cfi_offset 5, -8
 225              		.cfi_offset 14, -4
 226 0002 0546     		mov	r5, r0
 227 0004 0C46     		mov	r4, r1
  42:.\main.c      ****     PWM_WriteCompare2(speed); 
 228              		.loc 1 42 0
 229 0006 FFF7FEFF 		bl	PWM_WriteCompare1
 230              	.LVL38:
  43:.\main.c      ****     CyDelay(delay);
 231              		.loc 1 43 0
 232 000a 2846     		mov	r0, r5
 233 000c FFF7FEFF 		bl	PWM_WriteCompare2
 234              	.LVL39:
  44:.\main.c      **** }
 235              		.loc 1 44 0
 236 0010 2046     		mov	r0, r4
 237 0012 FFF7FEFF 		bl	CyDelay
 238              	.LVL40:
 239 0016 38BD     		pop	{r3, r4, r5, pc}
 240              		.cfi_endproc
 241              	.LFE63:
 242              		.size	motor_forward, .-motor_forward
 243              		.section	.text.motor_turn,"ax",%progbits
 244              		.align	2
 245              		.global	motor_turn
 246              		.thumb
 247              		.thumb_func
 248              		.type	motor_turn, %function
 249              	motor_turn:
 250              	.LFB64:
  49:.\main.c      ****     PWM_WriteCompare1(l_speed); 
 251              		.loc 1 49 0
 252              		.cfi_startproc
 253              		@ args = 0, pretend = 0, frame = 0
 254              		@ frame_needed = 0, uses_anonymous_args = 0
 255              	.LVL41:
 256 0000 38B5     		push	{r3, r4, r5, lr}
 257              		.cfi_def_cfa_offset 16
 258              		.cfi_offset 3, -16
 259              		.cfi_offset 4, -12
 260              		.cfi_offset 5, -8
 261              		.cfi_offset 14, -4
 262 0002 0D46     		mov	r5, r1
 263 0004 1446     		mov	r4, r2
  50:.\main.c      ****     PWM_WriteCompare2(r_speed); 
ARM GAS  C:\Users\suminh\AppData\Local\Temp\cctdkdX8.s 			page 9


 264              		.loc 1 50 0
 265 0006 FFF7FEFF 		bl	PWM_WriteCompare1
 266              	.LVL42:
  51:.\main.c      ****     CyDelay(delay);
 267              		.loc 1 51 0
 268 000a 2846     		mov	r0, r5
 269 000c FFF7FEFF 		bl	PWM_WriteCompare2
 270              	.LVL43:
  52:.\main.c      **** }
 271              		.loc 1 52 0
 272 0010 2046     		mov	r0, r4
 273 0012 FFF7FEFF 		bl	CyDelay
 274              	.LVL44:
 275 0016 38BD     		pop	{r3, r4, r5, pc}
 276              		.cfi_endproc
 277              	.LFE64:
 278              		.size	motor_turn, .-motor_turn
 279              		.section	.text.motor_backward,"ax",%progbits
 280              		.align	2
 281              		.global	motor_backward
 282              		.thumb
 283              		.thumb_func
 284              		.type	motor_backward, %function
 285              	motor_backward:
 286              	.LFB65:
  57:.\main.c      ****     MotorDirLeft_Write(1);
 287              		.loc 1 57 0
 288              		.cfi_startproc
 289              		@ args = 0, pretend = 0, frame = 0
 290              		@ frame_needed = 0, uses_anonymous_args = 0
 291              	.LVL45:
 292 0000 38B5     		push	{r3, r4, r5, lr}
 293              		.cfi_def_cfa_offset 16
 294              		.cfi_offset 3, -16
 295              		.cfi_offset 4, -12
 296              		.cfi_offset 5, -8
 297              		.cfi_offset 14, -4
 298 0002 0446     		mov	r4, r0
 299 0004 0D46     		mov	r5, r1
  58:.\main.c      ****     MotorDirRight_Write(1);
 300              		.loc 1 58 0
 301 0006 0120     		movs	r0, #1
 302              	.LVL46:
 303 0008 FFF7FEFF 		bl	MotorDirLeft_Write
 304              	.LVL47:
  59:.\main.c      ****     PWM_WriteCompare1(speed); 
 305              		.loc 1 59 0
 306 000c 0120     		movs	r0, #1
 307 000e FFF7FEFF 		bl	MotorDirRight_Write
 308              	.LVL48:
  60:.\main.c      ****     PWM_WriteCompare2(speed); 
 309              		.loc 1 60 0
 310 0012 2046     		mov	r0, r4
 311 0014 FFF7FEFF 		bl	PWM_WriteCompare1
 312              	.LVL49:
  61:.\main.c      ****     CyDelay(delay);
 313              		.loc 1 61 0
ARM GAS  C:\Users\suminh\AppData\Local\Temp\cctdkdX8.s 			page 10


 314 0018 2046     		mov	r0, r4
 315 001a FFF7FEFF 		bl	PWM_WriteCompare2
 316              	.LVL50:
  62:.\main.c      **** }
 317              		.loc 1 62 0
 318 001e 2846     		mov	r0, r5
 319 0020 FFF7FEFF 		bl	CyDelay
 320              	.LVL51:
 321 0024 38BD     		pop	{r3, r4, r5, pc}
 322              		.cfi_endproc
 323              	.LFE65:
 324              		.size	motor_backward, .-motor_backward
 325 0026 00BF     		.section	.text.reflectance_period,"ax",%progbits
 326              		.align	2
 327              		.global	reflectance_period
 328              		.thumb
 329              		.thumb_func
 330              		.type	reflectance_period, %function
 331              	reflectance_period:
 332              	.LFB68:
 188:.\main.c      ****         
 189:.\main.c      **** }
 190:.\main.c      **** 
 191:.\main.c      **** void reflectance_period()
 192:.\main.c      **** {
 333              		.loc 1 192 0
 334              		.cfi_startproc
 335              		@ args = 0, pretend = 0, frame = 0
 336              		@ frame_needed = 0, uses_anonymous_args = 0
 337 0000 00B5     		push	{lr}
 338              		.cfi_def_cfa_offset 4
 339              		.cfi_offset 14, -4
 340 0002 83B0     		sub	sp, sp, #12
 341              		.cfi_def_cfa_offset 16
 193:.\main.c      ****      printf("%d %d %d %d \t", sensors.ll, sensors.lr, sensors.rl, sensors.rr); 
 342              		.loc 1 193 0
 343 0004 0748     		ldr	r0, .L21
 344 0006 0188     		ldrh	r1, [r0]
 345 0008 4288     		ldrh	r2, [r0, #2]
 346 000a 8388     		ldrh	r3, [r0, #4]
 347 000c C088     		ldrh	r0, [r0, #6]
 348 000e 80B2     		uxth	r0, r0
 349 0010 0090     		str	r0, [sp]
 350 0012 0548     		ldr	r0, .L21+4
 351 0014 89B2     		uxth	r1, r1
 352 0016 92B2     		uxth	r2, r2
 353 0018 9BB2     		uxth	r3, r3
 354 001a FFF7FEFF 		bl	printf
 355              	.LVL52:
 194:.\main.c      **** }
 356              		.loc 1 194 0
 357 001e 03B0     		add	sp, sp, #12
 358              		.cfi_def_cfa_offset 4
 359              		@ sp needed
 360 0020 5DF804FB 		ldr	pc, [sp], #4
 361              	.L22:
 362              		.align	2
ARM GAS  C:\Users\suminh\AppData\Local\Temp\cctdkdX8.s 			page 11


 363              	.L21:
 364 0024 00000000 		.word	sensors
 365 0028 00000000 		.word	.LC0
 366              		.cfi_endproc
 367              	.LFE68:
 368              		.size	reflectance_period, .-reflectance_period
 369              		.section	.text.reflectance_digital,"ax",%progbits
 370              		.align	2
 371              		.global	reflectance_digital
 372              		.thumb
 373              		.thumb_func
 374              		.type	reflectance_digital, %function
 375              	reflectance_digital:
 376              	.LFB69:
 195:.\main.c      **** 
 196:.\main.c      **** void reflectance_digital()
 197:.\main.c      **** {
 377              		.loc 1 197 0
 378              		.cfi_startproc
 379              		@ args = 0, pretend = 0, frame = 0
 380              		@ frame_needed = 0, uses_anonymous_args = 0
 381 0000 00B5     		push	{lr}
 382              		.cfi_def_cfa_offset 4
 383              		.cfi_offset 14, -4
 384 0002 83B0     		sub	sp, sp, #12
 385              		.cfi_def_cfa_offset 16
 198:.\main.c      ****     //if the results of reflectance_period function is over 10000, set digital_sensor_value to 0, w
 199:.\main.c      ****     if(sensors.ll > 10000)
 386              		.loc 1 199 0
 387 0004 234B     		ldr	r3, .L33
 388 0006 1B88     		ldrh	r3, [r3]
 389 0008 9BB2     		uxth	r3, r3
 390 000a 42F21072 		movw	r2, #10000
 391 000e 9342     		cmp	r3, r2
 392 0010 03D9     		bls	.L24
 200:.\main.c      ****         digital_sensor_value.ll  = 0;
 393              		.loc 1 200 0
 394 0012 0022     		movs	r2, #0
 395 0014 204B     		ldr	r3, .L33+4
 396 0016 1A80     		strh	r2, [r3]	@ movhi
 397 0018 02E0     		b	.L25
 398              	.L24:
 201:.\main.c      ****     else
 202:.\main.c      ****         digital_sensor_value.ll  = 1;
 399              		.loc 1 202 0
 400 001a 0122     		movs	r2, #1
 401 001c 1E4B     		ldr	r3, .L33+4
 402 001e 1A80     		strh	r2, [r3]	@ movhi
 403              	.L25:
 203:.\main.c      ****     if(sensors.lr > 10000)
 404              		.loc 1 203 0
 405 0020 1C4B     		ldr	r3, .L33
 406 0022 5B88     		ldrh	r3, [r3, #2]
 407 0024 9BB2     		uxth	r3, r3
 408 0026 42F21072 		movw	r2, #10000
 409 002a 9342     		cmp	r3, r2
 410 002c 03D9     		bls	.L26
ARM GAS  C:\Users\suminh\AppData\Local\Temp\cctdkdX8.s 			page 12


 204:.\main.c      ****         digital_sensor_value.lr  = 0;
 411              		.loc 1 204 0
 412 002e 0022     		movs	r2, #0
 413 0030 194B     		ldr	r3, .L33+4
 414 0032 5A80     		strh	r2, [r3, #2]	@ movhi
 415 0034 02E0     		b	.L27
 416              	.L26:
 205:.\main.c      ****     else
 206:.\main.c      ****         digital_sensor_value.lr  = 1;
 417              		.loc 1 206 0
 418 0036 0122     		movs	r2, #1
 419 0038 174B     		ldr	r3, .L33+4
 420 003a 5A80     		strh	r2, [r3, #2]	@ movhi
 421              	.L27:
 207:.\main.c      ****     if(sensors.rl > 10000)
 422              		.loc 1 207 0
 423 003c 154B     		ldr	r3, .L33
 424 003e 9B88     		ldrh	r3, [r3, #4]
 425 0040 9BB2     		uxth	r3, r3
 426 0042 42F21072 		movw	r2, #10000
 427 0046 9342     		cmp	r3, r2
 428 0048 03D9     		bls	.L28
 208:.\main.c      ****         digital_sensor_value.rl  = 0;
 429              		.loc 1 208 0
 430 004a 0022     		movs	r2, #0
 431 004c 124B     		ldr	r3, .L33+4
 432 004e 9A80     		strh	r2, [r3, #4]	@ movhi
 433 0050 02E0     		b	.L29
 434              	.L28:
 209:.\main.c      ****     else
 210:.\main.c      ****         digital_sensor_value.rl  = 1;
 435              		.loc 1 210 0
 436 0052 0122     		movs	r2, #1
 437 0054 104B     		ldr	r3, .L33+4
 438 0056 9A80     		strh	r2, [r3, #4]	@ movhi
 439              	.L29:
 211:.\main.c      ****     if(sensors.rr > 10000)
 440              		.loc 1 211 0
 441 0058 0E4B     		ldr	r3, .L33
 442 005a DB88     		ldrh	r3, [r3, #6]
 443 005c 9BB2     		uxth	r3, r3
 444 005e 42F21072 		movw	r2, #10000
 445 0062 9342     		cmp	r3, r2
 446 0064 03D9     		bls	.L30
 212:.\main.c      ****         digital_sensor_value.rr  = 0;
 447              		.loc 1 212 0
 448 0066 0022     		movs	r2, #0
 449 0068 0B4B     		ldr	r3, .L33+4
 450 006a DA80     		strh	r2, [r3, #6]	@ movhi
 451 006c 02E0     		b	.L31
 452              	.L30:
 213:.\main.c      ****     else
 214:.\main.c      ****         digital_sensor_value.rr  = 1;
 453              		.loc 1 214 0
 454 006e 0122     		movs	r2, #1
 455 0070 094B     		ldr	r3, .L33+4
 456 0072 DA80     		strh	r2, [r3, #6]	@ movhi
ARM GAS  C:\Users\suminh\AppData\Local\Temp\cctdkdX8.s 			page 13


 457              	.L31:
 215:.\main.c      ****         
 216:.\main.c      ****    //print out the results
 217:.\main.c      ****    printf("%d %d %d %d \t", digital_sensor_value.ll, digital_sensor_value.lr, digital_sensor_value.
 458              		.loc 1 217 0
 459 0074 0848     		ldr	r0, .L33+4
 460 0076 0188     		ldrh	r1, [r0]
 461 0078 4288     		ldrh	r2, [r0, #2]
 462 007a 8388     		ldrh	r3, [r0, #4]
 463 007c C088     		ldrh	r0, [r0, #6]
 464 007e 80B2     		uxth	r0, r0
 465 0080 0090     		str	r0, [sp]
 466 0082 0648     		ldr	r0, .L33+8
 467 0084 89B2     		uxth	r1, r1
 468 0086 92B2     		uxth	r2, r2
 469 0088 9BB2     		uxth	r3, r3
 470 008a FFF7FEFF 		bl	printf
 471              	.LVL53:
 218:.\main.c      **** }
 472              		.loc 1 218 0
 473 008e 03B0     		add	sp, sp, #12
 474              		.cfi_def_cfa_offset 4
 475              		@ sp needed
 476 0090 5DF804FB 		ldr	pc, [sp], #4
 477              	.L34:
 478              		.align	2
 479              	.L33:
 480 0094 00000000 		.word	sensors
 481 0098 00000000 		.word	digital_sensor_value
 482 009c 00000000 		.word	.LC0
 483              		.cfi_endproc
 484              	.LFE69:
 485              		.size	reflectance_digital, .-reflectance_digital
 486              		.section	.text.main,"ax",%progbits
 487              		.align	2
 488              		.global	main
 489              		.thumb
 490              		.thumb_func
 491              		.type	main, %function
 492              	main:
 493              	.LFB66:
  67:.\main.c      ****     sensor_isr_StartEx(sensor_isr_handler);
 494              		.loc 1 67 0
 495              		.cfi_startproc
 496              		@ Volatile: function does not return.
 497              		@ args = 0, pretend = 0, frame = 0
 498              		@ frame_needed = 0, uses_anonymous_args = 0
 499 0000 08B5     		push	{r3, lr}
 500              		.cfi_def_cfa_offset 8
 501              		.cfi_offset 3, -8
 502              		.cfi_offset 14, -4
  68:.\main.c      ****     
 503              		.loc 1 68 0
 504 0002 1B48     		ldr	r0, .L38
 505 0004 FFF7FEFF 		bl	sensor_isr_StartEx
 506              	.LVL54:
  70:.\main.c      **** 
ARM GAS  C:\Users\suminh\AppData\Local\Temp\cctdkdX8.s 			page 14


 507              		.loc 1 70 0
 508              	@ 70 ".\main.c" 1
 509 0008 62B6     		CPSIE   i
 510              	@ 0 "" 2
  73:.\main.c      ****     Timer_RL_Start();
 511              		.loc 1 73 0
 512              		.thumb
 513 000a FFF7FEFF 		bl	UART_Start
 514              	.LVL55:
  74:.\main.c      ****     Timer_RR_Start();
 515              		.loc 1 74 0
 516 000e FFF7FEFF 		bl	Timer_RL_Start
 517              	.LVL56:
  75:.\main.c      ****     Timer_LL_Start();
 518              		.loc 1 75 0
 519 0012 FFF7FEFF 		bl	Timer_RR_Start
 520              	.LVL57:
  76:.\main.c      ****     Timer_LR_Start();
 521              		.loc 1 76 0
 522 0016 FFF7FEFF 		bl	Timer_LL_Start
 523              	.LVL58:
  77:.\main.c      ****     PWM_Start();
 524              		.loc 1 77 0
 525 001a FFF7FEFF 		bl	Timer_LR_Start
 526              	.LVL59:
  78:.\main.c      **** 
 527              		.loc 1 78 0
 528 001e FFF7FEFF 		bl	PWM_Start
 529              	.LVL60:
  80:.\main.c      **** /*    
 530              		.loc 1 80 0
 531 0022 1448     		ldr	r0, .L38+4
 532 0024 FFF7FEFF 		bl	puts
 533              	.LVL61:
 110:.\main.c      ****     motor_turn(20,50,2000);
 534              		.loc 1 110 0
 535 0028 3220     		movs	r0, #50
 536 002a 4FF4FA61 		mov	r1, #2000
 537 002e FFF7FEFF 		bl	motor_forward
 538              	.LVL62:
 111:.\main.c      ****     motor_turn(50,20,2000);
 539              		.loc 1 111 0
 540 0032 1420     		movs	r0, #20
 541 0034 3221     		movs	r1, #50
 542 0036 4FF4FA62 		mov	r2, #2000
 543 003a FFF7FEFF 		bl	motor_turn
 544              	.LVL63:
 112:.\main.c      ****     motor_backward(50,2000);
 545              		.loc 1 112 0
 546 003e 3220     		movs	r0, #50
 547 0040 1421     		movs	r1, #20
 548 0042 4FF4FA62 		mov	r2, #2000
 549 0046 FFF7FEFF 		bl	motor_turn
 550              	.LVL64:
 113:.\main.c      ****     
 551              		.loc 1 113 0
 552 004a 3220     		movs	r0, #50
ARM GAS  C:\Users\suminh\AppData\Local\Temp\cctdkdX8.s 			page 15


 553 004c 4FF4FA61 		mov	r1, #2000
 554 0050 FFF7FEFF 		bl	motor_backward
 555              	.LVL65:
 116:.\main.c      ****     
 556              		.loc 1 116 0
 557 0054 FFF7FEFF 		bl	PWM_Stop
 558              	.LVL66:
 118:.\main.c      ****     for(;;)
 559              		.loc 1 118 0
 560 0058 0120     		movs	r0, #1
 561 005a FFF7FEFF 		bl	IR_led_Write
 562              	.LVL67:
 563              	.L36:
 132:.\main.c      ****         reflectance_digital();      //print out 0 or 1 according to results of reflectance period
 564              		.loc 1 132 0 discriminator 1
 565 005e FFF7FEFF 		bl	reflectance_period
 566              	.LVL68:
 133:.\main.c      ****         
 567              		.loc 1 133 0 discriminator 1
 568 0062 FFF7FEFF 		bl	reflectance_digital
 569              	.LVL69:
 135:.\main.c      **** #endif
 570              		.loc 1 135 0 discriminator 1
 571 0066 4FF4FA70 		mov	r0, #500
 572 006a FFF7FEFF 		bl	CyDelay
 573              	.LVL70:
 137:.\main.c      **** }
 574              		.loc 1 137 0 discriminator 1
 575 006e F6E7     		b	.L36
 576              	.L39:
 577              		.align	2
 578              	.L38:
 579 0070 00000000 		.word	sensor_isr_handler
 580 0074 10000000 		.word	.LC1
 581              		.cfi_endproc
 582              	.LFE66:
 583              		.size	main, .-main
 584              		.section	.text.nunchuk_init,"ax",%progbits
 585              		.align	2
 586              		.global	nunchuk_init
 587              		.thumb
 588              		.thumb_func
 589              		.type	nunchuk_init, %function
 590              	nunchuk_init:
 591              	.LFB70:
 219:.\main.c      **** 
 220:.\main.c      **** void nunchuk_init(void)
 221:.\main.c      **** {
 592              		.loc 1 221 0
 593              		.cfi_startproc
 594              		@ args = 0, pretend = 0, frame = 8
 595              		@ frame_needed = 0, uses_anonymous_args = 0
 596 0000 10B5     		push	{r4, lr}
 597              		.cfi_def_cfa_offset 8
 598              		.cfi_offset 4, -8
 599              		.cfi_offset 14, -4
 600 0002 82B0     		sub	sp, sp, #8
ARM GAS  C:\Users\suminh\AppData\Local\Temp\cctdkdX8.s 			page 16


 601              		.cfi_def_cfa_offset 16
 222:.\main.c      ****     uint8_t buf[2] = { 0x40, 0x00 };
 602              		.loc 1 222 0
 603 0004 4023     		movs	r3, #64
 604 0006 8DF80430 		strb	r3, [sp, #4]
 605 000a 0024     		movs	r4, #0
 606 000c 8DF80540 		strb	r4, [sp, #5]
 223:.\main.c      ****     uint8_t status;
 224:.\main.c      ****     I2C_2_MasterClearStatus();
 607              		.loc 1 224 0
 608 0010 FFF7FEFF 		bl	I2C_2_MasterClearStatus
 609              	.LVL71:
 225:.\main.c      ****     CyDelay(100);
 610              		.loc 1 225 0
 611 0014 6420     		movs	r0, #100
 612 0016 FFF7FEFF 		bl	CyDelay
 613              	.LVL72:
 226:.\main.c      ****     status = I2C_2_MasterWriteBuf(0x52, buf, 2, I2C_2_MODE_COMPLETE_XFER);
 614              		.loc 1 226 0
 615 001a 5220     		movs	r0, #82
 616 001c 01A9     		add	r1, sp, #4
 617 001e 0222     		movs	r2, #2
 618 0020 2346     		mov	r3, r4
 619 0022 FFF7FEFF 		bl	I2C_2_MasterWriteBuf
 620              	.LVL73:
 621              	.L41:
 227:.\main.c      ****     while(((status = I2C_2_MasterStatus()) & I2C_2_MSTAT_WR_CMPLT) == 0);
 622              		.loc 1 227 0 discriminator 1
 623 0026 FFF7FEFF 		bl	I2C_2_MasterStatus
 624              	.LVL74:
 625 002a 10F0020F 		tst	r0, #2
 626 002e FAD0     		beq	.L41
 228:.\main.c      ****     CyDelay(100);
 627              		.loc 1 228 0
 628 0030 6420     		movs	r0, #100
 629              	.LVL75:
 630 0032 FFF7FEFF 		bl	CyDelay
 631              	.LVL76:
 229:.\main.c      **** }    
 632              		.loc 1 229 0
 633 0036 02B0     		add	sp, sp, #8
 634              		.cfi_def_cfa_offset 8
 635              		@ sp needed
 636 0038 10BD     		pop	{r4, pc}
 637              		.cfi_endproc
 638              	.LFE70:
 639              		.size	nunchuk_init, .-nunchuk_init
 640 003a 00BF     		.section	.text.nunchuk_read,"ax",%progbits
 641              		.align	2
 642              		.global	nunchuk_read
 643              		.thumb
 644              		.thumb_func
 645              		.type	nunchuk_read, %function
 646              	nunchuk_read:
 647              	.LFB71:
 230:.\main.c      **** 
 231:.\main.c      **** void nunchuk_read(void)
ARM GAS  C:\Users\suminh\AppData\Local\Temp\cctdkdX8.s 			page 17


 232:.\main.c      **** {
 648              		.loc 1 232 0
 649              		.cfi_startproc
 650              		@ args = 0, pretend = 0, frame = 8
 651              		@ frame_needed = 0, uses_anonymous_args = 0
 652 0000 30B5     		push	{r4, r5, lr}
 653              		.cfi_def_cfa_offset 12
 654              		.cfi_offset 4, -12
 655              		.cfi_offset 5, -8
 656              		.cfi_offset 14, -4
 657 0002 83B0     		sub	sp, sp, #12
 658              		.cfi_def_cfa_offset 24
 233:.\main.c      ****     uint8_t status;
 234:.\main.c      ****     uint8_t buf[6];
 235:.\main.c      ****     // send conversion command
 236:.\main.c      ****     buf[0] = 0x00;
 659              		.loc 1 236 0
 660 0004 0025     		movs	r5, #0
 661 0006 02AC     		add	r4, sp, #8
 662 0008 04F8085D 		strb	r5, [r4, #-8]!
 237:.\main.c      ****     I2C_2_MasterClearStatus();
 663              		.loc 1 237 0
 664 000c FFF7FEFF 		bl	I2C_2_MasterClearStatus
 665              	.LVL77:
 238:.\main.c      ****     status = I2C_2_MasterWriteBuf(0x52, buf, 1, I2C_2_MODE_COMPLETE_XFER);
 666              		.loc 1 238 0
 667 0010 5220     		movs	r0, #82
 668 0012 2146     		mov	r1, r4
 669 0014 0122     		movs	r2, #1
 670 0016 2B46     		mov	r3, r5
 671 0018 FFF7FEFF 		bl	I2C_2_MasterWriteBuf
 672              	.LVL78:
 673              	.L44:
 239:.\main.c      ****     while(((status = I2C_2_MasterStatus()) & I2C_2_MSTAT_WR_CMPLT) == 0);
 674              		.loc 1 239 0 discriminator 1
 675 001c FFF7FEFF 		bl	I2C_2_MasterStatus
 676              	.LVL79:
 677 0020 10F0020F 		tst	r0, #2
 678 0024 FAD0     		beq	.L44
 240:.\main.c      ****     // wait for conversion to complete
 241:.\main.c      ****     CyDelay(50); // todo: check if shorter wait would work
 679              		.loc 1 241 0
 680 0026 3220     		movs	r0, #50
 681              	.LVL80:
 682 0028 FFF7FEFF 		bl	CyDelay
 683              	.LVL81:
 242:.\main.c      ****     // read values
 243:.\main.c      ****     I2C_2_MasterClearStatus();
 684              		.loc 1 243 0
 685 002c FFF7FEFF 		bl	I2C_2_MasterClearStatus
 686              	.LVL82:
 244:.\main.c      ****     status = I2C_2_MasterReadBuf(0x52, buf, 6, I2C_2_MODE_COMPLETE_XFER);
 687              		.loc 1 244 0
 688 0030 5220     		movs	r0, #82
 689 0032 6946     		mov	r1, sp
 690 0034 0622     		movs	r2, #6
 691 0036 0023     		movs	r3, #0
ARM GAS  C:\Users\suminh\AppData\Local\Temp\cctdkdX8.s 			page 18


 692 0038 FFF7FEFF 		bl	I2C_2_MasterReadBuf
 693              	.LVL83:
 694              	.L45:
 245:.\main.c      ****     while(((status = I2C_2_MasterStatus()) & I2C_2_MSTAT_RD_CMPLT) == 0);
 695              		.loc 1 245 0 discriminator 1
 696 003c FFF7FEFF 		bl	I2C_2_MasterStatus
 697              	.LVL84:
 698 0040 10F0010F 		tst	r0, #1
 699 0044 FAD0     		beq	.L45
 700 0046 0023     		movs	r3, #0
 701 0048 00E0     		b	.L46
 702              	.LVL85:
 703              	.L47:
 246:.\main.c      ****     
 247:.\main.c      ****     int i;
 248:.\main.c      ****     // decrypt data
 249:.\main.c      ****     for(i = 0; i < 6; i++) buf[i] = (buf[i] ^ 0x17) + 0x17;
 704              		.loc 1 249 0 discriminator 3
 705 004a 0133     		adds	r3, r3, #1
 706              	.LVL86:
 707              	.L46:
 708              		.loc 1 249 0 is_stmt 0 discriminator 1
 709 004c 052B     		cmp	r3, #5
 710 004e FCDD     		ble	.L47
 250:.\main.c      ****     // accelerometer values
 251:.\main.c      ****     /*
 252:.\main.c      ****     int x,y,z;
 253:.\main.c      ****     x = (buf[2] << 2) | ((buf[5] >> 2) & 0x03);
 254:.\main.c      ****     y = (buf[3] << 2) | ((buf[5] >> 4) & 0x03);
 255:.\main.c      ****     z = (buf[4] << 2) | ((buf[5] >> 6) & 0x03);
 256:.\main.c      ****     // buf[0] = JoyX, buf[1] = JoyY
 257:.\main.c      ****     //printf("%3d %3d, %d, %d, %4d %4d %4d\r\n", buf[0], buf[1], (buf[5] >> 1) & 1, buf[5] & 1, x, 
 258:.\main.c      ****     */
 259:.\main.c      **** }    
 711              		.loc 1 259 0 is_stmt 1
 712 0050 03B0     		add	sp, sp, #12
 713              		.cfi_def_cfa_offset 12
 714              		@ sp needed
 715 0052 30BD     		pop	{r4, r5, pc}
 716              		.cfi_endproc
 717              	.LFE71:
 718              		.size	nunchuk_read, .-nunchuk_read
 719              		.section	.text._write,"ax",%progbits
 720              		.align	2
 721              		.global	_write
 722              		.thumb
 723              		.thumb_func
 724              		.type	_write, %function
 725              	_write:
 726              	.LFB72:
 260:.\main.c      **** 
 261:.\main.c      **** #if 0
 262:.\main.c      **** int rread(void)
 263:.\main.c      **** {
 264:.\main.c      ****     SC0_SetDriveMode(PIN_DM_STRONG);
 265:.\main.c      ****     SC0_Write(1);
 266:.\main.c      ****     CyDelayUs(10);
ARM GAS  C:\Users\suminh\AppData\Local\Temp\cctdkdX8.s 			page 19


 267:.\main.c      ****     SC0_SetDriveMode(PIN_DM_DIG_HIZ);
 268:.\main.c      ****     Timer_1_Start();
 269:.\main.c      ****     uint16_t start = Timer_1_ReadCounter();
 270:.\main.c      ****     uint16_t end = 0;
 271:.\main.c      ****     while(!(Timer_1_ReadStatusRegister() & Timer_1_STATUS_TC)) {
 272:.\main.c      ****         if(SC0_Read() == 0 && end == 0) {
 273:.\main.c      ****             end = Timer_1_ReadCounter();
 274:.\main.c      ****         }
 275:.\main.c      ****     }
 276:.\main.c      ****     Timer_1_Stop();
 277:.\main.c      ****     
 278:.\main.c      ****     return (start - end);
 279:.\main.c      **** }
 280:.\main.c      **** #endif
 281:.\main.c      **** 
 282:.\main.c      **** int _write(int file, char *ptr, int len)
 283:.\main.c      **** {
 727              		.loc 1 283 0
 728              		.cfi_startproc
 729              		@ args = 0, pretend = 0, frame = 0
 730              		@ frame_needed = 0, uses_anonymous_args = 0
 731              	.LVL87:
 732 0000 70B5     		push	{r4, r5, r6, lr}
 733              		.cfi_def_cfa_offset 16
 734              		.cfi_offset 4, -16
 735              		.cfi_offset 5, -12
 736              		.cfi_offset 6, -8
 737              		.cfi_offset 14, -4
 738 0002 1646     		mov	r6, r2
 739              	.LVL88:
 284:.\main.c      ****     (void) file;
 285:.\main.c      **** 	int n;
 286:.\main.c      **** 	for(n = 0; n < len; n++) {
 740              		.loc 1 286 0
 741 0004 0024     		movs	r4, #0
 742 0006 05E0     		b	.L50
 743              	.LVL89:
 744              	.L51:
 287:.\main.c      **** 		UART_PutChar(*ptr++);
 745              		.loc 1 287 0 discriminator 3
 746 0008 4D1C     		adds	r5, r1, #1
 747              	.LVL90:
 748 000a 0878     		ldrb	r0, [r1]	@ zero_extendqisi2
 749 000c FFF7FEFF 		bl	UART_PutChar
 750              	.LVL91:
 286:.\main.c      **** 		UART_PutChar(*ptr++);
 751              		.loc 1 286 0 discriminator 3
 752 0010 0134     		adds	r4, r4, #1
 753              	.LVL92:
 754              		.loc 1 287 0 discriminator 3
 755 0012 2946     		mov	r1, r5
 756              	.LVL93:
 757              	.L50:
 286:.\main.c      **** 		UART_PutChar(*ptr++);
 758              		.loc 1 286 0 discriminator 1
 759 0014 B442     		cmp	r4, r6
 760 0016 F7DB     		blt	.L51
ARM GAS  C:\Users\suminh\AppData\Local\Temp\cctdkdX8.s 			page 20


 288:.\main.c      **** 	}
 289:.\main.c      **** 	return len;
 290:.\main.c      **** }
 761              		.loc 1 290 0
 762 0018 3046     		mov	r0, r6
 763 001a 70BD     		pop	{r4, r5, r6, pc}
 764              		.cfi_endproc
 765              	.LFE72:
 766              		.size	_write, .-_write
 767              		.comm	digital_sensor_value,8,4
 768              		.comm	sensors,8,4
 769              		.section	.rodata.str1.4,"aMS",%progbits,1
 770              		.align	2
 771              	.LC0:
 772 0000 25642025 		.ascii	"%d %d %d %d \011\000"
 772      64202564 
 772      20256420 
 772      0900
 773 000e 0000     		.space	2
 774              	.LC1:
 775 0010 53746172 		.ascii	"Start\015\000"
 775      740D00
 776 0017 00       		.text
 777              	.Letext0:
 778              		.file 2 "c:\\program files (x86)\\cypress\\psoc creator\\3.3\\psoc creator\\import\\gnu\\arm\\4.9.
 779              		.file 3 "c:\\program files (x86)\\cypress\\psoc creator\\3.3\\psoc creator\\import\\gnu\\arm\\4.9.
 780              		.file 4 "Generated_Source\\PSoC5/cytypes.h"
 781              		.file 5 "Generated_Source\\PSoC5/core_cm3.h"
 782              		.file 6 "Generated_Source\\PSoC5/Timer_RL.h"
 783              		.file 7 "Generated_Source\\PSoC5/Timer_RR.h"
 784              		.file 8 "Generated_Source\\PSoC5/Timer_LL.h"
 785              		.file 9 "Generated_Source\\PSoC5/Timer_LR.h"
 786              		.file 10 "Generated_Source\\PSoC5/RL.h"
 787              		.file 11 "Generated_Source\\PSoC5/RR.h"
 788              		.file 12 "Generated_Source\\PSoC5/LL.h"
 789              		.file 13 "Generated_Source\\PSoC5/LR.h"
 790              		.file 14 "Generated_Source\\PSoC5/CyLib.h"
 791              		.file 15 "Generated_Source\\PSoC5/PWM.h"
 792              		.file 16 "Generated_Source\\PSoC5/MotorDirLeft.h"
 793              		.file 17 "Generated_Source\\PSoC5/MotorDirRight.h"
 794              		.file 18 "Generated_Source\\PSoC5/sensor_isr.h"
 795              		.file 19 "Generated_Source\\PSoC5/UART.h"
 796              		.file 20 "<built-in>"
 797              		.file 21 "Generated_Source\\PSoC5/IR_led.h"
 798              		.file 22 "Generated_Source\\PSoC5/I2C_2.h"
 799              		.file 23 "c:\\program files (x86)\\cypress\\psoc creator\\3.3\\psoc creator\\import\\gnu\\arm\\4.9