ARM GAS  C:\Users\suminh\AppData\Local\Temp\ccXHsAH7.s 			page 1


   1              		.syntax unified
   2              		.cpu cortex-m3
   3              		.fpu softvfp
   4              		.eabi_attribute 20, 1
   5              		.eabi_attribute 21, 1
   6              		.eabi_attribute 23, 3
   7              		.eabi_attribute 24, 1
   8              		.eabi_attribute 25, 1
   9              		.eabi_attribute 26, 1
  10              		.eabi_attribute 30, 1
  11              		.eabi_attribute 34, 1
  12              		.eabi_attribute 18, 4
  13              		.thumb
  14              		.file	"main.c"
  15              		.text
  16              	.Ltext0:
  17              		.cfi_sections	.debug_frame
  18              		.section	.text.sensor_isr_handler,"ax",%progbits
  19              		.align	2
  20              		.global	sensor_isr_handler
  21              		.thumb
  22              		.thumb_func
  23              		.type	sensor_isr_handler, %function
  24              	sensor_isr_handler:
  25              	.LFB64:
  26              		.file 1 ".\\main.c"
   1:.\main.c      **** /* ========================================
   2:.\main.c      ****  *
   3:.\main.c      ****  * Copyright YOUR COMPANY, THE YEAR
   4:.\main.c      ****  * All Rights Reserved
   5:.\main.c      ****  * UNPUBLISHED, LICENSED SOFTWARE.
   6:.\main.c      ****  *
   7:.\main.c      ****  * CONFIDENTIAL AND PROPRIETARY INFORMATION
   8:.\main.c      ****  * WHICH IS THE PROPERTY OF your company.
   9:.\main.c      ****  *
  10:.\main.c      ****  * ========================================
  11:.\main.c      **** */
  12:.\main.c      **** #include <project.h>
  13:.\main.c      **** #include <stdio.h>
  14:.\main.c      **** 
  15:.\main.c      **** int rread(void);
  16:.\main.c      **** void reflectance_period();
  17:.\main.c      **** void reflectance_digital();
  18:.\main.c      **** 
  19:.\main.c      **** CY_ISR_PROTO(sensor_isr_handler);
  20:.\main.c      **** 
  21:.\main.c      **** volatile struct sensors_ {
  22:.\main.c      ****     uint16_t ll;
  23:.\main.c      ****     //uint16_t lc; // not used at the moment
  24:.\main.c      ****     uint16_t lr;
  25:.\main.c      ****     uint16_t rl;
  26:.\main.c      ****     //uint16_t rc; // not used at the moment
  27:.\main.c      ****     uint16_t rr;
  28:.\main.c      **** } sensors;
  29:.\main.c      **** 
  30:.\main.c      **** volatile struct digital_sensor_value_ {         //digital value for recognizing black or white
  31:.\main.c      ****     uint16_t ll;
ARM GAS  C:\Users\suminh\AppData\Local\Temp\ccXHsAH7.s 			page 2


  32:.\main.c      ****     //uint16_t lc; // not used at the moment
  33:.\main.c      ****     uint16_t lr;
  34:.\main.c      ****     uint16_t rl;
  35:.\main.c      ****     //uint16_t rc; // not used at the moment
  36:.\main.c      ****     uint16_t rr;
  37:.\main.c      **** } digital_sensor_value;
  38:.\main.c      **** 
  39:.\main.c      **** int main()
  40:.\main.c      **** {
  41:.\main.c      ****     sensor_isr_StartEx(sensor_isr_handler);
  42:.\main.c      ****     
  43:.\main.c      ****     CyGlobalIntEnable; /* Enable global interrupts. */
  44:.\main.c      **** 
  45:.\main.c      ****     /* Place your initialization/startup code here (e.g. MyInst_Start()) */
  46:.\main.c      ****     UART_Start();
  47:.\main.c      ****     Timer_RL_Start();
  48:.\main.c      ****     Timer_RR_Start();
  49:.\main.c      ****     Timer_LL_Start();
  50:.\main.c      ****     Timer_LR_Start();
  51:.\main.c      ****     PWM_Start();
  52:.\main.c      **** 
  53:.\main.c      ****     printf("Start\r\n");
  54:.\main.c      ****     IR_led_Write(1);
  55:.\main.c      ****     for(;;)
  56:.\main.c      ****     {
  57:.\main.c      ****         /* Place your application code here. */
  58:.\main.c      **** #if 0        
  59:.\main.c      ****         int iron;
  60:.\main.c      ****         int iroff;
  61:.\main.c      ****         IR_led_Write(1);
  62:.\main.c      ****         iron = rread();
  63:.\main.c      ****         IR_led_Write(0);
  64:.\main.c      ****         iroff = rread();
  65:.\main.c      ****         printf("%d %d\r\n", iron, iroff);
  66:.\main.c      ****         CyDelay(500);
  67:.\main.c      **** #else
  68:.\main.c      ****         reflectance_period();      //print out each period of reflectance sensors
  69:.\main.c      ****         reflectance_digital();      //print out 0 or 1 according to results of reflectance period
  70:.\main.c      ****         
  71:.\main.c      ****         CyDelay(500);
  72:.\main.c      **** #endif
  73:.\main.c      ****     }
  74:.\main.c      **** }
  75:.\main.c      **** 
  76:.\main.c      **** CY_ISR(sensor_isr_handler)
  77:.\main.c      **** {
  27              		.loc 1 77 0
  28              		.cfi_startproc
  29              		@ args = 0, pretend = 0, frame = 0
  30              		@ frame_needed = 0, uses_anonymous_args = 0
  31 0000 F8B5     		push	{r3, r4, r5, r6, r7, lr}
  32              		.cfi_def_cfa_offset 24
  33              		.cfi_offset 3, -24
  34              		.cfi_offset 4, -20
  35              		.cfi_offset 5, -16
  36              		.cfi_offset 6, -12
  37              		.cfi_offset 7, -8
ARM GAS  C:\Users\suminh\AppData\Local\Temp\ccXHsAH7.s 			page 3


  38              		.cfi_offset 14, -4
  78:.\main.c      ****     uint32_t statusRL = Timer_RL_ReadStatusRegister();
  39              		.loc 1 78 0
  40 0002 FFF7FEFF 		bl	Timer_RL_ReadStatusRegister
  41              	.LVL0:
  42 0006 0446     		mov	r4, r0
  43              	.LVL1:
  79:.\main.c      ****     uint32_t statusRR = Timer_RR_ReadStatusRegister();
  44              		.loc 1 79 0
  45 0008 FFF7FEFF 		bl	Timer_RR_ReadStatusRegister
  46              	.LVL2:
  47 000c 0746     		mov	r7, r0
  48              	.LVL3:
  80:.\main.c      ****     uint32_t statusLL = Timer_LL_ReadStatusRegister();
  49              		.loc 1 80 0
  50 000e FFF7FEFF 		bl	Timer_LL_ReadStatusRegister
  51              	.LVL4:
  52 0012 0646     		mov	r6, r0
  53              	.LVL5:
  81:.\main.c      ****     uint32_t statusLR = Timer_LR_ReadStatusRegister();
  54              		.loc 1 81 0
  55 0014 FFF7FEFF 		bl	Timer_LR_ReadStatusRegister
  56              	.LVL6:
  57 0018 0546     		mov	r5, r0
  58              	.LVL7:
  82:.\main.c      **** 
  83:.\main.c      ****     if(statusRL & Timer_RL_STATUS_CAPTURE) {
  59              		.loc 1 83 0
  60 001a 14F0400F 		tst	r4, #64
  61 001e 09D0     		beq	.L2
  84:.\main.c      ****         sensors.rl = Timer_RL_ReadPeriod() - Timer_RL_ReadCapture();
  62              		.loc 1 84 0
  63 0020 FFF7FEFF 		bl	Timer_RL_ReadPeriod
  64              	.LVL8:
  65 0024 0446     		mov	r4, r0
  66              	.LVL9:
  67 0026 FFF7FEFF 		bl	Timer_RL_ReadCapture
  68              	.LVL10:
  69 002a 201A     		subs	r0, r4, r0
  70 002c 80B2     		uxth	r0, r0
  71 002e 314B     		ldr	r3, .L11
  72 0030 9880     		strh	r0, [r3, #4]	@ movhi
  73 0032 03E0     		b	.L3
  74              	.LVL11:
  75              	.L2:
  85:.\main.c      ****     }
  86:.\main.c      ****     else {
  87:.\main.c      ****         sensors.rl = Timer_RL_ReadPeriod();
  76              		.loc 1 87 0
  77 0034 FFF7FEFF 		bl	Timer_RL_ReadPeriod
  78              	.LVL12:
  79 0038 2E4B     		ldr	r3, .L11
  80 003a 9880     		strh	r0, [r3, #4]	@ movhi
  81              	.LVL13:
  82              	.L3:
  88:.\main.c      ****     }
  89:.\main.c      ****     
ARM GAS  C:\Users\suminh\AppData\Local\Temp\ccXHsAH7.s 			page 4


  90:.\main.c      ****     if(statusRR & Timer_RR_STATUS_CAPTURE) {
  83              		.loc 1 90 0
  84 003c 17F0400F 		tst	r7, #64
  85 0040 09D0     		beq	.L4
  91:.\main.c      ****         sensors.rr = Timer_RR_ReadPeriod() - Timer_RR_ReadCapture();
  86              		.loc 1 91 0
  87 0042 FFF7FEFF 		bl	Timer_RR_ReadPeriod
  88              	.LVL14:
  89 0046 0446     		mov	r4, r0
  90 0048 FFF7FEFF 		bl	Timer_RR_ReadCapture
  91              	.LVL15:
  92 004c 201A     		subs	r0, r4, r0
  93 004e 80B2     		uxth	r0, r0
  94 0050 284B     		ldr	r3, .L11
  95 0052 D880     		strh	r0, [r3, #6]	@ movhi
  96 0054 03E0     		b	.L5
  97              	.L4:
  92:.\main.c      ****     }
  93:.\main.c      ****     else {
  94:.\main.c      ****         sensors.rr = Timer_RR_ReadPeriod();
  98              		.loc 1 94 0
  99 0056 FFF7FEFF 		bl	Timer_RR_ReadPeriod
 100              	.LVL16:
 101 005a 264B     		ldr	r3, .L11
 102 005c D880     		strh	r0, [r3, #6]	@ movhi
 103              	.L5:
  95:.\main.c      ****     }
  96:.\main.c      ****     
  97:.\main.c      ****     if(statusLL & Timer_LL_STATUS_CAPTURE) {
 104              		.loc 1 97 0
 105 005e 16F0400F 		tst	r6, #64
 106 0062 09D0     		beq	.L6
  98:.\main.c      ****         sensors.ll = Timer_LL_ReadPeriod() - Timer_LL_ReadCapture();
 107              		.loc 1 98 0
 108 0064 FFF7FEFF 		bl	Timer_LL_ReadPeriod
 109              	.LVL17:
 110 0068 0446     		mov	r4, r0
 111 006a FFF7FEFF 		bl	Timer_LL_ReadCapture
 112              	.LVL18:
 113 006e 201A     		subs	r0, r4, r0
 114 0070 80B2     		uxth	r0, r0
 115 0072 204B     		ldr	r3, .L11
 116 0074 1880     		strh	r0, [r3]	@ movhi
 117 0076 03E0     		b	.L7
 118              	.L6:
  99:.\main.c      ****     }
 100:.\main.c      ****     else {
 101:.\main.c      ****         sensors.ll = Timer_LL_ReadPeriod();
 119              		.loc 1 101 0
 120 0078 FFF7FEFF 		bl	Timer_LL_ReadPeriod
 121              	.LVL19:
 122 007c 1D4B     		ldr	r3, .L11
 123 007e 1880     		strh	r0, [r3]	@ movhi
 124              	.L7:
 102:.\main.c      ****     }
 103:.\main.c      ****     
 104:.\main.c      ****     if(statusLR & Timer_LR_STATUS_CAPTURE) {
ARM GAS  C:\Users\suminh\AppData\Local\Temp\ccXHsAH7.s 			page 5


 125              		.loc 1 104 0
 126 0080 15F0400F 		tst	r5, #64
 127 0084 09D0     		beq	.L8
 105:.\main.c      ****         sensors.lr = Timer_LR_ReadPeriod() - Timer_LR_ReadCapture();
 128              		.loc 1 105 0
 129 0086 FFF7FEFF 		bl	Timer_LR_ReadPeriod
 130              	.LVL20:
 131 008a 0446     		mov	r4, r0
 132 008c FFF7FEFF 		bl	Timer_LR_ReadCapture
 133              	.LVL21:
 134 0090 201A     		subs	r0, r4, r0
 135 0092 80B2     		uxth	r0, r0
 136 0094 174B     		ldr	r3, .L11
 137 0096 5880     		strh	r0, [r3, #2]	@ movhi
 138 0098 03E0     		b	.L9
 139              	.L8:
 106:.\main.c      ****     }
 107:.\main.c      ****     else {
 108:.\main.c      ****         sensors.lr = Timer_LR_ReadPeriod();
 140              		.loc 1 108 0
 141 009a FFF7FEFF 		bl	Timer_LR_ReadPeriod
 142              	.LVL22:
 143 009e 154B     		ldr	r3, .L11
 144 00a0 5880     		strh	r0, [r3, #2]	@ movhi
 145              	.L9:
 109:.\main.c      ****     }
 110:.\main.c      ****     
 111:.\main.c      ****     RL_SetDriveMode(PIN_DM_STRONG);
 146              		.loc 1 111 0
 147 00a2 0C20     		movs	r0, #12
 148 00a4 FFF7FEFF 		bl	RL_SetDriveMode
 149              	.LVL23:
 112:.\main.c      ****     RL_Write(1);
 150              		.loc 1 112 0
 151 00a8 0120     		movs	r0, #1
 152 00aa FFF7FEFF 		bl	RL_Write
 153              	.LVL24:
 113:.\main.c      ****     RR_SetDriveMode(PIN_DM_STRONG);
 154              		.loc 1 113 0
 155 00ae 0C20     		movs	r0, #12
 156 00b0 FFF7FEFF 		bl	RR_SetDriveMode
 157              	.LVL25:
 114:.\main.c      ****     RR_Write(1);
 158              		.loc 1 114 0
 159 00b4 0120     		movs	r0, #1
 160 00b6 FFF7FEFF 		bl	RR_Write
 161              	.LVL26:
 115:.\main.c      ****     LL_SetDriveMode(PIN_DM_STRONG);
 162              		.loc 1 115 0
 163 00ba 0C20     		movs	r0, #12
 164 00bc FFF7FEFF 		bl	LL_SetDriveMode
 165              	.LVL27:
 116:.\main.c      ****     LL_Write(1);
 166              		.loc 1 116 0
 167 00c0 0120     		movs	r0, #1
 168 00c2 FFF7FEFF 		bl	LL_Write
 169              	.LVL28:
ARM GAS  C:\Users\suminh\AppData\Local\Temp\ccXHsAH7.s 			page 6


 117:.\main.c      ****     LR_SetDriveMode(PIN_DM_STRONG);
 170              		.loc 1 117 0
 171 00c6 0C20     		movs	r0, #12
 172 00c8 FFF7FEFF 		bl	LR_SetDriveMode
 173              	.LVL29:
 118:.\main.c      ****     LR_Write(1);
 174              		.loc 1 118 0
 175 00cc 0120     		movs	r0, #1
 176 00ce FFF7FEFF 		bl	LR_Write
 177              	.LVL30:
 119:.\main.c      ****     CyDelayUs(10);
 178              		.loc 1 119 0
 179 00d2 0A20     		movs	r0, #10
 180 00d4 FFF7FEFF 		bl	CyDelayUs
 181              	.LVL31:
 120:.\main.c      ****     RL_SetDriveMode(PIN_DM_DIG_HIZ);
 182              		.loc 1 120 0
 183 00d8 0220     		movs	r0, #2
 184 00da FFF7FEFF 		bl	RL_SetDriveMode
 185              	.LVL32:
 121:.\main.c      ****     RR_SetDriveMode(PIN_DM_DIG_HIZ);
 186              		.loc 1 121 0
 187 00de 0220     		movs	r0, #2
 188 00e0 FFF7FEFF 		bl	RR_SetDriveMode
 189              	.LVL33:
 122:.\main.c      ****     LL_SetDriveMode(PIN_DM_DIG_HIZ);
 190              		.loc 1 122 0
 191 00e4 0220     		movs	r0, #2
 192 00e6 FFF7FEFF 		bl	LL_SetDriveMode
 193              	.LVL34:
 123:.\main.c      ****     LR_SetDriveMode(PIN_DM_DIG_HIZ);
 194              		.loc 1 123 0
 195 00ea 0220     		movs	r0, #2
 196 00ec FFF7FEFF 		bl	LR_SetDriveMode
 197              	.LVL35:
 198 00f0 F8BD     		pop	{r3, r4, r5, r6, r7, pc}
 199              	.LVL36:
 200              	.L12:
 201 00f2 00BF     		.align	2
 202              	.L11:
 203 00f4 00000000 		.word	sensors
 204              		.cfi_endproc
 205              	.LFE64:
 206              		.size	sensor_isr_handler, .-sensor_isr_handler
 207              		.section	.text.reflectance_period,"ax",%progbits
 208              		.align	2
 209              		.global	reflectance_period
 210              		.thumb
 211              		.thumb_func
 212              		.type	reflectance_period, %function
 213              	reflectance_period:
 214              	.LFB65:
 124:.\main.c      ****         
 125:.\main.c      **** }
 126:.\main.c      **** 
 127:.\main.c      **** void reflectance_period()
 128:.\main.c      **** {
ARM GAS  C:\Users\suminh\AppData\Local\Temp\ccXHsAH7.s 			page 7


 215              		.loc 1 128 0
 216              		.cfi_startproc
 217              		@ args = 0, pretend = 0, frame = 0
 218              		@ frame_needed = 0, uses_anonymous_args = 0
 219 0000 00B5     		push	{lr}
 220              		.cfi_def_cfa_offset 4
 221              		.cfi_offset 14, -4
 222 0002 83B0     		sub	sp, sp, #12
 223              		.cfi_def_cfa_offset 16
 129:.\main.c      ****      printf("%d %d %d %d \t", sensors.ll, sensors.lr, sensors.rl, sensors.rr); 
 224              		.loc 1 129 0
 225 0004 0748     		ldr	r0, .L15
 226 0006 0188     		ldrh	r1, [r0]
 227 0008 4288     		ldrh	r2, [r0, #2]
 228 000a 8388     		ldrh	r3, [r0, #4]
 229 000c C088     		ldrh	r0, [r0, #6]
 230 000e 80B2     		uxth	r0, r0
 231 0010 0090     		str	r0, [sp]
 232 0012 0548     		ldr	r0, .L15+4
 233 0014 89B2     		uxth	r1, r1
 234 0016 92B2     		uxth	r2, r2
 235 0018 9BB2     		uxth	r3, r3
 236 001a FFF7FEFF 		bl	printf
 237              	.LVL37:
 130:.\main.c      **** }
 238              		.loc 1 130 0
 239 001e 03B0     		add	sp, sp, #12
 240              		.cfi_def_cfa_offset 4
 241              		@ sp needed
 242 0020 5DF804FB 		ldr	pc, [sp], #4
 243              	.L16:
 244              		.align	2
 245              	.L15:
 246 0024 00000000 		.word	sensors
 247 0028 00000000 		.word	.LC0
 248              		.cfi_endproc
 249              	.LFE65:
 250              		.size	reflectance_period, .-reflectance_period
 251              		.section	.text.reflectance_digital,"ax",%progbits
 252              		.align	2
 253              		.global	reflectance_digital
 254              		.thumb
 255              		.thumb_func
 256              		.type	reflectance_digital, %function
 257              	reflectance_digital:
 258              	.LFB66:
 131:.\main.c      **** 
 132:.\main.c      **** void reflectance_digital()
 133:.\main.c      **** {
 259              		.loc 1 133 0
 260              		.cfi_startproc
 261              		@ args = 0, pretend = 0, frame = 0
 262              		@ frame_needed = 0, uses_anonymous_args = 0
 263 0000 00B5     		push	{lr}
 264              		.cfi_def_cfa_offset 4
 265              		.cfi_offset 14, -4
 266 0002 83B0     		sub	sp, sp, #12
ARM GAS  C:\Users\suminh\AppData\Local\Temp\ccXHsAH7.s 			page 8


 267              		.cfi_def_cfa_offset 16
 134:.\main.c      ****     //if the results of reflectance_period function is over 10000, set digital_sensor_value to 0, w
 135:.\main.c      ****     if(sensors.ll > 10000)
 268              		.loc 1 135 0
 269 0004 234B     		ldr	r3, .L27
 270 0006 1B88     		ldrh	r3, [r3]
 271 0008 9BB2     		uxth	r3, r3
 272 000a 42F21072 		movw	r2, #10000
 273 000e 9342     		cmp	r3, r2
 274 0010 03D9     		bls	.L18
 136:.\main.c      ****         digital_sensor_value.ll  = 0;
 275              		.loc 1 136 0
 276 0012 0022     		movs	r2, #0
 277 0014 204B     		ldr	r3, .L27+4
 278 0016 1A80     		strh	r2, [r3]	@ movhi
 279 0018 02E0     		b	.L19
 280              	.L18:
 137:.\main.c      ****     else
 138:.\main.c      ****         digital_sensor_value.ll  = 1;
 281              		.loc 1 138 0
 282 001a 0122     		movs	r2, #1
 283 001c 1E4B     		ldr	r3, .L27+4
 284 001e 1A80     		strh	r2, [r3]	@ movhi
 285              	.L19:
 139:.\main.c      ****     if(sensors.lr > 10000)
 286              		.loc 1 139 0
 287 0020 1C4B     		ldr	r3, .L27
 288 0022 5B88     		ldrh	r3, [r3, #2]
 289 0024 9BB2     		uxth	r3, r3
 290 0026 42F21072 		movw	r2, #10000
 291 002a 9342     		cmp	r3, r2
 292 002c 03D9     		bls	.L20
 140:.\main.c      ****         digital_sensor_value.lr  = 0;
 293              		.loc 1 140 0
 294 002e 0022     		movs	r2, #0
 295 0030 194B     		ldr	r3, .L27+4
 296 0032 5A80     		strh	r2, [r3, #2]	@ movhi
 297 0034 02E0     		b	.L21
 298              	.L20:
 141:.\main.c      ****     else
 142:.\main.c      ****         digital_sensor_value.lr  = 1;
 299              		.loc 1 142 0
 300 0036 0122     		movs	r2, #1
 301 0038 174B     		ldr	r3, .L27+4
 302 003a 5A80     		strh	r2, [r3, #2]	@ movhi
 303              	.L21:
 143:.\main.c      ****     if(sensors.rl > 10000)
 304              		.loc 1 143 0
 305 003c 154B     		ldr	r3, .L27
 306 003e 9B88     		ldrh	r3, [r3, #4]
 307 0040 9BB2     		uxth	r3, r3
 308 0042 42F21072 		movw	r2, #10000
 309 0046 9342     		cmp	r3, r2
 310 0048 03D9     		bls	.L22
 144:.\main.c      ****         digital_sensor_value.rl  = 0;
 311              		.loc 1 144 0
 312 004a 0022     		movs	r2, #0
ARM GAS  C:\Users\suminh\AppData\Local\Temp\ccXHsAH7.s 			page 9


 313 004c 124B     		ldr	r3, .L27+4
 314 004e 9A80     		strh	r2, [r3, #4]	@ movhi
 315 0050 02E0     		b	.L23
 316              	.L22:
 145:.\main.c      ****     else
 146:.\main.c      ****         digital_sensor_value.rl  = 1;
 317              		.loc 1 146 0
 318 0052 0122     		movs	r2, #1
 319 0054 104B     		ldr	r3, .L27+4
 320 0056 9A80     		strh	r2, [r3, #4]	@ movhi
 321              	.L23:
 147:.\main.c      ****     if(sensors.rr > 10000)
 322              		.loc 1 147 0
 323 0058 0E4B     		ldr	r3, .L27
 324 005a DB88     		ldrh	r3, [r3, #6]
 325 005c 9BB2     		uxth	r3, r3
 326 005e 42F21072 		movw	r2, #10000
 327 0062 9342     		cmp	r3, r2
 328 0064 03D9     		bls	.L24
 148:.\main.c      ****         digital_sensor_value.rr  = 0;
 329              		.loc 1 148 0
 330 0066 0022     		movs	r2, #0
 331 0068 0B4B     		ldr	r3, .L27+4
 332 006a DA80     		strh	r2, [r3, #6]	@ movhi
 333 006c 02E0     		b	.L25
 334              	.L24:
 149:.\main.c      ****     else
 150:.\main.c      ****         digital_sensor_value.rr  = 1;
 335              		.loc 1 150 0
 336 006e 0122     		movs	r2, #1
 337 0070 094B     		ldr	r3, .L27+4
 338 0072 DA80     		strh	r2, [r3, #6]	@ movhi
 339              	.L25:
 151:.\main.c      ****         
 152:.\main.c      ****    //print out the results
 153:.\main.c      ****    printf("%d %d %d %d \t", digital_sensor_value.ll, digital_sensor_value.lr, digital_sensor_value.
 340              		.loc 1 153 0
 341 0074 0848     		ldr	r0, .L27+4
 342 0076 0188     		ldrh	r1, [r0]
 343 0078 4288     		ldrh	r2, [r0, #2]
 344 007a 8388     		ldrh	r3, [r0, #4]
 345 007c C088     		ldrh	r0, [r0, #6]
 346 007e 80B2     		uxth	r0, r0
 347 0080 0090     		str	r0, [sp]
 348 0082 0648     		ldr	r0, .L27+8
 349 0084 89B2     		uxth	r1, r1
 350 0086 92B2     		uxth	r2, r2
 351 0088 9BB2     		uxth	r3, r3
 352 008a FFF7FEFF 		bl	printf
 353              	.LVL38:
 154:.\main.c      **** }
 354              		.loc 1 154 0
 355 008e 03B0     		add	sp, sp, #12
 356              		.cfi_def_cfa_offset 4
 357              		@ sp needed
 358 0090 5DF804FB 		ldr	pc, [sp], #4
 359              	.L28:
ARM GAS  C:\Users\suminh\AppData\Local\Temp\ccXHsAH7.s 			page 10


 360              		.align	2
 361              	.L27:
 362 0094 00000000 		.word	sensors
 363 0098 00000000 		.word	digital_sensor_value
 364 009c 00000000 		.word	.LC0
 365              		.cfi_endproc
 366              	.LFE66:
 367              		.size	reflectance_digital, .-reflectance_digital
 368              		.section	.text.main,"ax",%progbits
 369              		.align	2
 370              		.global	main
 371              		.thumb
 372              		.thumb_func
 373              		.type	main, %function
 374              	main:
 375              	.LFB63:
  40:.\main.c      ****     sensor_isr_StartEx(sensor_isr_handler);
 376              		.loc 1 40 0
 377              		.cfi_startproc
 378              		@ Volatile: function does not return.
 379              		@ args = 0, pretend = 0, frame = 0
 380              		@ frame_needed = 0, uses_anonymous_args = 0
 381 0000 08B5     		push	{r3, lr}
 382              		.cfi_def_cfa_offset 8
 383              		.cfi_offset 3, -8
 384              		.cfi_offset 14, -4
  41:.\main.c      ****     
 385              		.loc 1 41 0
 386 0002 0F48     		ldr	r0, .L32
 387 0004 FFF7FEFF 		bl	sensor_isr_StartEx
 388              	.LVL39:
  43:.\main.c      **** 
 389              		.loc 1 43 0
 390              	@ 43 ".\main.c" 1
 391 0008 62B6     		CPSIE   i
 392              	@ 0 "" 2
  46:.\main.c      ****     Timer_RL_Start();
 393              		.loc 1 46 0
 394              		.thumb
 395 000a FFF7FEFF 		bl	UART_Start
 396              	.LVL40:
  47:.\main.c      ****     Timer_RR_Start();
 397              		.loc 1 47 0
 398 000e FFF7FEFF 		bl	Timer_RL_Start
 399              	.LVL41:
  48:.\main.c      ****     Timer_LL_Start();
 400              		.loc 1 48 0
 401 0012 FFF7FEFF 		bl	Timer_RR_Start
 402              	.LVL42:
  49:.\main.c      ****     Timer_LR_Start();
 403              		.loc 1 49 0
 404 0016 FFF7FEFF 		bl	Timer_LL_Start
 405              	.LVL43:
  50:.\main.c      ****     PWM_Start();
 406              		.loc 1 50 0
 407 001a FFF7FEFF 		bl	Timer_LR_Start
 408              	.LVL44:
ARM GAS  C:\Users\suminh\AppData\Local\Temp\ccXHsAH7.s 			page 11


  51:.\main.c      **** 
 409              		.loc 1 51 0
 410 001e FFF7FEFF 		bl	PWM_Start
 411              	.LVL45:
  53:.\main.c      ****     IR_led_Write(1);
 412              		.loc 1 53 0
 413 0022 0848     		ldr	r0, .L32+4
 414 0024 FFF7FEFF 		bl	puts
 415              	.LVL46:
  54:.\main.c      ****     for(;;)
 416              		.loc 1 54 0
 417 0028 0120     		movs	r0, #1
 418 002a FFF7FEFF 		bl	IR_led_Write
 419              	.LVL47:
 420              	.L30:
  68:.\main.c      ****         reflectance_digital();      //print out 0 or 1 according to results of reflectance period
 421              		.loc 1 68 0 discriminator 1
 422 002e FFF7FEFF 		bl	reflectance_period
 423              	.LVL48:
  69:.\main.c      ****         
 424              		.loc 1 69 0 discriminator 1
 425 0032 FFF7FEFF 		bl	reflectance_digital
 426              	.LVL49:
  71:.\main.c      **** #endif
 427              		.loc 1 71 0 discriminator 1
 428 0036 4FF4FA70 		mov	r0, #500
 429 003a FFF7FEFF 		bl	CyDelay
 430              	.LVL50:
  73:.\main.c      **** }
 431              		.loc 1 73 0 discriminator 1
 432 003e F6E7     		b	.L30
 433              	.L33:
 434              		.align	2
 435              	.L32:
 436 0040 00000000 		.word	sensor_isr_handler
 437 0044 10000000 		.word	.LC1
 438              		.cfi_endproc
 439              	.LFE63:
 440              		.size	main, .-main
 441              		.section	.text.nunchuk_init,"ax",%progbits
 442              		.align	2
 443              		.global	nunchuk_init
 444              		.thumb
 445              		.thumb_func
 446              		.type	nunchuk_init, %function
 447              	nunchuk_init:
 448              	.LFB67:
 155:.\main.c      **** 
 156:.\main.c      **** void nunchuk_init(void)
 157:.\main.c      **** {
 449              		.loc 1 157 0
 450              		.cfi_startproc
 451              		@ args = 0, pretend = 0, frame = 8
 452              		@ frame_needed = 0, uses_anonymous_args = 0
 453 0000 10B5     		push	{r4, lr}
 454              		.cfi_def_cfa_offset 8
 455              		.cfi_offset 4, -8
ARM GAS  C:\Users\suminh\AppData\Local\Temp\ccXHsAH7.s 			page 12


 456              		.cfi_offset 14, -4
 457 0002 82B0     		sub	sp, sp, #8
 458              		.cfi_def_cfa_offset 16
 158:.\main.c      ****     uint8_t buf[2] = { 0x40, 0x00 };
 459              		.loc 1 158 0
 460 0004 4023     		movs	r3, #64
 461 0006 8DF80430 		strb	r3, [sp, #4]
 462 000a 0024     		movs	r4, #0
 463 000c 8DF80540 		strb	r4, [sp, #5]
 159:.\main.c      ****     uint8_t status;
 160:.\main.c      ****     I2C_2_MasterClearStatus();
 464              		.loc 1 160 0
 465 0010 FFF7FEFF 		bl	I2C_2_MasterClearStatus
 466              	.LVL51:
 161:.\main.c      ****     CyDelay(100);
 467              		.loc 1 161 0
 468 0014 6420     		movs	r0, #100
 469 0016 FFF7FEFF 		bl	CyDelay
 470              	.LVL52:
 162:.\main.c      ****     status = I2C_2_MasterWriteBuf(0x52, buf, 2, I2C_2_MODE_COMPLETE_XFER);
 471              		.loc 1 162 0
 472 001a 5220     		movs	r0, #82
 473 001c 01A9     		add	r1, sp, #4
 474 001e 0222     		movs	r2, #2
 475 0020 2346     		mov	r3, r4
 476 0022 FFF7FEFF 		bl	I2C_2_MasterWriteBuf
 477              	.LVL53:
 478              	.L35:
 163:.\main.c      ****     while(((status = I2C_2_MasterStatus()) & I2C_2_MSTAT_WR_CMPLT) == 0);
 479              		.loc 1 163 0 discriminator 1
 480 0026 FFF7FEFF 		bl	I2C_2_MasterStatus
 481              	.LVL54:
 482 002a 10F0020F 		tst	r0, #2
 483 002e FAD0     		beq	.L35
 164:.\main.c      ****     CyDelay(100);
 484              		.loc 1 164 0
 485 0030 6420     		movs	r0, #100
 486              	.LVL55:
 487 0032 FFF7FEFF 		bl	CyDelay
 488              	.LVL56:
 165:.\main.c      **** }    
 489              		.loc 1 165 0
 490 0036 02B0     		add	sp, sp, #8
 491              		.cfi_def_cfa_offset 8
 492              		@ sp needed
 493 0038 10BD     		pop	{r4, pc}
 494              		.cfi_endproc
 495              	.LFE67:
 496              		.size	nunchuk_init, .-nunchuk_init
 497 003a 00BF     		.section	.text.nunchuk_read,"ax",%progbits
 498              		.align	2
 499              		.global	nunchuk_read
 500              		.thumb
 501              		.thumb_func
 502              		.type	nunchuk_read, %function
 503              	nunchuk_read:
 504              	.LFB68:
ARM GAS  C:\Users\suminh\AppData\Local\Temp\ccXHsAH7.s 			page 13


 166:.\main.c      **** 
 167:.\main.c      **** void nunchuk_read(void)
 168:.\main.c      **** {
 505              		.loc 1 168 0
 506              		.cfi_startproc
 507              		@ args = 0, pretend = 0, frame = 8
 508              		@ frame_needed = 0, uses_anonymous_args = 0
 509 0000 30B5     		push	{r4, r5, lr}
 510              		.cfi_def_cfa_offset 12
 511              		.cfi_offset 4, -12
 512              		.cfi_offset 5, -8
 513              		.cfi_offset 14, -4
 514 0002 83B0     		sub	sp, sp, #12
 515              		.cfi_def_cfa_offset 24
 169:.\main.c      ****     uint8_t status;
 170:.\main.c      ****     uint8_t buf[6];
 171:.\main.c      ****     // send conversion command
 172:.\main.c      ****     buf[0] = 0x00;
 516              		.loc 1 172 0
 517 0004 0025     		movs	r5, #0
 518 0006 02AC     		add	r4, sp, #8
 519 0008 04F8085D 		strb	r5, [r4, #-8]!
 173:.\main.c      ****     I2C_2_MasterClearStatus();
 520              		.loc 1 173 0
 521 000c FFF7FEFF 		bl	I2C_2_MasterClearStatus
 522              	.LVL57:
 174:.\main.c      ****     status = I2C_2_MasterWriteBuf(0x52, buf, 1, I2C_2_MODE_COMPLETE_XFER);
 523              		.loc 1 174 0
 524 0010 5220     		movs	r0, #82
 525 0012 2146     		mov	r1, r4
 526 0014 0122     		movs	r2, #1
 527 0016 2B46     		mov	r3, r5
 528 0018 FFF7FEFF 		bl	I2C_2_MasterWriteBuf
 529              	.LVL58:
 530              	.L38:
 175:.\main.c      ****     while(((status = I2C_2_MasterStatus()) & I2C_2_MSTAT_WR_CMPLT) == 0);
 531              		.loc 1 175 0 discriminator 1
 532 001c FFF7FEFF 		bl	I2C_2_MasterStatus
 533              	.LVL59:
 534 0020 10F0020F 		tst	r0, #2
 535 0024 FAD0     		beq	.L38
 176:.\main.c      ****     // wait for conversion to complete
 177:.\main.c      ****     CyDelay(50); // todo: check if shorter wait would work
 536              		.loc 1 177 0
 537 0026 3220     		movs	r0, #50
 538              	.LVL60:
 539 0028 FFF7FEFF 		bl	CyDelay
 540              	.LVL61:
 178:.\main.c      ****     // read values
 179:.\main.c      ****     I2C_2_MasterClearStatus();
 541              		.loc 1 179 0
 542 002c FFF7FEFF 		bl	I2C_2_MasterClearStatus
 543              	.LVL62:
 180:.\main.c      ****     status = I2C_2_MasterReadBuf(0x52, buf, 6, I2C_2_MODE_COMPLETE_XFER);
 544              		.loc 1 180 0
 545 0030 5220     		movs	r0, #82
 546 0032 6946     		mov	r1, sp
ARM GAS  C:\Users\suminh\AppData\Local\Temp\ccXHsAH7.s 			page 14


 547 0034 0622     		movs	r2, #6
 548 0036 0023     		movs	r3, #0
 549 0038 FFF7FEFF 		bl	I2C_2_MasterReadBuf
 550              	.LVL63:
 551              	.L39:
 181:.\main.c      ****     while(((status = I2C_2_MasterStatus()) & I2C_2_MSTAT_RD_CMPLT) == 0);
 552              		.loc 1 181 0 discriminator 1
 553 003c FFF7FEFF 		bl	I2C_2_MasterStatus
 554              	.LVL64:
 555 0040 10F0010F 		tst	r0, #1
 556 0044 FAD0     		beq	.L39
 557 0046 0023     		movs	r3, #0
 558 0048 00E0     		b	.L40
 559              	.LVL65:
 560              	.L41:
 182:.\main.c      ****     
 183:.\main.c      ****     int i;
 184:.\main.c      ****     // decrypt data
 185:.\main.c      ****     for(i = 0; i < 6; i++) buf[i] = (buf[i] ^ 0x17) + 0x17;
 561              		.loc 1 185 0 discriminator 3
 562 004a 0133     		adds	r3, r3, #1
 563              	.LVL66:
 564              	.L40:
 565              		.loc 1 185 0 is_stmt 0 discriminator 1
 566 004c 052B     		cmp	r3, #5
 567 004e FCDD     		ble	.L41
 186:.\main.c      ****     // accelerometer values
 187:.\main.c      ****     /*
 188:.\main.c      ****     int x,y,z;
 189:.\main.c      ****     x = (buf[2] << 2) | ((buf[5] >> 2) & 0x03);
 190:.\main.c      ****     y = (buf[3] << 2) | ((buf[5] >> 4) & 0x03);
 191:.\main.c      ****     z = (buf[4] << 2) | ((buf[5] >> 6) & 0x03);
 192:.\main.c      ****     // buf[0] = JoyX, buf[1] = JoyY
 193:.\main.c      ****     //printf("%3d %3d, %d, %d, %4d %4d %4d\r\n", buf[0], buf[1], (buf[5] >> 1) & 1, buf[5] & 1, x, 
 194:.\main.c      ****     */
 195:.\main.c      **** }    
 568              		.loc 1 195 0 is_stmt 1
 569 0050 03B0     		add	sp, sp, #12
 570              		.cfi_def_cfa_offset 12
 571              		@ sp needed
 572 0052 30BD     		pop	{r4, r5, pc}
 573              		.cfi_endproc
 574              	.LFE68:
 575              		.size	nunchuk_read, .-nunchuk_read
 576              		.section	.text._write,"ax",%progbits
 577              		.align	2
 578              		.global	_write
 579              		.thumb
 580              		.thumb_func
 581              		.type	_write, %function
 582              	_write:
 583              	.LFB69:
 196:.\main.c      **** 
 197:.\main.c      **** #if 0
 198:.\main.c      **** int rread(void)
 199:.\main.c      **** {
 200:.\main.c      ****     SC0_SetDriveMode(PIN_DM_STRONG);
ARM GAS  C:\Users\suminh\AppData\Local\Temp\ccXHsAH7.s 			page 15


 201:.\main.c      ****     SC0_Write(1);
 202:.\main.c      ****     CyDelayUs(10);
 203:.\main.c      ****     SC0_SetDriveMode(PIN_DM_DIG_HIZ);
 204:.\main.c      ****     Timer_1_Start();
 205:.\main.c      ****     uint16_t start = Timer_1_ReadCounter();
 206:.\main.c      ****     uint16_t end = 0;
 207:.\main.c      ****     while(!(Timer_1_ReadStatusRegister() & Timer_1_STATUS_TC)) {
 208:.\main.c      ****         if(SC0_Read() == 0 && end == 0) {
 209:.\main.c      ****             end = Timer_1_ReadCounter();
 210:.\main.c      ****         }
 211:.\main.c      ****     }
 212:.\main.c      ****     Timer_1_Stop();
 213:.\main.c      ****     
 214:.\main.c      ****     return (start - end);
 215:.\main.c      **** }
 216:.\main.c      **** #endif
 217:.\main.c      **** 
 218:.\main.c      **** int _write(int file, char *ptr, int len)
 219:.\main.c      **** {
 584              		.loc 1 219 0
 585              		.cfi_startproc
 586              		@ args = 0, pretend = 0, frame = 0
 587              		@ frame_needed = 0, uses_anonymous_args = 0
 588              	.LVL67:
 589 0000 70B5     		push	{r4, r5, r6, lr}
 590              		.cfi_def_cfa_offset 16
 591              		.cfi_offset 4, -16
 592              		.cfi_offset 5, -12
 593              		.cfi_offset 6, -8
 594              		.cfi_offset 14, -4
 595 0002 1646     		mov	r6, r2
 596              	.LVL68:
 220:.\main.c      ****     (void) file;
 221:.\main.c      **** 	int n;
 222:.\main.c      **** 	for(n = 0; n < len; n++) {
 597              		.loc 1 222 0
 598 0004 0024     		movs	r4, #0
 599 0006 05E0     		b	.L44
 600              	.LVL69:
 601              	.L45:
 223:.\main.c      **** 		UART_PutChar(*ptr++);
 602              		.loc 1 223 0 discriminator 3
 603 0008 4D1C     		adds	r5, r1, #1
 604              	.LVL70:
 605 000a 0878     		ldrb	r0, [r1]	@ zero_extendqisi2
 606 000c FFF7FEFF 		bl	UART_PutChar
 607              	.LVL71:
 222:.\main.c      **** 		UART_PutChar(*ptr++);
 608              		.loc 1 222 0 discriminator 3
 609 0010 0134     		adds	r4, r4, #1
 610              	.LVL72:
 611              		.loc 1 223 0 discriminator 3
 612 0012 2946     		mov	r1, r5
 613              	.LVL73:
 614              	.L44:
 222:.\main.c      **** 		UART_PutChar(*ptr++);
 615              		.loc 1 222 0 discriminator 1
ARM GAS  C:\Users\suminh\AppData\Local\Temp\ccXHsAH7.s 			page 16


 616 0014 B442     		cmp	r4, r6
 617 0016 F7DB     		blt	.L45
 224:.\main.c      **** 	}
 225:.\main.c      **** 	return len;
 226:.\main.c      **** }
 618              		.loc 1 226 0
 619 0018 3046     		mov	r0, r6
 620 001a 70BD     		pop	{r4, r5, r6, pc}
 621              		.cfi_endproc
 622              	.LFE69:
 623              		.size	_write, .-_write
 624              		.comm	digital_sensor_value,8,4
 625              		.comm	sensors,8,4
 626              		.section	.rodata.str1.4,"aMS",%progbits,1
 627              		.align	2
 628              	.LC0:
 629 0000 25642025 		.ascii	"%d %d %d %d \011\000"
 629      64202564 
 629      20256420 
 629      0900
 630 000e 0000     		.space	2
 631              	.LC1:
 632 0010 53746172 		.ascii	"Start\015\000"
 632      740D00
 633 0017 00       		.text
 634              	.Letext0:
 635              		.file 2 "c:\\program files (x86)\\cypress\\psoc creator\\3.3\\psoc creator\\import\\gnu\\arm\\4.9.
 636              		.file 3 "c:\\program files (x86)\\cypress\\psoc creator\\3.3\\psoc creator\\import\\gnu\\arm\\4.9.
 637              		.file 4 "Generated_Source\\PSoC5/cytypes.h"
 638              		.file 5 "Generated_Source\\PSoC5/core_cm3.h"
 639              		.file 6 "Generated_Source\\PSoC5/Timer_RL.h"
 640              		.file 7 "Generated_Source\\PSoC5/Timer_RR.h"
 641              		.file 8 "Generated_Source\\PSoC5/Timer_LL.h"
 642              		.file 9 "Generated_Source\\PSoC5/Timer_LR.h"
 643              		.file 10 "Generated_Source\\PSoC5/RL.h"
 644              		.file 11 "Generated_Source\\PSoC5/RR.h"
 645              		.file 12 "Generated_Source\\PSoC5/LL.h"
 646              		.file 13 "Generated_Source\\PSoC5/LR.h"
 647              		.file 14 "Generated_Source\\PSoC5/CyLib.h"
 648              		.file 15 "Generated_Source\\PSoC5/sensor_isr.h"
 649              		.file 16 "Generated_Source\\PSoC5/UART.h"
 650              		.file 17 "Generated_Source\\PSoC5/PWM.h"
 651              		.file 18 "<built-in>"
 652              		.file 19 "Generated_Source\\PSoC5/IR_led.h"
 653              		.file 20 "Generated_Source\\PSoC5/I2C_2.h"
 654              		.file 21 "c:\\program files (x86)\\cypress\\psoc creator\\3.3\\psoc creator\\import\\gnu\\arm\\4.9