ARM GAS  C:\Users\dufma\AppData\Local\Temp\ccKMFVo1.s 			page 1


   1              		.syntax unified
   2              		.cpu cortex-m3
   3              		.fpu softvfp
   4              		.eabi_attribute 20, 1
   5              		.eabi_attribute 21, 1
   6              		.eabi_attribute 23, 3
   7              		.eabi_attribute 24, 1
   8              		.eabi_attribute 25, 1
   9              		.eabi_attribute 26, 1
  10              		.eabi_attribute 30, 1
  11              		.eabi_attribute 34, 1
  12              		.eabi_attribute 18, 4
  13              		.thumb
  14              		.file	"main.c"
  15              		.text
  16              	.Ltext0:
  17              		.cfi_sections	.debug_frame
  18              		.section	.text.main,"ax",%progbits
  19              		.align	2
  20              		.global	main
  21              		.thumb
  22              		.thumb_func
  23              		.type	main, %function
  24              	main:
  25              	.LFB63:
  26              		.file 1 ".\\main.c"
   1:.\main.c      **** /* ========================================
   2:.\main.c      ****  *
   3:.\main.c      ****  * Copyright YOUR COMPANY, THE YEAR
   4:.\main.c      ****  * All Rights Reserved
   5:.\main.c      ****  * UNPUBLISHED, LICENSED SOFTWARE.
   6:.\main.c      ****  *
   7:.\main.c      ****  * CONFIDENTIAL AND PROPRIETARY INFORMATION
   8:.\main.c      ****  * WHICH IS THE PROPERTY OF your company.
   9:.\main.c      ****  *
  10:.\main.c      ****  * ========================================
  11:.\main.c      **** */
  12:.\main.c      **** #include <project.h>
  13:.\main.c      **** #include <stdio.h>
  14:.\main.c      **** #include "Motor.h"
  15:.\main.c      **** #include "Ultra.h"
  16:.\main.c      **** #include "nunchuk.h"
  17:.\main.c      **** #include "Reflectance.h"
  18:.\main.c      **** 
  19:.\main.c      **** int rread(void);
  20:.\main.c      **** 
  21:.\main.c      **** int main()
  22:.\main.c      **** {
  27              		.loc 1 22 0
  28              		.cfi_startproc
  29              		@ args = 0, pretend = 0, frame = 0
  30              		@ frame_needed = 0, uses_anonymous_args = 0
  31 0000 10B5     		push	{r4, lr}
  32              		.cfi_def_cfa_offset 8
  33              		.cfi_offset 4, -8
  34              		.cfi_offset 14, -4
  23:.\main.c      ****     CyGlobalIntEnable; 
ARM GAS  C:\Users\dufma\AppData\Local\Temp\ccKMFVo1.s 			page 2


  35              		.loc 1 23 0
  36              	@ 23 ".\main.c" 1
  37 0002 62B6     		CPSIE   i
  38              	@ 0 "" 2
  24:.\main.c      ****     UART_Start();
  39              		.loc 1 24 0
  40              		.thumb
  41 0004 FFF7FEFF 		bl	UART_Start
  42              	.LVL0:
  25:.\main.c      ****     printf("Start\r\n");
  43              		.loc 1 25 0
  44 0008 3E48     		ldr	r0, .L8
  45 000a FFF7FEFF 		bl	puts
  46              	.LVL1:
  26:.\main.c      ****     
  27:.\main.c      ****     sensor_isr_StartEx(sensor_isr_handler);    UART_Start();
  47              		.loc 1 27 0
  48 000e 3E48     		ldr	r0, .L8+4
  49 0010 FFF7FEFF 		bl	sensor_isr_StartEx
  50              	.LVL2:
  51 0014 FFF7FEFF 		bl	UART_Start
  52              	.LVL3:
  28:.\main.c      ****     Refelctance_Start();
  53              		.loc 1 28 0
  54 0018 FFF7FEFF 		bl	Refelctance_Start
  55              	.LVL4:
  29:.\main.c      ****     
  30:.\main.c      ****     nunchuk_start();
  56              		.loc 1 30 0
  57 001c FFF7FEFF 		bl	nunchuk_start
  58              	.LVL5:
  31:.\main.c      ****     nunchuk_init();
  59              		.loc 1 31 0
  60 0020 FFF7FEFF 		bl	nunchuk_init
  61              	.LVL6:
  62              	.L2:
  63              	.LBB2:
  32:.\main.c      ****     
  33:.\main.c      ****     for(;;)
  34:.\main.c      ****     {
  35:.\main.c      ****         nunchuk_read();
  64              		.loc 1 35 0
  65 0024 FFF7FEFF 		bl	nunchuk_read
  66              	.LVL7:
  36:.\main.c      ****         printf("%d %d\r\n",getJoyX(),getJoyY());
  67              		.loc 1 36 0
  68 0028 FFF7FEFF 		bl	getJoyX
  69              	.LVL8:
  70 002c 0446     		mov	r4, r0
  71 002e FFF7FEFF 		bl	getJoyY
  72              	.LVL9:
  73 0032 0246     		mov	r2, r0
  74 0034 3548     		ldr	r0, .L8+8
  75 0036 2146     		mov	r1, r4
  76 0038 FFF7FEFF 		bl	printf
  77              	.LVL10:
  37:.\main.c      ****         
ARM GAS  C:\Users\dufma\AppData\Local\Temp\ccKMFVo1.s 			page 3


  38:.\main.c      ****         int MidX = 128;
  39:.\main.c      ****         int MidY = 123;
  40:.\main.c      ****         
  41:.\main.c      ****         if(getJoyX() < 130 && getJoyX() > 125 && getJoyY() < 125 && getJoyY() > 120)
  78              		.loc 1 41 0
  79 003c FFF7FEFF 		bl	getJoyX
  80              	.LVL11:
  81 0040 8128     		cmp	r0, #129
  82 0042 0EDC     		bgt	.L3
  83              		.loc 1 41 0 is_stmt 0 discriminator 1
  84 0044 FFF7FEFF 		bl	getJoyX
  85              	.LVL12:
  86 0048 7D28     		cmp	r0, #125
  87 004a 0ADD     		ble	.L3
  88              		.loc 1 41 0 discriminator 2
  89 004c FFF7FEFF 		bl	getJoyY
  90              	.LVL13:
  91 0050 7C28     		cmp	r0, #124
  92 0052 06DC     		bgt	.L3
  93              		.loc 1 41 0 discriminator 3
  94 0054 FFF7FEFF 		bl	getJoyY
  95              	.LVL14:
  96 0058 7828     		cmp	r0, #120
  97 005a 02DD     		ble	.L3
  42:.\main.c      ****         {
  43:.\main.c      ****             motor_Stop();
  98              		.loc 1 43 0 is_stmt 1
  99 005c FFF7FEFF 		bl	motor_Stop
 100              	.LVL15:
 101 0060 E0E7     		b	.L2
 102              	.L3:
  44:.\main.c      ****         }
  45:.\main.c      ****         else if( getJoyX() < 140 && getJoyX() > 130 && getJoyY() > 125)
 103              		.loc 1 45 0
 104 0062 FFF7FEFF 		bl	getJoyX
 105              	.LVL16:
 106 0066 8B28     		cmp	r0, #139
 107 0068 15DC     		bgt	.L5
 108              		.loc 1 45 0 is_stmt 0 discriminator 1
 109 006a FFF7FEFF 		bl	getJoyX
 110              	.LVL17:
 111 006e 8228     		cmp	r0, #130
 112 0070 11DD     		ble	.L5
 113              		.loc 1 45 0 discriminator 2
 114 0072 FFF7FEFF 		bl	getJoyY
 115              	.LVL18:
 116 0076 7D28     		cmp	r0, #125
 117 0078 0DDD     		ble	.L5
  46:.\main.c      ****         {
  47:.\main.c      ****             motor_Start();
 118              		.loc 1 47 0 is_stmt 1
 119 007a FFF7FEFF 		bl	motor_Start
 120              	.LVL19:
  48:.\main.c      ****             motor_forward((getJoyY()-MidY)/2,2000);
 121              		.loc 1 48 0
 122 007e FFF7FEFF 		bl	getJoyY
 123              	.LVL20:
ARM GAS  C:\Users\dufma\AppData\Local\Temp\ccKMFVo1.s 			page 4


 124 0082 7B38     		subs	r0, r0, #123
 125 0084 00EBD070 		add	r0, r0, r0, lsr #31
 126 0088 C0F34700 		ubfx	r0, r0, #1, #8
 127 008c 4FF4FA61 		mov	r1, #2000
 128 0090 FFF7FEFF 		bl	motor_forward
 129              	.LVL21:
 130 0094 C6E7     		b	.L2
 131              	.L5:
  49:.\main.c      ****         }
  50:.\main.c      ****         else if(getJoyX()<MidX && getJoyY() > MidY)
 132              		.loc 1 50 0
 133 0096 FFF7FEFF 		bl	getJoyX
 134              	.LVL22:
 135 009a 7F28     		cmp	r0, #127
 136 009c 16DC     		bgt	.L6
 137              		.loc 1 50 0 is_stmt 0 discriminator 1
 138 009e FFF7FEFF 		bl	getJoyY
 139              	.LVL23:
 140 00a2 7B28     		cmp	r0, #123
 141 00a4 12DD     		ble	.L6
  51:.\main.c      ****         {
  52:.\main.c      ****             motor_Start();
 142              		.loc 1 52 0 is_stmt 1
 143 00a6 FFF7FEFF 		bl	motor_Start
 144              	.LVL24:
  53:.\main.c      ****             motor_turn((getJoyY()-MidY)/2,(MidX-getJoyX()),2000);
 145              		.loc 1 53 0
 146 00aa FFF7FEFF 		bl	getJoyY
 147              	.LVL25:
 148 00ae 7B38     		subs	r0, r0, #123
 149 00b0 00EBD070 		add	r0, r0, r0, lsr #31
 150 00b4 4410     		asrs	r4, r0, #1
 151 00b6 FFF7FEFF 		bl	getJoyX
 152              	.LVL26:
 153 00ba C0F18001 		rsb	r1, r0, #128
 154 00be E0B2     		uxtb	r0, r4
 155 00c0 C9B2     		uxtb	r1, r1
 156 00c2 4FF4FA62 		mov	r2, #2000
 157 00c6 FFF7FEFF 		bl	motor_turn
 158              	.LVL27:
 159 00ca ABE7     		b	.L2
 160              	.L6:
  54:.\main.c      ****         }
  55:.\main.c      ****         else if(getJoyX()>MidX && getJoyY() > MidY)
 161              		.loc 1 55 0
 162 00cc FFF7FEFF 		bl	getJoyX
 163              	.LVL28:
 164 00d0 8028     		cmp	r0, #128
 165 00d2 A7DD     		ble	.L2
 166              		.loc 1 55 0 is_stmt 0 discriminator 1
 167 00d4 FFF7FEFF 		bl	getJoyY
 168              	.LVL29:
 169 00d8 7B28     		cmp	r0, #123
 170 00da A3DD     		ble	.L2
  56:.\main.c      ****         {
  57:.\main.c      ****             motor_Start();
 171              		.loc 1 57 0 is_stmt 1
ARM GAS  C:\Users\dufma\AppData\Local\Temp\ccKMFVo1.s 			page 5


 172 00dc FFF7FEFF 		bl	motor_Start
 173              	.LVL30:
  58:.\main.c      ****             motor_turn((getJoyX()-MidX),(getJoyY()-MidY)/2,2000);
 174              		.loc 1 58 0
 175 00e0 FFF7FEFF 		bl	getJoyX
 176              	.LVL31:
 177 00e4 0446     		mov	r4, r0
 178 00e6 FFF7FEFF 		bl	getJoyY
 179              	.LVL32:
 180 00ea 7B38     		subs	r0, r0, #123
 181 00ec 00EBD071 		add	r1, r0, r0, lsr #31
 182 00f0 A4F18000 		sub	r0, r4, #128
 183 00f4 C0B2     		uxtb	r0, r0
 184 00f6 C1F34701 		ubfx	r1, r1, #1, #8
 185 00fa 4FF4FA62 		mov	r2, #2000
 186 00fe FFF7FEFF 		bl	motor_turn
 187              	.LVL33:
 188 0102 8FE7     		b	.L2
 189              	.L9:
 190              		.align	2
 191              	.L8:
 192 0104 00000000 		.word	.LC0
 193 0108 00000000 		.word	sensor_isr_handler
 194 010c 08000000 		.word	.LC1
 195              	.LBE2:
 196              		.cfi_endproc
 197              	.LFE63:
 198              		.size	main, .-main
 199              		.section	.text._write,"ax",%progbits
 200              		.align	2
 201              		.global	_write
 202              		.thumb
 203              		.thumb_func
 204              		.type	_write, %function
 205              	_write:
 206              	.LFB64:
  59:.\main.c      ****         }
  60:.\main.c      ****        
  61:.\main.c      ****         /* line tracing
  62:.\main.c      ****         reflectance_period();
  63:.\main.c      ****         ref_calibration(10000);
  64:.\main.c      ****         CyDelay(500);
  65:.\main.c      ****         //reflectance_digital();      //print out 0 or 1 according to results of reflectance period
  66:.\main.c      ****         printf("%d %d %d %d\r\n",getDLL(),getDLR(),getDRL(),getDRR());   
  67:.\main.c      ****       
  68:.\main.c      ****         
  69:.\main.c      ****         if(getDLR()==0 && getDRL()==0)
  70:.\main.c      ****         {
  71:.\main.c      ****             motor_Start();
  72:.\main.c      ****             motor_forward(50,2000);   
  73:.\main.c      ****         }
  74:.\main.c      ****         else if(getDLR()==1 && getDRL()==0)
  75:.\main.c      ****         {
  76:.\main.c      ****             motor_Start();
  77:.\main.c      ****             motor_turn(50,20,2000);   
  78:.\main.c      ****         }
  79:.\main.c      ****         else if(getDLR()==0 && getDRL()==1)
ARM GAS  C:\Users\dufma\AppData\Local\Temp\ccKMFVo1.s 			page 6


  80:.\main.c      ****         {
  81:.\main.c      ****             motor_Start();
  82:.\main.c      ****             motor_turn(20,50,2000);   
  83:.\main.c      ****         }
  84:.\main.c      ****         else
  85:.\main.c      ****             motor_Stop();
  86:.\main.c      ****          
  87:.\main.c      ****         */
  88:.\main.c      ****     }
  89:.\main.c      ****     
  90:.\main.c      ****     /* //reflectance//
  91:.\main.c      ****     ----------------------------------------------------
  92:.\main.c      ****     sensor_isr_StartEx(sensor_isr_handler);
  93:.\main.c      ****     
  94:.\main.c      ****     Refelctance_Start();
  95:.\main.c      **** 
  96:.\main.c      ****     IR_led_Write(1);
  97:.\main.c      ****     for(;;)
  98:.\main.c      ****     {
  99:.\main.c      ****         reflectance_period();      //print out each period of reflectance sensors
 100:.\main.c      ****         reflectance_digital();      //print out 0 or 1 according to results of reflectance period
 101:.\main.c      ****         
 102:.\main.c      ****         CyDelay(500);
 103:.\main.c      ****     }
 104:.\main.c      ****     ----------------------------------------------------*/
 105:.\main.c      ****     
 106:.\main.c      ****      /* //ultra//
 107:.\main.c      ****     ----------------------------------------------------
 108:.\main.c      ****     ultra_isr_StartEx(ultra_isr_handler);   // Ultra Sonic Interrupt
 109:.\main.c      ****     Ultra_Start();                          // Ultra Sonic Start function
 110:.\main.c      ****    
 111:.\main.c      ****     for(;;)
 112:.\main.c      ****     {       
 113:.\main.c      ****         CyDelay(100); 
 114:.\main.c      ****         Trig_Write(1);           // Trigger High
 115:.\main.c      ****         CyDelayUs(10);              // 10 micro seconds for trigger input signals
 116:.\main.c      ****         Trig_Write(0);           // Trigger Low
 117:.\main.c      ****     }
 118:.\main.c      ****     ----------------------------------------------------*/
 119:.\main.c      ****     
 120:.\main.c      ****      /* //motor//
 121:.\main.c      ****     ----------------------------------------------------
 122:.\main.c      ****     motor_Start();              // motor start
 123:.\main.c      **** 
 124:.\main.c      ****     motor_forward(50,2000);     // moving forward
 125:.\main.c      ****     motor_turn(20,50,2000);     // turn
 126:.\main.c      ****     motor_turn(50,20,2000);     // turn
 127:.\main.c      ****     motor_backward(50,2000);    // movinb backward
 128:.\main.c      ****        
 129:.\main.c      ****     motor_Stop();               // motor stop
 130:.\main.c      ****     
 131:.\main.c      ****     for(;;)
 132:.\main.c      ****     {
 133:.\main.c      **** 
 134:.\main.c      ****     }
 135:.\main.c      ****     ----------------------------------------------------*/
 136:.\main.c      ****     
ARM GAS  C:\Users\dufma\AppData\Local\Temp\ccKMFVo1.s 			page 7


 137:.\main.c      ****     
 138:.\main.c      ****     /*  //nunchuk//
 139:.\main.c      ****     ----------------------------------------------------
 140:.\main.c      ****     nunchuk_start();
 141:.\main.c      ****     nunchuk_init();
 142:.\main.c      ****     
 143:.\main.c      ****     for(;;)
 144:.\main.c      ****     {    
 145:.\main.c      ****         nunchuk_read();
 146:.\main.c      ****     }
 147:.\main.c      ****     ----------------------------------------------------*/
 148:.\main.c      ****     
 149:.\main.c      ****    
 150:.\main.c      ****     
 151:.\main.c      ****    
 152:.\main.c      **** }
 153:.\main.c      **** 
 154:.\main.c      **** 
 155:.\main.c      **** #if 0
 156:.\main.c      **** int rread(void)
 157:.\main.c      **** {
 158:.\main.c      ****     SC0_SetDriveMode(PIN_DM_STRONG);
 159:.\main.c      ****     SC0_Write(1);
 160:.\main.c      ****     CyDelayUs(10);
 161:.\main.c      ****     SC0_SetDriveMode(PIN_DM_DIG_HIZ);
 162:.\main.c      ****     Timer_1_Start();
 163:.\main.c      ****     uint16_t start = Timer_1_ReadCounter();
 164:.\main.c      ****     uint16_t end = 0;
 165:.\main.c      ****     while(!(Timer_1_ReadStatusRegister() & Timer_1_STATUS_TC)) {
 166:.\main.c      ****         if(SC0_Read() == 0 && end == 0) {
 167:.\main.c      ****             end = Timer_1_ReadCounter();
 168:.\main.c      ****         }
 169:.\main.c      ****     }
 170:.\main.c      ****     Timer_1_Stop();
 171:.\main.c      ****     
 172:.\main.c      ****     return (start - end);
 173:.\main.c      **** }
 174:.\main.c      **** #endif
 175:.\main.c      **** 
 176:.\main.c      **** int _write(int file, char *ptr, int len)
 177:.\main.c      **** {
 207              		.loc 1 177 0
 208              		.cfi_startproc
 209              		@ args = 0, pretend = 0, frame = 0
 210              		@ frame_needed = 0, uses_anonymous_args = 0
 211              	.LVL34:
 212 0000 70B5     		push	{r4, r5, r6, lr}
 213              		.cfi_def_cfa_offset 16
 214              		.cfi_offset 4, -16
 215              		.cfi_offset 5, -12
 216              		.cfi_offset 6, -8
 217              		.cfi_offset 14, -4
 218 0002 1646     		mov	r6, r2
 219              	.LVL35:
 178:.\main.c      ****     (void) file;
 179:.\main.c      **** 	int n;
 180:.\main.c      **** 	for(n = 0; n < len; n++) {
ARM GAS  C:\Users\dufma\AppData\Local\Temp\ccKMFVo1.s 			page 8


 220              		.loc 1 180 0
 221 0004 0024     		movs	r4, #0
 222 0006 05E0     		b	.L11
 223              	.LVL36:
 224              	.L12:
 181:.\main.c      **** 		UART_PutChar(*ptr++);
 225              		.loc 1 181 0 discriminator 3
 226 0008 4D1C     		adds	r5, r1, #1
 227              	.LVL37:
 228 000a 0878     		ldrb	r0, [r1]	@ zero_extendqisi2
 229 000c FFF7FEFF 		bl	UART_PutChar
 230              	.LVL38:
 180:.\main.c      **** 		UART_PutChar(*ptr++);
 231              		.loc 1 180 0 discriminator 3
 232 0010 0134     		adds	r4, r4, #1
 233              	.LVL39:
 234              		.loc 1 181 0 discriminator 3
 235 0012 2946     		mov	r1, r5
 236              	.LVL40:
 237              	.L11:
 180:.\main.c      **** 		UART_PutChar(*ptr++);
 238              		.loc 1 180 0 discriminator 1
 239 0014 B442     		cmp	r4, r6
 240 0016 F7DB     		blt	.L12
 182:.\main.c      **** 	}
 183:.\main.c      **** 	return len;
 184:.\main.c      **** }
 241              		.loc 1 184 0
 242 0018 3046     		mov	r0, r6
 243 001a 70BD     		pop	{r4, r5, r6, pc}
 244              		.cfi_endproc
 245              	.LFE64:
 246              		.size	_write, .-_write
 247              		.comm	digital_sensor_value,8,4
 248              		.comm	sensors,8,4
 249              		.comm	joy,8,4
 250              		.section	.rodata.str1.4,"aMS",%progbits,1
 251              		.align	2
 252              	.LC0:
 253 0000 53746172 		.ascii	"Start\015\000"
 253      740D00
 254 0007 00       		.space	1
 255              	.LC1:
 256 0008 25642025 		.ascii	"%d %d\015\012\000"
 256      640D0A00 
 257              		.text
 258              	.Letext0:
 259              		.file 2 "c:\\program files (x86)\\cypress\\psoc creator\\3.3\\psoc creator\\import\\gnu\\arm\\4.9.
 260              		.file 3 "c:\\program files (x86)\\cypress\\psoc creator\\3.3\\psoc creator\\import\\gnu\\arm\\4.9.
 261              		.file 4 "Generated_Source\\PSoC5/cytypes.h"
 262              		.file 5 ".\\nunchuk.h"
 263              		.file 6 ".\\Reflectance.h"
 264              		.file 7 "Generated_Source\\PSoC5/core_cm3.h"
 265              		.file 8 ".\\Motor.h"
 266              		.file 9 "Generated_Source\\PSoC5/sensor_isr.h"
 267              		.file 10 "Generated_Source\\PSoC5/UART.h"
 268              		.file 11 "c:\\program files (x86)\\cypress\\psoc creator\\3.3\\psoc creator\\import\\gnu\\arm\\4.9
ARM GAS  C:\Users\dufma\AppData\Local\Temp\ccKMFVo1.s 			page 9


 269              		.file 12 "<built-in>"