ARM GAS  C:\Users\dufma\AppData\Local\Temp\cchpyJYy.s 			page 1


   1              		.syntax unified
   2              		.cpu cortex-m3
   3              		.fpu softvfp
   4              		.eabi_attribute 20, 1
   5              		.eabi_attribute 21, 1
   6              		.eabi_attribute 23, 3
   7              		.eabi_attribute 24, 1
   8              		.eabi_attribute 25, 1
   9              		.eabi_attribute 26, 1
  10              		.eabi_attribute 30, 1
  11              		.eabi_attribute 34, 1
  12              		.eabi_attribute 18, 4
  13              		.thumb
  14              		.file	"Motor.c"
  15              		.text
  16              	.Ltext0:
  17              		.cfi_sections	.debug_frame
  18              		.section	.text.motor_Start,"ax",%progbits
  19              		.align	2
  20              		.global	motor_Start
  21              		.thumb
  22              		.thumb_func
  23              		.type	motor_Start, %function
  24              	motor_Start:
  25              	.LFB63:
  26              		.file 1 ".\\Motor.c"
   1:.\Motor.c     **** /* ========================================
   2:.\Motor.c     ****  *
   3:.\Motor.c     ****  * Copyright YOUR COMPANY, THE YEAR
   4:.\Motor.c     ****  * All Rights Reserved
   5:.\Motor.c     ****  * UNPUBLISHED, LICENSED SOFTWARE.
   6:.\Motor.c     ****  *
   7:.\Motor.c     ****  * CONFIDENTIAL AND PROPRIETARY INFORMATION
   8:.\Motor.c     ****  * WHICH IS THE PROPERTY OF your company.
   9:.\Motor.c     ****  *
  10:.\Motor.c     ****  * ========================================
  11:.\Motor.c     **** */
  12:.\Motor.c     **** 
  13:.\Motor.c     **** #include "Motor.h"
  14:.\Motor.c     **** 
  15:.\Motor.c     **** void motor_Start()
  16:.\Motor.c     **** {
  27              		.loc 1 16 0
  28              		.cfi_startproc
  29              		@ args = 0, pretend = 0, frame = 0
  30              		@ frame_needed = 0, uses_anonymous_args = 0
  31 0000 08B5     		push	{r3, lr}
  32              		.cfi_def_cfa_offset 8
  33              		.cfi_offset 3, -8
  34              		.cfi_offset 14, -4
  17:.\Motor.c     ****     PWM_Start();
  35              		.loc 1 17 0
  36 0002 FFF7FEFF 		bl	PWM_Start
  37              	.LVL0:
  38 0006 08BD     		pop	{r3, pc}
  39              		.cfi_endproc
  40              	.LFE63:
ARM GAS  C:\Users\dufma\AppData\Local\Temp\cchpyJYy.s 			page 2


  41              		.size	motor_Start, .-motor_Start
  42              		.section	.text.motor_Stop,"ax",%progbits
  43              		.align	2
  44              		.global	motor_Stop
  45              		.thumb
  46              		.thumb_func
  47              		.type	motor_Stop, %function
  48              	motor_Stop:
  49              	.LFB64:
  18:.\Motor.c     **** }
  19:.\Motor.c     **** 
  20:.\Motor.c     **** void motor_Stop()
  21:.\Motor.c     **** {
  50              		.loc 1 21 0
  51              		.cfi_startproc
  52              		@ args = 0, pretend = 0, frame = 0
  53              		@ frame_needed = 0, uses_anonymous_args = 0
  54 0000 08B5     		push	{r3, lr}
  55              		.cfi_def_cfa_offset 8
  56              		.cfi_offset 3, -8
  57              		.cfi_offset 14, -4
  22:.\Motor.c     ****     PWM_Stop();
  58              		.loc 1 22 0
  59 0002 FFF7FEFF 		bl	PWM_Stop
  60              	.LVL1:
  61 0006 08BD     		pop	{r3, pc}
  62              		.cfi_endproc
  63              	.LFE64:
  64              		.size	motor_Stop, .-motor_Stop
  65              		.section	.text.motor_forward,"ax",%progbits
  66              		.align	2
  67              		.global	motor_forward
  68              		.thumb
  69              		.thumb_func
  70              		.type	motor_forward, %function
  71              	motor_forward:
  72              	.LFB65:
  23:.\Motor.c     **** }
  24:.\Motor.c     **** 
  25:.\Motor.c     **** /* moving forward */
  26:.\Motor.c     **** void motor_forward(uint8 speed,uint32 delay)
  27:.\Motor.c     **** {
  73              		.loc 1 27 0
  74              		.cfi_startproc
  75              		@ args = 0, pretend = 0, frame = 0
  76              		@ frame_needed = 0, uses_anonymous_args = 0
  77              	.LVL2:
  78 0000 10B5     		push	{r4, lr}
  79              		.cfi_def_cfa_offset 8
  80              		.cfi_offset 4, -8
  81              		.cfi_offset 14, -4
  82 0002 0446     		mov	r4, r0
  28:.\Motor.c     ****     PWM_WriteCompare1(speed); 
  83              		.loc 1 28 0
  84 0004 FFF7FEFF 		bl	PWM_WriteCompare1
  85              	.LVL3:
  29:.\Motor.c     ****     PWM_WriteCompare2(speed); 
ARM GAS  C:\Users\dufma\AppData\Local\Temp\cchpyJYy.s 			page 3


  86              		.loc 1 29 0
  87 0008 2046     		mov	r0, r4
  88 000a FFF7FEFF 		bl	PWM_WriteCompare2
  89              	.LVL4:
  90 000e 10BD     		pop	{r4, pc}
  91              		.cfi_endproc
  92              	.LFE65:
  93              		.size	motor_forward, .-motor_forward
  94              		.section	.text.motor_turn,"ax",%progbits
  95              		.align	2
  96              		.global	motor_turn
  97              		.thumb
  98              		.thumb_func
  99              		.type	motor_turn, %function
 100              	motor_turn:
 101              	.LFB66:
  30:.\Motor.c     **** //    CyDelay(delay);
  31:.\Motor.c     **** }
  32:.\Motor.c     **** 
  33:.\Motor.c     **** /* moving left when l_speed < r_speed or moving right when l_speed > r_speed */
  34:.\Motor.c     **** void motor_turn(uint8 l_speed, uint8 r_speed, uint32 delay)
  35:.\Motor.c     **** {
 102              		.loc 1 35 0
 103              		.cfi_startproc
 104              		@ args = 0, pretend = 0, frame = 0
 105              		@ frame_needed = 0, uses_anonymous_args = 0
 106              	.LVL5:
 107 0000 10B5     		push	{r4, lr}
 108              		.cfi_def_cfa_offset 8
 109              		.cfi_offset 4, -8
 110              		.cfi_offset 14, -4
 111 0002 0C46     		mov	r4, r1
  36:.\Motor.c     ****     PWM_WriteCompare1(l_speed); 
 112              		.loc 1 36 0
 113 0004 FFF7FEFF 		bl	PWM_WriteCompare1
 114              	.LVL6:
  37:.\Motor.c     ****     PWM_WriteCompare2(r_speed); 
 115              		.loc 1 37 0
 116 0008 2046     		mov	r0, r4
 117 000a FFF7FEFF 		bl	PWM_WriteCompare2
 118              	.LVL7:
 119 000e 10BD     		pop	{r4, pc}
 120              		.cfi_endproc
 121              	.LFE66:
 122              		.size	motor_turn, .-motor_turn
 123              		.section	.text.motor_backward,"ax",%progbits
 124              		.align	2
 125              		.global	motor_backward
 126              		.thumb
 127              		.thumb_func
 128              		.type	motor_backward, %function
 129              	motor_backward:
 130              	.LFB67:
  38:.\Motor.c     **** //    CyDelay(delay);
  39:.\Motor.c     **** }
  40:.\Motor.c     **** 
  41:.\Motor.c     **** /* moving backward */
ARM GAS  C:\Users\dufma\AppData\Local\Temp\cchpyJYy.s 			page 4


  42:.\Motor.c     **** void motor_backward(uint8 speed,uint32 delay)
  43:.\Motor.c     **** {
 131              		.loc 1 43 0
 132              		.cfi_startproc
 133              		@ args = 0, pretend = 0, frame = 0
 134              		@ frame_needed = 0, uses_anonymous_args = 0
 135              	.LVL8:
 136 0000 38B5     		push	{r3, r4, r5, lr}
 137              		.cfi_def_cfa_offset 16
 138              		.cfi_offset 3, -16
 139              		.cfi_offset 4, -12
 140              		.cfi_offset 5, -8
 141              		.cfi_offset 14, -4
 142 0002 0446     		mov	r4, r0
 143 0004 0D46     		mov	r5, r1
  44:.\Motor.c     ****     MotorDirLeft_Write(1);
 144              		.loc 1 44 0
 145 0006 0120     		movs	r0, #1
 146              	.LVL9:
 147 0008 FFF7FEFF 		bl	MotorDirLeft_Write
 148              	.LVL10:
  45:.\Motor.c     ****     MotorDirRight_Write(1);
 149              		.loc 1 45 0
 150 000c 0120     		movs	r0, #1
 151 000e FFF7FEFF 		bl	MotorDirRight_Write
 152              	.LVL11:
  46:.\Motor.c     ****     PWM_WriteCompare1(speed); 
 153              		.loc 1 46 0
 154 0012 2046     		mov	r0, r4
 155 0014 FFF7FEFF 		bl	PWM_WriteCompare1
 156              	.LVL12:
  47:.\Motor.c     ****     PWM_WriteCompare2(speed); 
 157              		.loc 1 47 0
 158 0018 2046     		mov	r0, r4
 159 001a FFF7FEFF 		bl	PWM_WriteCompare2
 160              	.LVL13:
  48:.\Motor.c     ****     CyDelay(delay);
 161              		.loc 1 48 0
 162 001e 2846     		mov	r0, r5
 163 0020 FFF7FEFF 		bl	CyDelay
 164              	.LVL14:
 165 0024 38BD     		pop	{r3, r4, r5, pc}
 166              		.cfi_endproc
 167              	.LFE67:
 168              		.size	motor_backward, .-motor_backward
 169 0026 00BF     		.text
 170              	.Letext0:
 171              		.file 2 "c:\\program files (x86)\\cypress\\psoc creator\\3.3\\psoc creator\\import\\gnu\\arm\\4.9.
 172              		.file 3 "c:\\program files (x86)\\cypress\\psoc creator\\3.3\\psoc creator\\import\\gnu\\arm\\4.9.
 173              		.file 4 "Generated_Source\\PSoC5/cytypes.h"
 174              		.file 5 "Generated_Source\\PSoC5/PWM.h"
 175              		.file 6 "Generated_Source\\PSoC5/MotorDirLeft.h"
 176              		.file 7 "Generated_Source\\PSoC5/MotorDirRight.h"
 177              		.file 8 "Generated_Source\\PSoC5/core_cm3.h"
 178              		.file 9 "Generated_Source\\PSoC5/CyLib.h"