ARM GAS  C:\Users\dufma\AppData\Local\Temp\ccEwcIZu.s 			page 1


   1              		.syntax unified
   2              		.cpu cortex-m3
   3              		.fpu softvfp
   4              		.eabi_attribute 20, 1
   5              		.eabi_attribute 21, 1
   6              		.eabi_attribute 23, 3
   7              		.eabi_attribute 24, 1
   8              		.eabi_attribute 25, 1
   9              		.eabi_attribute 26, 1
  10              		.eabi_attribute 30, 1
  11              		.eabi_attribute 34, 1
  12              		.eabi_attribute 18, 4
  13              		.thumb
  14              		.file	"main.c"
  15              		.text
  16              	.Ltext0:
  17              		.cfi_sections	.debug_frame
  18              		.section	.text.wait_going_up,"ax",%progbits
  19              		.align	2
  20              		.global	wait_going_up
  21              		.thumb
  22              		.thumb_func
  23              		.type	wait_going_up, %function
  24              	wait_going_up:
  25              	.LFB63:
  26              		.file 1 ".\\main.c"
   1:.\main.c      **** /* ========================================
   2:.\main.c      ****  *
   3:.\main.c      ****  * Copyright YOUR COMPANY, THE YEAR
   4:.\main.c      ****  * All Rights Reserved
   5:.\main.c      ****  * UNPUBLISHED, LICENSED SOFTWARE.
   6:.\main.c      ****  *
   7:.\main.c      ****  * CONFIDENTIAL AND PROPRIETARY INFORMATION
   8:.\main.c      ****  * WHICH IS THE PROPERTY OF your company.
   9:.\main.c      ****  *
  10:.\main.c      ****  * ========================================
  11:.\main.c      **** */
  12:.\main.c      **** #include <project.h>
  13:.\main.c      **** #include <stdio.h>
  14:.\main.c      **** #include "Motor.h"
  15:.\main.c      **** #include "Ultra.h"
  16:.\main.c      **** #include "nunchuk.h"
  17:.\main.c      **** #include "Reflectance.h"
  18:.\main.c      **** #include "I2C_made.h"
  19:.\main.c      **** #include "gyro.h"
  20:.\main.c      **** #include "accel_magnet.h"
  21:.\main.c      **** 
  22:.\main.c      **** int rread(void);
  23:.\main.c      **** 
  24:.\main.c      **** 
  25:.\main.c      **** #define START_BIT_TIME  100000
  26:.\main.c      **** #define ONE_TIME        59000    
  27:.\main.c      **** 
  28:.\main.c      **** void wait_going_up(void)
  29:.\main.c      **** {
  27              		.loc 1 29 0
  28              		.cfi_startproc
ARM GAS  C:\Users\dufma\AppData\Local\Temp\ccEwcIZu.s 			page 2


  29              		@ args = 0, pretend = 0, frame = 0
  30              		@ frame_needed = 0, uses_anonymous_args = 0
  31 0000 08B5     		push	{r3, lr}
  32              		.cfi_def_cfa_offset 8
  33              		.cfi_offset 3, -8
  34              		.cfi_offset 14, -4
  35              	.L2:
  30:.\main.c      ****     while(!IR_receiver_Read()==1);
  36              		.loc 1 30 0 discriminator 1
  37 0002 FFF7FEFF 		bl	IR_receiver_Read
  38              	.LVL0:
  39 0006 0028     		cmp	r0, #0
  40 0008 FBD0     		beq	.L2
  31:.\main.c      **** }    
  41              		.loc 1 31 0
  42 000a 08BD     		pop	{r3, pc}
  43              		.cfi_endproc
  44              	.LFE63:
  45              		.size	wait_going_up, .-wait_going_up
  46              		.section	.text.wait_going_down,"ax",%progbits
  47              		.align	2
  48              		.global	wait_going_down
  49              		.thumb
  50              		.thumb_func
  51              		.type	wait_going_down, %function
  52              	wait_going_down:
  53              	.LFB64:
  32:.\main.c      **** void wait_going_down(void)
  33:.\main.c      **** {
  54              		.loc 1 33 0
  55              		.cfi_startproc
  56              		@ args = 0, pretend = 0, frame = 0
  57              		@ frame_needed = 0, uses_anonymous_args = 0
  58 0000 08B5     		push	{r3, lr}
  59              		.cfi_def_cfa_offset 8
  60              		.cfi_offset 3, -8
  61              		.cfi_offset 14, -4
  62              	.L5:
  34:.\main.c      ****     while(IR_receiver_Read()==1);
  63              		.loc 1 34 0 discriminator 1
  64 0002 FFF7FEFF 		bl	IR_receiver_Read
  65              	.LVL1:
  66 0006 0128     		cmp	r0, #1
  67 0008 FBD0     		beq	.L5
  35:.\main.c      **** }
  68              		.loc 1 35 0
  69 000a 08BD     		pop	{r3, pc}
  70              		.cfi_endproc
  71              	.LFE64:
  72              		.size	wait_going_down, .-wait_going_down
  73              		.section	.text.count_down_time,"ax",%progbits
  74              		.align	2
  75              		.global	count_down_time
  76              		.thumb
  77              		.thumb_func
  78              		.type	count_down_time, %function
  79              	count_down_time:
ARM GAS  C:\Users\dufma\AppData\Local\Temp\ccEwcIZu.s 			page 3


  80              	.LFB65:
  36:.\main.c      **** 
  37:.\main.c      **** uint count_down_time(void)
  38:.\main.c      **** {
  81              		.loc 1 38 0
  82              		.cfi_startproc
  83              		@ args = 0, pretend = 0, frame = 0
  84              		@ frame_needed = 0, uses_anonymous_args = 0
  85 0000 08B5     		push	{r3, lr}
  86              		.cfi_def_cfa_offset 8
  87              		.cfi_offset 3, -8
  88              		.cfi_offset 14, -4
  39:.\main.c      ****     Timer_ir_WriteCounter(90000);
  89              		.loc 1 39 0
  90 0002 0648     		ldr	r0, .L9
  91 0004 FFF7FEFF 		bl	Timer_ir_WriteCounter
  92              	.LVL2:
  40:.\main.c      ****     Timer_ir_Start();
  93              		.loc 1 40 0
  94 0008 FFF7FEFF 		bl	Timer_ir_Start
  95              	.LVL3:
  41:.\main.c      ****     wait_going_up();        
  96              		.loc 1 41 0
  97 000c FFF7FEFF 		bl	wait_going_up
  98              	.LVL4:
  42:.\main.c      ****     Timer_ir_Stop();
  99              		.loc 1 42 0
 100 0010 FFF7FEFF 		bl	Timer_ir_Stop
 101              	.LVL5:
  43:.\main.c      ****     return(Timer_ir_ReadCounter());
 102              		.loc 1 43 0
 103 0014 FFF7FEFF 		bl	Timer_ir_ReadCounter
 104              	.LVL6:
  44:.\main.c      **** }
 105              		.loc 1 44 0
 106 0018 08BD     		pop	{r3, pc}
 107              	.L10:
 108 001a 00BF     		.align	2
 109              	.L9:
 110 001c 905F0100 		.word	90000
 111              		.cfi_endproc
 112              	.LFE65:
 113              		.size	count_down_time, .-count_down_time
 114              		.section	.text.count_up_time,"ax",%progbits
 115              		.align	2
 116              		.global	count_up_time
 117              		.thumb
 118              		.thumb_func
 119              		.type	count_up_time, %function
 120              	count_up_time:
 121              	.LFB66:
  45:.\main.c      **** 
  46:.\main.c      **** uint count_up_time(void)
  47:.\main.c      **** {
 122              		.loc 1 47 0
 123              		.cfi_startproc
 124              		@ args = 0, pretend = 0, frame = 0
ARM GAS  C:\Users\dufma\AppData\Local\Temp\ccEwcIZu.s 			page 4


 125              		@ frame_needed = 0, uses_anonymous_args = 0
 126 0000 08B5     		push	{r3, lr}
 127              		.cfi_def_cfa_offset 8
 128              		.cfi_offset 3, -8
 129              		.cfi_offset 14, -4
  48:.\main.c      ****     Timer_ir_WriteCounter(90000);
 130              		.loc 1 48 0
 131 0002 0648     		ldr	r0, .L13
 132 0004 FFF7FEFF 		bl	Timer_ir_WriteCounter
 133              	.LVL7:
  49:.\main.c      ****     Timer_ir_Start();
 134              		.loc 1 49 0
 135 0008 FFF7FEFF 		bl	Timer_ir_Start
 136              	.LVL8:
  50:.\main.c      ****     wait_going_down();      
 137              		.loc 1 50 0
 138 000c FFF7FEFF 		bl	wait_going_down
 139              	.LVL9:
  51:.\main.c      ****     Timer_ir_Stop();
 140              		.loc 1 51 0
 141 0010 FFF7FEFF 		bl	Timer_ir_Stop
 142              	.LVL10:
  52:.\main.c      ****     return(Timer_ir_ReadCounter());
 143              		.loc 1 52 0
 144 0014 FFF7FEFF 		bl	Timer_ir_ReadCounter
 145              	.LVL11:
  53:.\main.c      **** }
 146              		.loc 1 53 0
 147 0018 08BD     		pop	{r3, pc}
 148              	.L14:
 149 001a 00BF     		.align	2
 150              	.L13:
 151 001c 905F0100 		.word	90000
 152              		.cfi_endproc
 153              	.LFE66:
 154              		.size	count_up_time, .-count_up_time
 155              		.section	.text.get_IR,"ax",%progbits
 156              		.align	2
 157              		.global	get_IR
 158              		.thumb
 159              		.thumb_func
 160              		.type	get_IR, %function
 161              	get_IR:
 162              	.LFB67:
  54:.\main.c      **** 
  55:.\main.c      **** 
  56:.\main.c      **** uint32 get_IR(void)
  57:.\main.c      **** {
 163              		.loc 1 57 0
 164              		.cfi_startproc
 165              		@ args = 0, pretend = 0, frame = 0
 166              		@ frame_needed = 0, uses_anonymous_args = 0
 167 0000 10B5     		push	{r4, lr}
 168              		.cfi_def_cfa_offset 8
 169              		.cfi_offset 4, -8
 170              		.cfi_offset 14, -4
 171              	.LVL12:
ARM GAS  C:\Users\dufma\AppData\Local\Temp\ccEwcIZu.s 			page 5


  58:.\main.c      ****     int bit[32]={0};
  59:.\main.c      ****     uint32 val;
  60:.\main.c      ****     uint t1, t2, i, j;
  61:.\main.c      ****     t1 = 0;
  62:.\main.c      ****     t2 = 0; 
  63:.\main.c      ****     
  64:.\main.c      ****     wait_going_down();
 172              		.loc 1 64 0
 173 0002 FFF7FEFF 		bl	wait_going_down
 174              	.LVL13:
  65:.\main.c      ****   
  66:.\main.c      ****     t1 = count_down_time();
 175              		.loc 1 66 0
 176 0006 FFF7FEFF 		bl	count_down_time
 177              	.LVL14:
 178 000a 0446     		mov	r4, r0
 179              	.LVL15:
  67:.\main.c      ****     t2 = count_up_time();
 180              		.loc 1 67 0
 181 000c FFF7FEFF 		bl	count_up_time
 182              	.LVL16:
 183 0010 0346     		mov	r3, r0
 184              	.LVL17:
  68:.\main.c      ****     
  69:.\main.c      ****     printf("%d %d %d\r\n",t1,t2,t1+t2);
 185              		.loc 1 69 0
 186 0012 0448     		ldr	r0, .L17
 187              	.LVL18:
 188 0014 2146     		mov	r1, r4
 189 0016 1A46     		mov	r2, r3
 190 0018 2344     		add	r3, r3, r4
 191              	.LVL19:
 192 001a FFF7FEFF 		bl	printf
 193              	.LVL20:
  70:.\main.c      ****  /*   if((t1 + t2) > START_BIT_TIME)
  71:.\main.c      ****     {
  72:.\main.c      ****         printf("START \r\n");
  73:.\main.c      ****         
  74:.\main.c      ****         for(i = 0; i < 32; i++)
  75:.\main.c      ****         {
  76:.\main.c      ****              wait_going_up();
  77:.\main.c      ****             t2 = count_up_time();
  78:.\main.c      ****             if(t2 > ONE_TIME)
  79:.\main.c      ****             {
  80:.\main.c      ****                 bit[i]=1;
  81:.\main.c      ****             }
  82:.\main.c      ****             else
  83:.\main.c      ****                 bit[i]=0; 
  84:.\main.c      ****         } 
  85:.\main.c      ****         
  86:.\main.c      ****         int cnt;
  87:.\main.c      ****         for(cnt=0; cnt<32; cnt++)
  88:.\main.c      ****             printf("%d ",bit[cnt]);
  89:.\main.c      ****         printf("\r\n\n");
  90:.\main.c      ****     } // end if START bit identification
  91:.\main.c      ****   */  
  92:.\main.c      ****     
ARM GAS  C:\Users\dufma\AppData\Local\Temp\ccEwcIZu.s 			page 6


  93:.\main.c      ****     return val;
  94:.\main.c      **** }
 194              		.loc 1 94 0
 195 001e 0020     		movs	r0, #0
 196 0020 10BD     		pop	{r4, pc}
 197              	.LVL21:
 198              	.L18:
 199 0022 00BF     		.align	2
 200              	.L17:
 201 0024 00000000 		.word	.LC0
 202              		.cfi_endproc
 203              	.LFE67:
 204              		.size	get_IR, .-get_IR
 205              		.section	.text.main,"ax",%progbits
 206              		.align	2
 207              		.global	main
 208              		.thumb
 209              		.thumb_func
 210              		.type	main, %function
 211              	main:
 212              	.LFB68:
  95:.\main.c      **** 
  96:.\main.c      **** 
  97:.\main.c      **** 
  98:.\main.c      **** int main()
  99:.\main.c      **** {
 213              		.loc 1 99 0
 214              		.cfi_startproc
 215              		@ args = 0, pretend = 0, frame = 0
 216              		@ frame_needed = 0, uses_anonymous_args = 0
 217 0000 08B5     		push	{r3, lr}
 218              		.cfi_def_cfa_offset 8
 219              		.cfi_offset 3, -8
 220              		.cfi_offset 14, -4
 100:.\main.c      ****     CyGlobalIntEnable; 
 221              		.loc 1 100 0
 222              	@ 100 ".\main.c" 1
 223 0002 62B6     		CPSIE   i
 224              	@ 0 "" 2
 101:.\main.c      ****     UART_Start();
 225              		.loc 1 101 0
 226              		.thumb
 227 0004 FFF7FEFF 		bl	UART_Start
 228              	.LVL22:
 102:.\main.c      ****     printf("Start\r\n");
 229              		.loc 1 102 0
 230 0008 0248     		ldr	r0, .L22
 231 000a FFF7FEFF 		bl	puts
 232              	.LVL23:
 233              	.L20:
 103:.\main.c      ****     
 104:.\main.c      ****     uint32 IR_val;
 105:.\main.c      ****     
 106:.\main.c      ****     for(;;)
 107:.\main.c      ****     {
 108:.\main.c      ****         IR_val = get_IR();
 234              		.loc 1 108 0 discriminator 1
ARM GAS  C:\Users\dufma\AppData\Local\Temp\ccEwcIZu.s 			page 7


 235 000e FFF7FEFF 		bl	get_IR
 236              	.LVL24:
 109:.\main.c      ****      
 110:.\main.c      **** /*
 111:.\main.c      ****         Timer_ir_Start();
 112:.\main.c      ****          printf("B %d\r\n",(int)(Timer_ir_ReadPeriod()));
 113:.\main.c      ****         CyDelay(13);
 114:.\main.c      ****         Timer_ir_Stop();
 115:.\main.c      ****         printf("A %d\r\n",(unsigned int)(Timer_ir_ReadCounter()));
 116:.\main.c      ****        // printf("%d\r\n",(before-after));
 117:.\main.c      ****         Timer_ir_WriteCounter(0xFFFF);
 118:.\main.c      ****         
 119:.\main.c      ****         //*/
 120:.\main.c      ****         
 121:.\main.c      ****         //  printf("%d %d\r\n",IR_receiver_Read(),Timer_ir_ReadCapture());
 122:.\main.c      ****         /*
 123:.\main.c      ****         if(IR_receiver_Read()==1)
 124:.\main.c      ****         {
 125:.\main.c      ****             Timer_ir_Enable();
 126:.\main.c      ****         }
 127:.\main.c      ****         else
 128:.\main.c      ****         {
 129:.\main.c      ****             Timer_ir_Stop();
 130:.\main.c      ****             int time = Timer_ir_ReadPeriod()-Timer_ir_ReadCapture();
 131:.\main.c      ****             printf("%d\r\n",time);
 132:.\main.c      ****         }
 133:.\main.c      ****       */
 134:.\main.c      ****         
 135:.\main.c      ****         //  printf("%d\r\n",time);
 136:.\main.c      ****         /*
 137:.\main.c      ****         int temp =IR_receiver_Read();
 138:.\main.c      ****         if(before ==1 && temp==0)
 139:.\main.c      ****         {
 140:.\main.c      ****             printf("wow\r\n");
 141:.\main.c      ****             Timer_ir_Start();
 142:.\main.c      ****             Timer_ir_Enable();
 143:.\main.c      ****         }
 144:.\main.c      ****         before = temp;
 145:.\main.c      ****         printf("%d \r\n", IR_receiver_Read());
 146:.\main.c      ****         */
 147:.\main.c      ****     }
 237              		.loc 1 147 0 discriminator 1
 238 0012 FCE7     		b	.L20
 239              	.L23:
 240              		.align	2
 241              	.L22:
 242 0014 0C000000 		.word	.LC1
 243              		.cfi_endproc
 244              	.LFE68:
 245              		.size	main, .-main
 246              		.section	.text.convert_raw,"ax",%progbits
 247              		.align	2
 248              		.global	convert_raw
 249              		.thumb
 250              		.thumb_func
 251              		.type	convert_raw, %function
 252              	convert_raw:
ARM GAS  C:\Users\dufma\AppData\Local\Temp\ccEwcIZu.s 			page 8


 253              	.LFB69:
 148:.\main.c      ****     
 149:.\main.c      ****        /*  //nunchuk//
 150:.\main.c      ****     ----------------------------------------------------
 151:.\main.c      ****     nunchuk_start();
 152:.\main.c      ****     nunchuk_init();
 153:.\main.c      ****     
 154:.\main.c      ****     for(;;)
 155:.\main.c      ****     {    
 156:.\main.c      ****         nunchuk_read();
 157:.\main.c      ****     }
 158:.\main.c      ****     //----------------------------------------------------*/
 159:.\main.c      ****     
 160:.\main.c      ****     /* //accelerometer//
 161:.\main.c      ****     //--------------------------------------------------------------
 162:.\main.c      ****     I2C_Start();
 163:.\main.c      ****   
 164:.\main.c      ****     uint8 X_L_A, X_H_A, Y_L_A, Y_H_A, Z_L_A, Z_H_A;
 165:.\main.c      ****     int16 X_AXIS, Y_AXIS, Z_AXIS;
 166:.\main.c      ****     
 167:.\main.c      ****     I2C_write(ACCEL_MAG_ADDR, ACCEL_CTRL1_REG, 0x37);           // set accelerometer & magnetometer
 168:.\main.c      ****     I2C_write(ACCEL_MAG_ADDR, ACCEL_CTRL7_REG, 0x22);
 169:.\main.c      ****     
 170:.\main.c      ****     
 171:.\main.c      ****     for(;;)
 172:.\main.c      ****     {
 173:.\main.c      ****         //print out accelerometer output
 174:.\main.c      ****         X_L_A = I2C_read(ACCEL_MAG_ADDR, OUT_X_L_A);
 175:.\main.c      ****         X_H_A = I2C_read(ACCEL_MAG_ADDR, OUT_X_H_A);
 176:.\main.c      ****         X_AXIS = convert_raw(X_L_A, X_H_A);
 177:.\main.c      ****         
 178:.\main.c      ****         Y_L_A = I2C_read(ACCEL_MAG_ADDR, OUT_Y_L_A);
 179:.\main.c      ****         Y_H_A = I2C_read(ACCEL_MAG_ADDR, OUT_Y_H_A);
 180:.\main.c      ****         Y_AXIS = convert_raw(Y_L_A, Y_H_A);
 181:.\main.c      ****         
 182:.\main.c      ****         Z_L_A = I2C_read(ACCEL_MAG_ADDR, OUT_Z_L_A);
 183:.\main.c      ****         Z_H_A = I2C_read(ACCEL_MAG_ADDR, OUT_Z_H_A);
 184:.\main.c      ****         Z_AXIS = convert_raw(Z_L_A, Z_H_A);
 185:.\main.c      ****         
 186:.\main.c      ****         printf("ACCEL: %d %d %d %d %d %d \r\n", X_L_A, X_H_A, Y_L_A, Y_H_A, Z_L_A, Z_H_A);
 187:.\main.c      ****         value_convert_accel(X_AXIS, Y_AXIS, Z_AXIS);
 188:.\main.c      ****         printf("\n");
 189:.\main.c      ****         
 190:.\main.c      ****         CyDelay(50);
 191:.\main.c      ****     }
 192:.\main.c      ****     ///---------------------------------------------------------- */
 193:.\main.c      ****      
 194:.\main.c      ****      /* //ultra//
 195:.\main.c      ****     ----------------------------------------------------
 196:.\main.c      ****     ultra_isr_StartEx(ultra_isr_handler);   // Ultra Sonic Interrupt
 197:.\main.c      ****     Ultra_Start();                          // Ultra Sonic Start function
 198:.\main.c      ****    
 199:.\main.c      ****     for(;;)
 200:.\main.c      ****     {       
 201:.\main.c      ****         CyDelay(100); 
 202:.\main.c      ****         Trig_Write(1);           // Trigger High
 203:.\main.c      ****         CyDelayUs(10);              // 10 micro seconds for trigger input signals
ARM GAS  C:\Users\dufma\AppData\Local\Temp\ccEwcIZu.s 			page 9


 204:.\main.c      ****         Trig_Write(0);           // Trigger Low
 205:.\main.c      ****     }
 206:.\main.c      ****     //----------------------------------------------------*/
 207:.\main.c      ****     
 208:.\main.c      ****     /* //reflectance//
 209:.\main.c      ****     ----------------------------------------------------
 210:.\main.c      ****     sensor_isr_StartEx(sensor_isr_handler);
 211:.\main.c      ****     
 212:.\main.c      ****     Refelctance_Start();
 213:.\main.c      **** 
 214:.\main.c      ****     IR_led_Write(1);
 215:.\main.c      ****     for(;;)
 216:.\main.c      ****     {
 217:.\main.c      ****         reflectance_period();      //print out each period of reflectance sensors
 218:.\main.c      ****         reflectance_digital();      //print out 0 or 1 according to results of reflectance period
 219:.\main.c      ****         
 220:.\main.c      ****         CyDelay(500);
 221:.\main.c      ****     }
 222:.\main.c      ****     ///----------------------------------------------------*/
 223:.\main.c      ****    
 224:.\main.c      ****     
 225:.\main.c      ****      /* //motor//
 226:.\main.c      ****     ----------------------------------------------------
 227:.\main.c      ****     motor_Start();              // motor start
 228:.\main.c      **** 
 229:.\main.c      ****     motor_forward(50,2000);     // moving forward
 230:.\main.c      ****     motor_turn(10,50,2000);     // turn
 231:.\main.c      ****     motor_turn(50,10,2000);     // turn
 232:.\main.c      ****     motor_backward(50,2000);    // movinb backward
 233:.\main.c      ****        
 234:.\main.c      ****     motor_Stop();               // motor stop
 235:.\main.c      ****     
 236:.\main.c      ****     for(;;)
 237:.\main.c      ****     {
 238:.\main.c      **** 
 239:.\main.c      ****     }
 240:.\main.c      ****     ///----------------------------------------------------*/
 241:.\main.c      ****     
 242:.\main.c      ****     
 243:.\main.c      ****    /* //gyroscope//
 244:.\main.c      ****      //-----------------------------------------------------
 245:.\main.c      ****     I2C_Start();
 246:.\main.c      ****   
 247:.\main.c      ****     uint8 X_AXIS_L, X_AXIS_H, Y_AXIS_L, Y_AXIS_H, Z_AXIS_L, Z_AXIS_H;
 248:.\main.c      ****     //uint8 X_L_M, X_H_M, Y_L_M, Y_H_M, Z_L_M, Z_H_M;
 249:.\main.c      ****     //uint8 X_L_A, X_H_A, Y_L_A, Y_H_A, Z_L_A, Z_H_A;
 250:.\main.c      ****     int16 X_AXIS, Y_AXIS, Z_AXIS;
 251:.\main.c      ****     
 252:.\main.c      ****     I2C_write(GYRO_ADDR, GYRO_CTRL1_REG, 0x0F);             // set gyroscope into active mode
 253:.\main.c      ****     I2C_write(GYRO_ADDR, GYRO_CTRL4_REG, 0x30);             // set full scale selection to 2000dps 
 254:.\main.c      ****     
 255:.\main.c      ****     for(;;)
 256:.\main.c      ****     {
 257:.\main.c      ****         //print out gyroscope output
 258:.\main.c      ****         X_AXIS_L = I2C_read(GYRO_ADDR, OUT_X_AXIS_L);
 259:.\main.c      ****         X_AXIS_H = I2C_read(GYRO_ADDR, OUT_X_AXIS_H);
 260:.\main.c      ****         X_AXIS = convert_raw(X_AXIS_H, X_AXIS_L);
ARM GAS  C:\Users\dufma\AppData\Local\Temp\ccEwcIZu.s 			page 10


 261:.\main.c      ****         
 262:.\main.c      ****         
 263:.\main.c      ****         Y_AXIS_L = I2C_read(GYRO_ADDR, OUT_Y_AXIS_L);
 264:.\main.c      ****         Y_AXIS_H = I2C_read(GYRO_ADDR, OUT_Y_AXIS_H);
 265:.\main.c      ****         Y_AXIS = convert_raw(Y_AXIS_H, Y_AXIS_L);
 266:.\main.c      ****         
 267:.\main.c      ****         
 268:.\main.c      ****         Z_AXIS_L = I2C_read(GYRO_ADDR, OUT_Z_AXIS_L);
 269:.\main.c      ****         Z_AXIS_H = I2C_read(GYRO_ADDR, OUT_Z_AXIS_H);
 270:.\main.c      ****         Z_AXIS = convert_raw(Z_AXIS_H, Z_AXIS_L);
 271:.\main.c      ****         
 272:.\main.c      ****         
 273:.\main.c      ****         //printf("X_AXIS_L: %d, X_AXIS_H: %d, average: %d \r\n", X_AXIS_L, X_AXIS_H, (X_AXIS_H+X_AX
 274:.\main.c      ****         //printf("Y_AXIS_L: %d, Y_AXIS_H: %d, average: %d \r\n", Y_AXIS_L, Y_AXIS_H, (Y_AXIS_H+Y_AX
 275:.\main.c      ****         //printf("Z_AXIS_L: %d, Z_AXIS_H: %d, average: %d \r\n", Z_AXIS_L, Z_AXIS_H, (Z_AXIS_H+Z_AX
 276:.\main.c      ****         
 277:.\main.c      ****         printf("H L : %d %d %d %d %d %d \r\n", X_AXIS_L, X_AXIS_H, Y_AXIS_L, Y_AXIS_H, Z_AXIS_L, Z_
 278:.\main.c      ****         printf("%d %d %d \r\n", X_AXIS, Y_AXIS, Z_AXIS);
 279:.\main.c      ****         //printf("%d %d %d \r\n", value_convert_gyro(X_AXIS), value_convert_gyro(Y_AXIS), value_con
 280:.\main.c      ****         
 281:.\main.c      ****        CyDelay(50);
 282:.\main.c      ****     }
 283:.\main.c      ****     ///-----------------------------------------------------------------*/ 
 284:.\main.c      ****    
 285:.\main.c      ****   
 286:.\main.c      ****     
 287:.\main.c      ****     /* //magnetometer//
 288:.\main.c      ****      //--------------------------------------------------------------
 289:.\main.c      ****     I2C_Start();
 290:.\main.c      ****    
 291:.\main.c      ****     uint8 X_L_M, X_H_M, Y_L_M, Y_H_M, Z_L_M, Z_H_M;
 292:.\main.c      ****     int16 X_AXIS, Y_AXIS, Z_AXIS;
 293:.\main.c      ****     
 294:.\main.c      ****     I2C_write(GYRO_ADDR, GYRO_CTRL1_REG, 0x0F);             // set gyroscope into active mode
 295:.\main.c      ****     I2C_write(GYRO_ADDR, GYRO_CTRL4_REG, 0x30);             // set full scale selection to 2000dps
 296:.\main.c      ****     I2C_write(ACCEL_MAG_ADDR, ACCEL_CTRL1_REG, 0x37);           // set accelerometer & magnetometer
 297:.\main.c      ****     I2C_write(ACCEL_MAG_ADDR, ACCEL_CTRL7_REG, 0x22);
 298:.\main.c      ****     
 299:.\main.c      ****     
 300:.\main.c      ****     for(;;)
 301:.\main.c      ****     {
 302:.\main.c      ****         X_L_M = I2C_read(ACCEL_MAG_ADDR, OUT_X_L_M);
 303:.\main.c      ****         X_H_M = I2C_read(ACCEL_MAG_ADDR, OUT_X_H_M);
 304:.\main.c      ****         X_AXIS = convert_raw(X_L_M, X_H_M);
 305:.\main.c      ****         
 306:.\main.c      ****         Y_L_M = I2C_read(ACCEL_MAG_ADDR, OUT_Y_L_M);
 307:.\main.c      ****         Y_H_M = I2C_read(ACCEL_MAG_ADDR, OUT_Y_H_M);
 308:.\main.c      ****         Y_AXIS = convert_raw(Y_L_M, Y_H_M);
 309:.\main.c      ****         
 310:.\main.c      ****         Z_L_M = I2C_read(ACCEL_MAG_ADDR, OUT_Z_L_M);
 311:.\main.c      ****         Z_H_M = I2C_read(ACCEL_MAG_ADDR, OUT_Z_H_M);
 312:.\main.c      ****         Z_AXIS = convert_raw(Z_L_M, Z_H_M);
 313:.\main.c      ****         
 314:.\main.c      ****         heading(X_AXIS, Y_AXIS);
 315:.\main.c      ****         printf("MAGNET: %d %d %d %d %d %d \r\n", X_L_M, X_H_M, Y_L_M, Y_H_M, Z_L_M, Z_H_M);
 316:.\main.c      ****         printf("%d %d %d \r\n", X_AXIS,Y_AXIS, Z_AXIS);
 317:.\main.c      ****         CyDelay(50);
ARM GAS  C:\Users\dufma\AppData\Local\Temp\ccEwcIZu.s 			page 11


 318:.\main.c      ****           
 319:.\main.c      ****     }
 320:.\main.c      ****     ///----------------------------------------------------------*/
 321:.\main.c      **** }
 322:.\main.c      **** 
 323:.\main.c      **** uint16 convert_raw(uint8 L, uint8 H)            // concatenation
 324:.\main.c      **** {
 254              		.loc 1 324 0
 255              		.cfi_startproc
 256              		@ args = 0, pretend = 0, frame = 0
 257              		@ frame_needed = 0, uses_anonymous_args = 0
 258              		@ link register save eliminated.
 259              	.LVL25:
 325:.\main.c      ****     uint16 raw;
 326:.\main.c      ****     raw = (int16)(L | H << 8);
 327:.\main.c      ****     
 328:.\main.c      ****     return raw;
 329:.\main.c      **** }
 260              		.loc 1 329 0
 261 0000 40EA0120 		orr	r0, r0, r1, lsl #8
 262              	.LVL26:
 263 0004 7047     		bx	lr
 264              		.cfi_endproc
 265              	.LFE69:
 266              		.size	convert_raw, .-convert_raw
 267 0006 00BF     		.section	.text._write,"ax",%progbits
 268              		.align	2
 269              		.global	_write
 270              		.thumb
 271              		.thumb_func
 272              		.type	_write, %function
 273              	_write:
 274              	.LFB70:
 330:.\main.c      **** 
 331:.\main.c      **** 
 332:.\main.c      **** #if 0
 333:.\main.c      **** int rread(void)
 334:.\main.c      **** {
 335:.\main.c      ****     SC0_SetDriveMode(PIN_DM_STRONG);
 336:.\main.c      ****     SC0_Write(1);
 337:.\main.c      ****     CyDelayUs(10);
 338:.\main.c      ****     SC0_SetDriveMode(PIN_DM_DIG_HIZ);
 339:.\main.c      ****     Timer_1_Start();
 340:.\main.c      ****     uint16_t start = Timer_1_ReadCounter();
 341:.\main.c      ****     uint16_t end = 0;
 342:.\main.c      ****     while(!(Timer_1_ReadStatusRegister() & Timer_1_STATUS_TC)) {
 343:.\main.c      ****         if(SC0_Read() == 0 && end == 0) {
 344:.\main.c      ****             end = Timer_1_ReadCounter();
 345:.\main.c      ****         }
 346:.\main.c      ****     }
 347:.\main.c      ****     Timer_1_Stop();
 348:.\main.c      ****     
 349:.\main.c      ****     return (start - end);
 350:.\main.c      **** }
 351:.\main.c      **** #endif
 352:.\main.c      **** 
 353:.\main.c      **** int _write(int file, char *ptr, int len)
ARM GAS  C:\Users\dufma\AppData\Local\Temp\ccEwcIZu.s 			page 12


 354:.\main.c      **** {
 275              		.loc 1 354 0
 276              		.cfi_startproc
 277              		@ args = 0, pretend = 0, frame = 0
 278              		@ frame_needed = 0, uses_anonymous_args = 0
 279              	.LVL27:
 280 0000 70B5     		push	{r4, r5, r6, lr}
 281              		.cfi_def_cfa_offset 16
 282              		.cfi_offset 4, -16
 283              		.cfi_offset 5, -12
 284              		.cfi_offset 6, -8
 285              		.cfi_offset 14, -4
 286 0002 1646     		mov	r6, r2
 287              	.LVL28:
 355:.\main.c      ****     (void) file;
 356:.\main.c      **** 	int n;
 357:.\main.c      **** 	for(n = 0; n < len; n++) {
 288              		.loc 1 357 0
 289 0004 0024     		movs	r4, #0
 290 0006 05E0     		b	.L26
 291              	.LVL29:
 292              	.L27:
 358:.\main.c      **** 		UART_PutChar(*ptr++);
 293              		.loc 1 358 0 discriminator 3
 294 0008 4D1C     		adds	r5, r1, #1
 295              	.LVL30:
 296 000a 0878     		ldrb	r0, [r1]	@ zero_extendqisi2
 297 000c FFF7FEFF 		bl	UART_PutChar
 298              	.LVL31:
 357:.\main.c      **** 		UART_PutChar(*ptr++);
 299              		.loc 1 357 0 discriminator 3
 300 0010 0134     		adds	r4, r4, #1
 301              	.LVL32:
 302              		.loc 1 358 0 discriminator 3
 303 0012 2946     		mov	r1, r5
 304              	.LVL33:
 305              	.L26:
 357:.\main.c      **** 		UART_PutChar(*ptr++);
 306              		.loc 1 357 0 discriminator 1
 307 0014 B442     		cmp	r4, r6
 308 0016 F7DB     		blt	.L27
 359:.\main.c      **** 	}
 360:.\main.c      **** 	return len;
 361:.\main.c      **** }
 309              		.loc 1 361 0
 310 0018 3046     		mov	r0, r6
 311 001a 70BD     		pop	{r4, r5, r6, pc}
 312              		.cfi_endproc
 313              	.LFE70:
 314              		.size	_write, .-_write
 315              		.comm	digital_sensor_value,8,4
 316              		.comm	sensors,8,4
 317              		.section	.rodata.str1.4,"aMS",%progbits,1
 318              		.align	2
 319              	.LC0:
 320 0000 25642025 		.ascii	"%d %d %d\015\012\000"
 320      64202564 
ARM GAS  C:\Users\dufma\AppData\Local\Temp\ccEwcIZu.s 			page 13


 320      0D0A00
 321 000b 00       		.space	1
 322              	.LC1:
 323 000c 53746172 		.ascii	"Start\015\000"
 323      740D00
 324 0013 00       		.text
 325              	.Letext0:
 326              		.file 2 "c:\\program files (x86)\\cypress\\psoc creator\\3.3\\psoc creator\\import\\gnu\\arm\\4.9.
 327              		.file 3 "c:\\program files (x86)\\cypress\\psoc creator\\3.3\\psoc creator\\import\\gnu\\arm\\4.9.
 328              		.file 4 "Generated_Source\\PSoC5/cytypes.h"
 329              		.file 5 "c:\\program files (x86)\\cypress\\psoc creator\\3.3\\psoc creator\\import\\gnu\\arm\\4.9.
 330              		.file 6 ".\\Reflectance.h"
 331              		.file 7 "Generated_Source\\PSoC5/core_cm3.h"
 332              		.file 8 "Generated_Source\\PSoC5/Timer_ir.h"
 333              		.file 9 "Generated_Source\\PSoC5/IR_receiver.h"
 334              		.file 10 "Generated_Source\\PSoC5/UART.h"
 335              		.file 11 "c:\\program files (x86)\\cypress\\psoc creator\\3.3\\psoc creator\\import\\gnu\\arm\\4.9
 336              		.file 12 "<built-in>"